
5-UART Demo.elf:     file format elf32-littleriscv
5-UART Demo.elf
architecture: riscv:rv32, flags 0x00000112:
EXEC_P, HAS_SYMS, D_PAGED
start address 0x00000000

Program Header:
    LOAD off    0x00001000 vaddr 0x00000000 paddr 0x00000000 align 2**12
         filesz 0x00008ec4 memsz 0x00008ec4 flags r-x
    LOAD off    0x0000a000 vaddr 0x20000000 paddr 0x00008ec4 align 2**12
         filesz 0x00000248 memsz 0x00000390 flags rw-
    LOAD off    0x0000a800 vaddr 0x2000f800 paddr 0x2000f800 align 2**12
         filesz 0x00000000 memsz 0x00000800 flags rw-

Sections:
Idx Name           Size      VMA       LMA       File off  Algn  Flags
  0 .init          00000038  00000000  00000000  00001000  2**1  CONTENTS, ALLOC, LOAD, READONLY, CODE
  1 .vector        000001c8  00000038  00000038  00001038  2**1  CONTENTS, ALLOC, LOAD, READONLY, CODE
  2 .text          00008cc4  00000200  00000200  00001200  2**3  CONTENTS, ALLOC, LOAD, READONLY, CODE
  3 .fini          00000000  00008ec4  00008ec4  0000a248  2**0  CONTENTS, ALLOC, LOAD, CODE
  4 .dalign        00000000  20000000  20000000  0000a248  2**0  CONTENTS
  5 .dlalign       00000000  00008ec4  00008ec4  0000a248  2**0  CONTENTS
  6 .data          00000248  20000000  00008ec4  0000a000  2**2  CONTENTS, ALLOC, LOAD, DATA
  7 .bss           00000148  20000248  0000910c  0000a248  2**2  ALLOC
  8 .stack         00000800  2000f800  2000f800  0000a800  2**0  ALLOC
  9 .debug_info    00015258  00000000  00000000  0000a248  2**0  CONTENTS, READONLY, DEBUGGING
 10 .debug_abbrev  00003707  00000000  00000000  0001f4a0  2**0  CONTENTS, READONLY, DEBUGGING
 11 .debug_aranges 00000cc8  00000000  00000000  00022ba8  2**3  CONTENTS, READONLY, DEBUGGING
 12 .debug_ranges  00000b20  00000000  00000000  00023870  2**3  CONTENTS, READONLY, DEBUGGING
 13 .debug_line    0000d8a4  00000000  00000000  00024390  2**0  CONTENTS, READONLY, DEBUGGING
 14 .debug_str     00004a56  00000000  00000000  00031c34  2**0  CONTENTS, READONLY, DEBUGGING
 15 .comment       00000033  00000000  00000000  0003668a  2**0  CONTENTS, READONLY
 16 .debug_frame   00003e98  00000000  00000000  000366c0  2**2  CONTENTS, READONLY, DEBUGGING
 17 .stab          00000084  00000000  00000000  0003a558  2**2  CONTENTS, READONLY, DEBUGGING
 18 .stabstr       00000117  00000000  00000000  0003a5dc  2**0  CONTENTS, READONLY, DEBUGGING
SYMBOL TABLE:
00000000 l    d  .init	00000000 .init
00000038 l    d  .vector	00000000 .vector
00000200 l    d  .text	00000000 .text
00008ec4 l    d  .fini	00000000 .fini
20000000 l    d  .dalign	00000000 .dalign
00008ec4 l    d  .dlalign	00000000 .dlalign
20000000 l    d  .data	00000000 .data
20000248 l    d  .bss	00000000 .bss
2000f800 l    d  .stack	00000000 .stack
00000000 l    d  .debug_info	00000000 .debug_info
00000000 l    d  .debug_abbrev	00000000 .debug_abbrev
00000000 l    d  .debug_aranges	00000000 .debug_aranges
00000000 l    d  .debug_ranges	00000000 .debug_ranges
00000000 l    d  .debug_line	00000000 .debug_line
00000000 l    d  .debug_str	00000000 .debug_str
00000000 l    d  .comment	00000000 .comment
00000000 l    d  .debug_frame	00000000 .debug_frame
00000000 l    d  .stab	00000000 .stab
00000000 l    d  .stabstr	00000000 .stabstr
00000000 l    df *ABS*	00000000 ./sdk/Startup/startup_ch32v30x.o
00000038 l       .vector	00000000 _vector_base
00000000 l    df *ABS*	00000000 zf_driver_delay.c
00000000 l    df *ABS*	00000000 zf_driver_gpio.c
00000000 l    df *ABS*	00000000 zf_driver_uart.c
00000000 l    df *ABS*	00000000 zf_device_bluetooth_ch9141.c
200002a8 l     O .bss	00000014 bluetooth_ch9141_fifo
20000248 l     O .bss	00000001 bluetooth_ch9141_data
00000000 l    df *ABS*	00000000 zf_device_bluetooth_ch9141_ch2.c
200002bc l     O .bss	00000014 bluetooth_ch9141_fifo_ch2
20000249 l     O .bss	00000001 bluetooth_ch9141_data_ch2
00000000 l    df *ABS*	00000000 zf_device_camera.c
00000000 l    df *ABS*	00000000 zf_device_mt9v03x_dvp.c
2000024c l     O .bss	00000003 receive_dvp
2000024f l     O .bss	00000001 receive_num_dvp
20000250 l     O .bss	00000001 uart_receive_flag_dvp
00000000 l    df *ABS*	00000000 zf_device_scc8660_dvp.c
00000000 l    df *ABS*	00000000 zf_device_wireless_ch573.c
200002d0 l     O .bss	00000014 wireless_ch573_fifo
20000264 l     O .bss	00000001 wireless_ch573_data
00000000 l    df *ABS*	00000000 zf_device_wireless_uart.c
200002e4 l     O .bss	00000014 wireless_uart_fifo
20000265 l     O .bss	00000001 wireless_uart_data
00000000 l    df *ABS*	00000000 zf_common_clock.c
00000f0c l     F .text	00000076 clock_reset
00000f82 l     F .text	00000260 clock_set_freq
00000000 l    df *ABS*	00000000 zf_common_debug.c
00000000 l    df *ABS*	00000000 zf_common_fifo.c
00000000 l    df *ABS*	00000000 zf_common_interrupt.c
000015be l     F .text	00000032 NVIC_EnableIRQ
000015f0 l     F .text	00000032 NVIC_DisableIRQ
00001622 l     F .text	0000002a NVIC_SetPriority
20000270 l     O .bss	00000004 interrupt_nest_count
00000000 l    df *ABS*	00000000 isr.c
00000000 l    df *ABS*	00000000 main.c
00000000 l    df *ABS*	00000000 system_ch32v30x.c
00001f90 l     F .text	00000014 SetSysClock
00001fa4 l     F .text	00000162 SetSysClockTo144
00000000 l    df *ABS*	00000000 ch32v30x_exti.c
00000000 l    df *ABS*	00000000 ch32v30x_gpio.c
00000000 l    df *ABS*	00000000 ch32v30x_rcc.c
20000000 l     O .data	00000010 APBAHBPrescTable
20000220 l     O .data	00000004 ADCPrescTable
00000000 l    df *ABS*	00000000 ch32v30x_tim.c
00000000 l    df *ABS*	00000000 ch32v30x_usart.c
00000000 l    df *ABS*	00000000 ch32v30x_usbotg_device.c
00000000 l    df *ABS*	00000000 adddf3.c
00000000 l    df *ABS*	00000000 divdf3.c
00000000 l    df *ABS*	00000000 eqdf2.c
00000000 l    df *ABS*	00000000 ledf2.c
00000000 l    df *ABS*	00000000 muldf3.c
00000000 l    df *ABS*	00000000 subdf3.c
00000000 l    df *ABS*	00000000 fixdfsi.c
00000000 l    df *ABS*	00000000 floatsidf.c
00000000 l    df *ABS*	00000000 libgcc2.c
00000000 l    df *ABS*	00000000 memcpy.c
00000000 l    df *ABS*	00000000 nano-vfprintf_float.c
00000000 l    df *ABS*	00000000 nano-vfprintf_i.c
00000000 l    df *ABS*	00000000 printf.c
00000000 l    df *ABS*	00000000 strlen.c
00000000 l    df *ABS*	00000000 wbuf.c
00000000 l    df *ABS*	00000000 wsetup.c
00000000 l    df *ABS*	00000000 dtoa.c
00006406 l     F .text	0000013a quorem
00000000 l    df *ABS*	00000000 fflush.c
00000000 l    df *ABS*	00000000 findfp.c
00007302 l     F .text	0000006a std
00000000 l    df *ABS*	00000000 fwalk.c
00000000 l    df *ABS*	00000000 localeconv.c
00000000 l    df *ABS*	00000000 makebuf.c
00000000 l    df *ABS*	00000000 malloc.c
00000000 l    df *ABS*	00000000 memchr.c
00000000 l    df *ABS*	00000000 mprec.c
00008d90 l     O .text	0000000c p05.3319
00000000 l    df *ABS*	00000000 nano-mallocr.c
00000000 l    df *ABS*	00000000 nano-mallocr.c
00000000 l    df *ABS*	00000000 nano-mallocr.c
00000000 l    df *ABS*	00000000 nano-vfprintf.c
00007f00 l     F .text	0000002a __sfputc_r
00000000 l    df *ABS*	00000000 sbrkr.c
00000000 l    df *ABS*	00000000 stdio.c
00000000 l    df *ABS*	00000000 writer.c
00000000 l    df *ABS*	00000000 closer.c
00000000 l    df *ABS*	00000000 fstatr.c
00000000 l    df *ABS*	00000000 isattyr.c
00000000 l    df *ABS*	00000000 lseekr.c
00000000 l    df *ABS*	00000000 mbtowc_r.c
00000000 l    df *ABS*	00000000 mlock.c
00000000 l    df *ABS*	00000000 readr.c
00000000 l    df *ABS*	00000000 wctomb_r.c
00000000 l    df *ABS*	00000000 gedf2.c
00000000 l    df *ABS*	00000000 unorddf2.c
00000000 l    df *ABS*	00000000 floatunsidf.c
00000000 l    df *ABS*	00000000 trunctfdf2.c
00000000 l    df *ABS*	00000000 close.c
00000000 l    df *ABS*	00000000 fstat.c
00000000 l    df *ABS*	00000000 isatty.c
00000000 l    df *ABS*	00000000 lseek.c
00000000 l    df *ABS*	00000000 read.c
00000000 l    df *ABS*	00000000 sbrk.c
200002a4 l     O .bss	00000004 heap_end.1518
00000000 l    df *ABS*	00000000 libgcc2.c
00000000 l    df *ABS*	00000000 locale.c
00000000 l    df *ABS*	00000000 ctype_.c
00000000 l    df *ABS*	00000000 impure.c
20000054 l     O .data	00000060 impure_data
00000000 l    df *ABS*	00000000 zf_device_type.c
00000000 l    df *ABS*	00000000 reent.c
000057e4 g     F .text	000000ee __cvt
00001974 g     F .text	00000024 EXTI2_IRQHandler
20000260 g     O .bss	00000004 wireless_type
00001e30  w      .text	00000000 TIM8_TRG_COM_IRQHandler
00001e32  w      .text	00000000 TIM8_CC_IRQHandler
000009da g     F .text	0000005e uart_query_byte
20000296 g     O .bss	00000001 USBHD_Dev_SleepStatus
00008370 g     F .text	00000028 _isatty_r
00002e2a g     F .text	0000003e DevEP1_IN_Deal
00008398 g     F .text	0000002c _lseek_r
20000258 g     O .bss	00000001 scc8660_uart_receive_flag_dvp
000018c2 g     F .text	0000002c UART8_IRQHandler
000048ce g     F .text	0000006a .hidden __eqdf2
000061da g     F .text	00000042 printf
20000a20 g       .data	00000000 __global_pointer$
00001e0c  w      .text	00000000 TIM1_CC_IRQHandler
000082b4 g     F .text	00000036 __sseek
000073be g     F .text	0000006c __sinit
0000622e g     F .text	000000c6 __swbuf_r
0000139c g     F .text	00000100 fifo_write_buffer
00001cbe g     F .text	00000008 HardFault_Handler
00007376 g     F .text	00000048 __sfmoreglue
00008400 g     F .text	00000002 __malloc_unlock
00000d44 g     F .text	00000036 camera_uart_handler
00000e96 g     F .text	00000026 wireless_ch573_callback
00001bce g     F .text	00000028 TIM6_IRQHandler
00001dd2  w      .text	00000000 SysTick_Handler
00001dd8  w      .text	00000000 PVD_IRQHandler
00001e38  w      .text	00000000 SDIO_IRQHandler
00001e6a  w      .text	00000000 TIM9_BRK_IRQHandler
00000e1e g     F .text	00000064 scc8660_uart_callback_dvp
00001e7e  w      .text	00000000 DMA2_Channel8_IRQHandler
00001cae g     F .text	00000010 NMI_Handler
00007670 g     F .text	00000088 _Balloc
00001e58  w      .text	00000000 CAN2_RX1_IRQHandler
00001998 g     F .text	00000024 EXTI3_IRQHandler
2000025c g     O .bss	00000004 camera_type
0000844e g     F .text	000000ae .hidden __gtdf2
00001e60  w      .text	00000000 USBHS_IRQHandler
00001dd4  w      .text	00000000 SW_handler
20000274 g     O .bss	00000001 get_data
00002c94 g     F .text	00000046 USART_GetFlagStatus
00001e80  w      .text	00000000 DMA2_Channel9_IRQHandler
00008346 g     F .text	0000002a _fstat_r
0000890c g     O .text	00000014 MyReportDescHD
00001e78  w      .text	00000000 TIM10_CC_IRQHandler
2000038c g     O .bss	00000004 errno
20000010 g     O .data	00000043 TAB_USB_FS_OSC_DESC
20000248 g       .bss	00000000 _sbss
00000800 g       *ABS*	00000000 __stack_size
0000149c g     F .text	00000122 fifo_read_buffer
00000206 g       .text	00000000 en_interrupt
20000297 g     O .bss	00000001 DevConfig
00001668 g     F .text	0000001c interrupt_disable
00000cf8 g     F .text	00000026 bluetooth_ch9141_uart_callback_ch1
0000572e g     F .text	000000b6 memcpy
20000234 g     O .data	00000008 uart_irq
0000736c g     F .text	0000000a _cleanup_r
000023de g     F .text	0000013c GPIO_PinRemapConfig
00005648 g     F .text	00000070 .hidden __floatsidf
20000259 g     O .bss	00000001 scc8660_finish_flag_dvp
00004938 g     F .text	000000b6 .hidden __ltdf2
0000192c g     F .text	00000024 EXTI0_IRQHandler
00001e18  w      .text	00000000 I2C2_EV_IRQHandler
00001e76  w      .text	00000000 TIM10_TRG_COM_IRQHandler
2000029a g     O .bss	00000002 SetupReqLen
0000893c g     O .text	00000016 MySerNumInfoHD
0000764a g     F .text	0000000c malloc
000087ca g     F .text	0000000c _fstat
00008cc8 g     O .text	000000c8 __mprec_tens
00000038 g       .init	00000000 _einit
0000128a g     F .text	00000054 fifo_init
000028e0 g     F .text	0000002e TIM_ClearITPendingBit
00008954 g     O .text	0000000a MyUSBQUADescHD
000016ac g     F .text	0000000e interrupt_init
000027e4 g     F .text	00000046 RCC_APB2PeriphClockCmd
00001e5a  w      .text	00000000 CAN2_SCE_IRQHandler
00001dfa  w      .text	00000000 ADC1_2_IRQHandler
0000217c g     F .text	0000022a GPIO_Init
00001dd0  w      .text	00000000 Break_Point_Handler
20000298 g     O .bss	00000001 SetupReqCode
00007536 g     F .text	00000018 _localeconv_r
00007884 g     F .text	0000001c __i2b
000012de g     F .text	0000004e fifo_head_offset
00001e1c  w      .text	00000000 SPI1_IRQHandler
00002b42 g     F .text	00000060 USART_Cmd
0000820e g     F .text	00000028 _sbrk_r
00001dda  w      .text	00000000 TAMPER_IRQHandler
00008402 g     F .text	0000002c _read_r
00002ddc g     F .text	0000004e USART_ClearITPendingBit
00001e56  w      .text	00000000 CAN2_RX0_IRQHandler
00001c26 g     F .text	00000030 TIM8_UP_IRQHandler
0000282a g     F .text	00000046 RCC_APB1PeriphClockCmd
00003bea g     F .text	00000730 .hidden __adddf3
00001dcc  w      .text	00000000 Ecall_M_Mode_Handler
00001d9e g     F .text	0000002a uart_rx_interrupt_handler
00000e82 g     F .text	00000014 scc8660_vsync_dvp
000087d6 g     F .text	0000000c _isatty
20000240 g     O .data	00000004 _global_impure_ptr
00001e48  w      .text	00000000 DMA2_Channel2_IRQHandler
00001df2  w      .text	00000000 DMA1_Channel4_IRQHandler
00008ca0 g     O .text	00000028 __mprec_bigtens
00008538 g     F .text	00000068 .hidden __floatunsidf
000087fa g     F .text	00000020 _sbrk
00007b70 g     F .text	00000032 __mcmp
00000da6 g     F .text	00000064 mt9v03x_uart_callback_dvp
00001c56 g     F .text	00000030 TIM9_UP_IRQHandler
000017aa g     F .text	00000034 USART3_IRQHandler
0000215c g     F .text	00000020 EXTI_ClearITPendingBit
00001ddc  w      .text	00000000 RTC_IRQHandler
20000390 g       .bss	00000000 _ebss
00002cda g     F .text	00000102 USART_GetITStatus
00001df8  w      .text	00000000 DMA1_Channel7_IRQHandler
00008930 g     O .text	0000000c MyProdInfoHD
000077d4 g     F .text	00000046 __hi0bits
00001e00  w      .text	00000000 CAN1_RX1_IRQHandler
000055e0 g     F .text	00000068 .hidden __fixdfsi
20000278 g     O .bss	00000004 fifo_data_count
000018ee g     F .text	0000003e DVP_IRQHandler
00001812 g     F .text	00000030 UART5_IRQHandler
20000290 g     O .bss	00000004 pDescr
2000023c g     O .data	00000004 MyLangDescrHD
20000268 g     O .bss	00000004 system_clock
00001b6e g     F .text	00000030 TIM4_IRQHandler
00004938 g     F .text	000000b6 .hidden __ledf2
000023a6 g     F .text	00000038 GPIO_WriteBit
00000ee2 g     F .text	0000002a clock_init
00001e46  w      .text	00000000 DMA2_Channel1_IRQHandler
000079e4 g     F .text	000000be __pow5mult
00008c40 g     O .text	00000020 __sf_fake_stderr
20000390 g       .bss	00000000 end
20000228 g     O .data	00000007 LineCoding
00001e14  w      .text	00000000 I2C1_EV_IRQHandler
00002870 g     F .text	00000070 TIM_GetITStatus
20000378 g     O .bss	00000014 uart_data_fifo
0000251a g     F .text	000002ca RCC_GetClocksFreq
00001df6  w      .text	00000000 DMA1_Channel6_IRQHandler
000056b8 g     F .text	00000076 .hidden __clzsi2
00007f2a g     F .text	00000044 __sfputs_r
00000a38 g     F .text	000002c0 uart_init
000017de g     F .text	00000034 UART4_IRQHandler
00001e4c  w      .text	00000000 DMA2_Channel4_IRQHandler
00007656 g     F .text	0000001a memchr
0000595e  w    F .text	000004c4 _printf_float
0000290e g     F .text	00000234 USART_Init
00007d8e g     F .text	000000a4 _free_r
00001b3e g     F .text	00000030 TIM3_IRQHandler
00001de0  w      .text	00000000 RCC_IRQHandler
000004ba g     F .text	000003c2 uart_gpio_init
00001e0a  w      .text	00000000 TIM1_TRG_COM_IRQHandler
00001dec  w      .text	00000000 DMA1_Channel1_IRQHandler
00000000 g       .init	00000000 _start
00001e7c  w      .text	00000000 DMA2_Channel7_IRQHandler
000087e2 g     F .text	0000000c _lseek
00007aa2 g     F .text	000000ce __lshift
00001a68 g     F .text	0000007e EXTI15_10_IRQHandler
00000200 g       .text	00000000 dis_interrupt
00000956 g     F .text	00000084 uart_rx_interrupt
00002ba2 g     F .text	000000c4 USART_ITConfig
2000028c g     O .bss	00000004 pEP2_RAM_Addr
000078a0 g     F .text	00000144 __multiply
00007c94 g     F .text	000000d4 __d2b
00000d1e g     F .text	00000026 bluetooth_ch9141_uart_callback_ch2
000002bc g     F .text	0000005c system_delay
00001bf6 g     F .text	00000030 TIM7_IRQHandler
0000831e g     F .text	00000028 _close_r
00001e54  w      .text	00000000 CAN2_TX_IRQHandler
20000000 g       .dalign	00000000 _data_vma
00001b9e g     F .text	00000030 TIM5_IRQHandler
00002f0a g     F .text	00000064 DevEP2_OUT_Deal
200002f8 g     O .bss	00000040 uart_get_data
000062f4 g     F .text	00000112 __swsetup_r
000019e0 g     F .text	00000088 EXTI9_5_IRQHandler
0000431a g     F .text	000005b4 .hidden __divdf3
0000742a g     F .text	000000a0 __sfp
0000132c g     F .text	0000004e fifo_end_offset
000049ee g     F .text	000004b8 .hidden __muldf3
00008236 g     F .text	00000030 __sread
00001e52  w      .text	00000000 ETH_WKUP_IRQHandler
00002ea6 g     F .text	00000064 DevEP1_OUT_Deal
000083fe g     F .text	00000002 __malloc_lock
0000729c g     F .text	00000066 _fflush_r
00007d68 g     F .text	00000026 _calloc_r
00002106 g     F .text	00000056 EXTI_GetITStatus
20000284 g     O .bss	00000004 pEP0_RAM_Addr
2000024a g     O .bss	00000001 mt9v03x_finish_flag_dvp
00001e1e  w      .text	00000000 SPI2_IRQHandler
00008c60 g     O .text	00000020 __sf_fake_stdin
000088b4 g     O .text	00000012 MyDevDescrHD
00000214 g     F .text	000000a8 memset
00001cc6 g     F .text	000000d8 main
00001e72  w      .text	00000000 TIM10_BRK_IRQHandler
00001e70  w      .text	00000000 TIM9_CC_IRQHandler
000082ea g     F .text	00000006 __sclose
00001e4e  w      .text	00000000 DMA2_Channel5_IRQHandler
20000224 g     O .data	00000001 USBHD_Dev_Speed
20000257 g     O .bss	00000001 scc8660_uart_receive_num_dvp
00006540 g     F .text	00000c1e _dtoa_r
00007e32 g     F .text	000000ce _malloc_r
0000842e g     F .text	00000020 __ascii_wctomb
00008920 g     O .text	0000000e MyManuInfoHD
20000254 g     O .bss	00000003 scc8660_uart_receive_dvp
00001df4  w      .text	00000000 DMA1_Channel5_IRQHandler
2000026c g     O .bss	00000001 zf_debug_init_flag
00008894 g     O .text	00000020 uart_index
000019bc g     F .text	00000024 EXTI4_IRQHandler
00001dfe  w      .text	00000000 USB_LP_CAN1_RX0_IRQHandler
00000e0a g     F .text	00000014 mt9v03x_handler_dvp
000011e2 g     F .text	00000030 debug_init
00001f14 g     F .text	0000007c SystemInit
00001e34  w      .text	00000000 RNG_IRQHandler
00001684 g     F .text	00000028 interrupt_set_priority
000048ce g     F .text	0000006a .hidden __nedf2
000061da g     F .text	00000042 iprintf
2000027c g     O .bss	00000008 EP0_DatabufHD
00001dfc  w      .text	00000000 USB_HP_CAN1_TX_IRQHandler
00008a9c g     O .text	00000100 .hidden __clz_tab
000058d2 g     F .text	0000008c __exponent
00000000 g       .init	00000000 _sinit
00002e68 g     F .text	0000003e DevEP2_IN_Deal
000082f0 g     F .text	0000002e _write_r
00001df0  w      .text	00000000 DMA1_Channel3_IRQHandler
00001e36  w      .text	00000000 FSMC_IRQHandler
00001e50  w      .text	00000000 ETH_IRQHandler
00005e22 g     F .text	0000010c _printf_common
20000230 g     O .data	00000004 _impure_ptr
00001ae6 g     F .text	00000030 TIM1_UP_IRQHandler
0000715e g     F .text	0000013e __sflush_r
00001dd6  w      .text	00000000 WWDG_IRQHandler
00001e5e  w      .text	00000000 USBHSWakeup_IRQHandler
00001e84  w      .text	00000000 DMA2_Channel11_IRQHandler
000083c4 g     F .text	0000003a __ascii_mbtowc
00001dce  w      .text	00000000 Ecall_U_Mode_Handler
00001e7a  w      .text	00000000 DMA2_Channel6_IRQHandler
00001b16 g     F .text	00000028 TIM2_IRQHandler
20010000 g       .stack	00000000 _eusrstack
000088c8 g     O .text	00000043 MyCfgDescrHD
00001e06  w      .text	00000000 TIM1_BRK_IRQHandler
0000754e g     F .text	0000005a __swhatbuf_r
00002c66 g     F .text	0000002e USART_SendData
00001e82  w      .text	00000000 DMA2_Channel10_IRQHandler
00001950 g     F .text	00000024 EXTI1_IRQHandler
00001212 g     F .text	00000078 _write
20000248 g       .data	00000000 _edata
00000ebc g     F .text	00000026 wireless_uart_callback
20000294 g     O .bss	00000002 USBHD_Dev_SetupReqLen
00001e28  w      .text	00000000 RTCAlarm_IRQHandler
00008ec4 g       .dlalign	00000000 _data_lma
00001c86 g     F .text	00000028 TIM10_UP_IRQHandler
00001e6e  w      .text	00000000 TIM9_TRG_COM_IRQHandler
00001876 g     F .text	0000004c UART7_IRQHandler
00001748 g     F .text	00000062 USART2_IRQHandler
00001842 g     F .text	00000034 UART6_IRQHandler
00008266 g     F .text	0000004e __swrite
00007f6e g     F .text	000002a0 _vfiprintf_r
000074ca g     F .text	0000006c _fwalk_reent
00007ba2 g     F .text	000000f2 __mdiff
000016ba g     F .text	0000002e interrupt_global_enable
00001e1a  w      .text	00000000 I2C2_ER_IRQHandler
00001dee  w      .text	00000000 DMA1_Channel2_IRQHandler
00008c80 g     O .text	00000020 __sf_fake_stdout
00001e2c  w      .text	00000000 TIM8_BRK_IRQHandler
00008dc0 g     O .text	00000101 _ctype_
000087ee g     F .text	0000000c _read
000084fc g     F .text	0000003c .hidden __unorddf2
00001e86  w      .text	00000000 handle_reset
00001e02  w      .text	00000000 CAN1_SCE_IRQHandler
00008880 g     O .text	00000014 gpio_group
00001dde  w      .text	00000000 FLASH_IRQHandler
00001710 g     F .text	00000038 USART1_IRQHandler
000075a8 g     F .text	000000a2 __smakebuf_r
000008d2 g     F .text	00000046 uart_write_buffer
0000164c g     F .text	0000001c interrupt_enable
00000918 g     F .text	0000003e uart_write_string
0000621c g     F .text	00000012 strlen
00002f6e g     F .text	00000c7c OTG_FS_IRQHandler
00005f2e g     F .text	000002ac _printf_i
00001e3c  w      .text	00000000 SPI3_IRQHandler
00000d7a g     F .text	0000002c camera_dvp_handler
0000137a g     F .text	00000022 fifo_used
0000844e g     F .text	000000ae .hidden __gedf2
200002a0 g     O .bss	00000004 __malloc_sbrk_start
00001e16  w      .text	00000000 I2C1_ER_IRQHandler
00000318 g     F .text	000001a2 gpio_init
2000029c g     O .bss	00000004 __malloc_free_list
00004ea6 g     F .text	0000073a .hidden __subdf3
00007f6e g     F .text	000002a0 _vfprintf_r
0000781a g     F .text	0000006a __lo0bits
20000288 g     O .bss	00000004 pEP1_RAM_Addr
20000338 g     O .bss	00000040 fifo_get_data
200000b4 g     O .data	0000016c __global_locale
00001e2a  w      .text	00000000 USBWakeUp_IRQHandler
000085a0 g     F .text	0000021e .hidden __trunctfdf2
000087be g     F .text	0000000c _close
00001e4a  w      .text	00000000 DMA2_Channel3_IRQHandler
0000773c g     F .text	00000098 __multadd
000016e8 g     F .text	00000028 interrupt_global_disable
000076f8 g     F .text	00000044 _Bfree
0000087c g     F .text	00000056 uart_write_byte



Disassembly of section .init:

00000000 <_sinit>:
_start():
E:/沁恒/例程/Example/libraries/sdk/Startup/startup_ch32v30x.S:13

	.section	.init,"ax",@progbits
	.global	_start
	.align	1
_start:
	j	handle_reset
   0:	6870106f          	j	1e86 <handle_reset>
   4:	00000013          	nop
   8:	00000013          	nop
   c:	00000013          	nop
  10:	00000013          	nop
  14:	00000013          	nop
  18:	00000013          	nop
  1c:	00000013          	nop
  20:	00000013          	nop
  24:	00000013          	nop
  28:	00000013          	nop
  2c:	00000013          	nop
  30:	00000013          	nop
  34:	00100073          	ebreak

Disassembly of section .vector:

00000038 <_vector_base>:
	...
_vector_base():
  40:	1cae                	slli	s9,s9,0x2b
  42:	0000                	unimp
  44:	1cbe                	slli	s9,s9,0x2f
  46:	0000                	unimp
  48:	0000                	unimp
  4a:	0000                	unimp
  4c:	1dcc                	addi	a1,sp,756
	...
  56:	0000                	unimp
  58:	1dce                	slli	s11,s11,0x33
  5a:	0000                	unimp
  5c:	1dd0                	addi	a2,sp,756
	...
  66:	0000                	unimp
  68:	1dd2                	slli	s11,s11,0x34
  6a:	0000                	unimp
  6c:	0000                	unimp
  6e:	0000                	unimp
  70:	1dd4                	addi	a3,sp,756
  72:	0000                	unimp
  74:	0000                	unimp
  76:	0000                	unimp
  78:	1dd6                	slli	s11,s11,0x35
  7a:	0000                	unimp
  7c:	1dd8                	addi	a4,sp,756
  7e:	0000                	unimp
  80:	1dda                	slli	s11,s11,0x36
  82:	0000                	unimp
  84:	1ddc                	addi	a5,sp,756
  86:	0000                	unimp
  88:	1dde                	slli	s11,s11,0x37
  8a:	0000                	unimp
  8c:	1de0                	addi	s0,sp,764
  8e:	0000                	unimp
  90:	192c                	addi	a1,sp,184
  92:	0000                	unimp
  94:	1950                	addi	a2,sp,180
  96:	0000                	unimp
  98:	1974                	addi	a3,sp,188
  9a:	0000                	unimp
  9c:	1998                	addi	a4,sp,240
  9e:	0000                	unimp
  a0:	19bc                	addi	a5,sp,248
  a2:	0000                	unimp
  a4:	1dec                	addi	a1,sp,764
  a6:	0000                	unimp
  a8:	1dee                	slli	s11,s11,0x3b
  aa:	0000                	unimp
  ac:	1df0                	addi	a2,sp,764
  ae:	0000                	unimp
  b0:	1df2                	slli	s11,s11,0x3c
  b2:	0000                	unimp
  b4:	1df4                	addi	a3,sp,764
  b6:	0000                	unimp
  b8:	1df6                	slli	s11,s11,0x3d
  ba:	0000                	unimp
  bc:	1df8                	addi	a4,sp,764
  be:	0000                	unimp
  c0:	1dfa                	slli	s11,s11,0x3e
  c2:	0000                	unimp
  c4:	1dfc                	addi	a5,sp,764
  c6:	0000                	unimp
  c8:	1dfe                	slli	s11,s11,0x3f
  ca:	0000                	unimp
  cc:	1e00                	addi	s0,sp,816
  ce:	0000                	unimp
  d0:	1e02                	slli	t3,t3,0x20
  d2:	0000                	unimp
  d4:	19e0                	addi	s0,sp,252
  d6:	0000                	unimp
  d8:	1e06                	slli	t3,t3,0x21
  da:	0000                	unimp
  dc:	1ae6                	slli	s5,s5,0x39
  de:	0000                	unimp
  e0:	1e0a                	slli	t3,t3,0x22
  e2:	0000                	unimp
  e4:	1e0c                	addi	a1,sp,816
  e6:	0000                	unimp
  e8:	1b16                	slli	s6,s6,0x25
  ea:	0000                	unimp
  ec:	1b3e                	slli	s6,s6,0x2f
  ee:	0000                	unimp
  f0:	1b6e                	slli	s6,s6,0x3b
  f2:	0000                	unimp
  f4:	1e14                	addi	a3,sp,816
  f6:	0000                	unimp
  f8:	1e16                	slli	t3,t3,0x25
  fa:	0000                	unimp
  fc:	1e18                	addi	a4,sp,816
  fe:	0000                	unimp
 100:	1e1a                	slli	t3,t3,0x26
 102:	0000                	unimp
 104:	1e1c                	addi	a5,sp,816
 106:	0000                	unimp
 108:	1e1e                	slli	t3,t3,0x27
 10a:	0000                	unimp
 10c:	1710                	addi	a2,sp,928
 10e:	0000                	unimp
 110:	1748                	addi	a0,sp,932
 112:	0000                	unimp
 114:	17aa                	slli	a5,a5,0x2a
 116:	0000                	unimp
 118:	1a68                	addi	a0,sp,316
 11a:	0000                	unimp
 11c:	1e28                	addi	a0,sp,824
 11e:	0000                	unimp
 120:	1e2a                	slli	t3,t3,0x2a
 122:	0000                	unimp
 124:	1e2c                	addi	a1,sp,824
 126:	0000                	unimp
 128:	1c26                	slli	s8,s8,0x29
 12a:	0000                	unimp
 12c:	1e30                	addi	a2,sp,824
 12e:	0000                	unimp
 130:	1e32                	slli	t3,t3,0x2c
 132:	0000                	unimp
 134:	1e34                	addi	a3,sp,824
 136:	0000                	unimp
 138:	1e36                	slli	t3,t3,0x2d
 13a:	0000                	unimp
 13c:	1e38                	addi	a4,sp,824
 13e:	0000                	unimp
 140:	1b9e                	slli	s7,s7,0x27
 142:	0000                	unimp
 144:	1e3c                	addi	a5,sp,824
 146:	0000                	unimp
 148:	17de                	slli	a5,a5,0x37
 14a:	0000                	unimp
 14c:	1812                	slli	a6,a6,0x24
 14e:	0000                	unimp
 150:	1bce                	slli	s7,s7,0x33
 152:	0000                	unimp
 154:	1bf6                	slli	s7,s7,0x3d
 156:	0000                	unimp
 158:	1e46                	slli	t3,t3,0x31
 15a:	0000                	unimp
 15c:	1e48                	addi	a0,sp,820
 15e:	0000                	unimp
 160:	1e4a                	slli	t3,t3,0x32
 162:	0000                	unimp
 164:	1e4c                	addi	a1,sp,820
 166:	0000                	unimp
 168:	1e4e                	slli	t3,t3,0x33
 16a:	0000                	unimp
 16c:	1e50                	addi	a2,sp,820
 16e:	0000                	unimp
 170:	1e52                	slli	t3,t3,0x34
 172:	0000                	unimp
 174:	1e54                	addi	a3,sp,820
 176:	0000                	unimp
 178:	1e56                	slli	t3,t3,0x35
 17a:	0000                	unimp
 17c:	1e58                	addi	a4,sp,820
 17e:	0000                	unimp
 180:	1e5a                	slli	t3,t3,0x36
 182:	0000                	unimp
 184:	2f6e                	fld	ft10,216(sp)
 186:	0000                	unimp
 188:	1e5e                	slli	t3,t3,0x37
 18a:	0000                	unimp
 18c:	1e60                	addi	s0,sp,828
 18e:	0000                	unimp
 190:	18ee                	slli	a7,a7,0x3b
 192:	0000                	unimp
 194:	1842                	slli	a6,a6,0x30
 196:	0000                	unimp
 198:	1876                	slli	a6,a6,0x3d
 19a:	0000                	unimp
 19c:	18c2                	slli	a7,a7,0x30
 19e:	0000                	unimp
 1a0:	1e6a                	slli	t3,t3,0x3a
 1a2:	0000                	unimp
 1a4:	1c56                	slli	s8,s8,0x35
 1a6:	0000                	unimp
 1a8:	1e6e                	slli	t3,t3,0x3b
 1aa:	0000                	unimp
 1ac:	1e70                	addi	a2,sp,828
 1ae:	0000                	unimp
 1b0:	1e72                	slli	t3,t3,0x3c
 1b2:	0000                	unimp
 1b4:	1c86                	slli	s9,s9,0x21
 1b6:	0000                	unimp
 1b8:	1e76                	slli	t3,t3,0x3d
 1ba:	0000                	unimp
 1bc:	1e78                	addi	a4,sp,828
 1be:	0000                	unimp
 1c0:	1e7a                	slli	t3,t3,0x3e
 1c2:	0000                	unimp
 1c4:	1e7c                	addi	a5,sp,828
 1c6:	0000                	unimp
 1c8:	1e7e                	slli	t3,t3,0x3f
 1ca:	0000                	unimp
 1cc:	1e80                	addi	s0,sp,880
 1ce:	0000                	unimp
 1d0:	1e82                	slli	t4,t4,0x20
 1d2:	0000                	unimp
 1d4:	1e84                	addi	s1,sp,880
	...

Disassembly of section .text:

00000200 <dis_interrupt>:
dis_interrupt():
E:/沁恒/例程/Example/libraries/zf_driver/zf_driver_irq.S:39
#a0 = 0x7888
#mstatus中的第11 12位MPP
#00 用户模式  (U)
#01 监管者模式(S)
#11 机器模式  (M) 只有该模式允许使用SCR指令
    csrrci a0, mstatus, 0x8
     200:	30047573          	csrrci	a0,mstatus,8
E:/沁恒/例程/Example/libraries/zf_driver/zf_driver_irq.S:40
    ret
     204:	8082                	ret

00000206 <en_interrupt>:
en_interrupt():
E:/沁恒/例程/Example/libraries/zf_driver/zf_driver_irq.S:57

#	li t0, 0x1f
#	csrw 0x804, t0

#mstatus寄存器中的MIE位置1，切换为用户模式
   	li t0, 0x6088
     206:	000062b7          	lui	t0,0x6
     20a:	08828293          	addi	t0,t0,136 # 6088 <_printf_i+0x15a>
E:/沁恒/例程/Example/libraries/zf_driver/zf_driver_irq.S:58
   	csrs mstatus, t0
     20e:	3002a073          	csrs	mstatus,t0
E:/沁恒/例程/Example/libraries/zf_driver/zf_driver_irq.S:59
    ret
     212:	8082                	ret

00000214 <memset>:
memset():
     214:	433d                	li	t1,15
     216:	872a                	mv	a4,a0
     218:	02c37363          	bgeu	t1,a2,23e <memset+0x2a>
     21c:	00f77793          	andi	a5,a4,15
     220:	efbd                	bnez	a5,29e <memset+0x8a>
     222:	e5ad                	bnez	a1,28c <memset+0x78>
     224:	ff067693          	andi	a3,a2,-16
     228:	8a3d                	andi	a2,a2,15
     22a:	96ba                	add	a3,a3,a4
     22c:	c30c                	sw	a1,0(a4)
     22e:	c34c                	sw	a1,4(a4)
     230:	c70c                	sw	a1,8(a4)
     232:	c74c                	sw	a1,12(a4)
     234:	0741                	addi	a4,a4,16
     236:	fed76be3          	bltu	a4,a3,22c <memset+0x18>
     23a:	e211                	bnez	a2,23e <memset+0x2a>
     23c:	8082                	ret
     23e:	40c306b3          	sub	a3,t1,a2
     242:	068a                	slli	a3,a3,0x2
     244:	00000297          	auipc	t0,0x0
     248:	9696                	add	a3,a3,t0
     24a:	00a68067          	jr	10(a3)
     24e:	00b70723          	sb	a1,14(a4)
     252:	00b706a3          	sb	a1,13(a4)
     256:	00b70623          	sb	a1,12(a4)
     25a:	00b705a3          	sb	a1,11(a4)
     25e:	00b70523          	sb	a1,10(a4)
     262:	00b704a3          	sb	a1,9(a4)
     266:	00b70423          	sb	a1,8(a4)
     26a:	00b703a3          	sb	a1,7(a4)
     26e:	00b70323          	sb	a1,6(a4)
     272:	00b702a3          	sb	a1,5(a4)
     276:	00b70223          	sb	a1,4(a4)
     27a:	00b701a3          	sb	a1,3(a4)
     27e:	00b70123          	sb	a1,2(a4)
     282:	00b700a3          	sb	a1,1(a4)
     286:	00b70023          	sb	a1,0(a4)
     28a:	8082                	ret
     28c:	0ff5f593          	andi	a1,a1,255
     290:	00859693          	slli	a3,a1,0x8
     294:	8dd5                	or	a1,a1,a3
     296:	01059693          	slli	a3,a1,0x10
     29a:	8dd5                	or	a1,a1,a3
     29c:	b761                	j	224 <memset+0x10>
     29e:	00279693          	slli	a3,a5,0x2
     2a2:	00000297          	auipc	t0,0x0
     2a6:	9696                	add	a3,a3,t0
     2a8:	8286                	mv	t0,ra
     2aa:	fa8680e7          	jalr	-88(a3)
     2ae:	8096                	mv	ra,t0
     2b0:	17c1                	addi	a5,a5,-16
     2b2:	8f1d                	sub	a4,a4,a5
     2b4:	963e                	add	a2,a2,a5
     2b6:	f8c374e3          	bgeu	t1,a2,23e <memset+0x2a>
     2ba:	b7a5                	j	222 <memset+0xe>

000002bc <system_delay>:
system_delay():
E:/沁恒/例程/Example/libraries/zf_driver/zf_driver_delay.c:28
//  @param      time                us
//  @return     void
//  Sample usage:                   内部使用，用户无需关心
//-------------------------------------------------------------------------------------------------------------------
void system_delay(uint64_t time)
{
     2bc:	1101                	addi	sp,sp,-32
     2be:	ce22                	sw	s0,28(sp)
     2c0:	1000                	addi	s0,sp,32
     2c2:	fea42423          	sw	a0,-24(s0)
     2c6:	feb42623          	sw	a1,-20(s0)
E:/沁恒/例程/Example/libraries/zf_driver/zf_driver_delay.c:29
    SysTick->CTLR = 0;
     2ca:	e000f7b7          	lui	a5,0xe000f
     2ce:	0007a023          	sw	zero,0(a5) # e000f000 <_eusrstack+0xbffff000>
E:/沁恒/例程/Example/libraries/zf_driver/zf_driver_delay.c:30
    SysTick->CNT  = 0;
     2d2:	e000f7b7          	lui	a5,0xe000f
     2d6:	4681                	li	a3,0
     2d8:	4701                	li	a4,0
     2da:	c794                	sw	a3,8(a5)
     2dc:	c7d8                	sw	a4,12(a5)
E:/沁恒/例程/Example/libraries/zf_driver/zf_driver_delay.c:31
    SysTick->CTLR = 1;          //启动系统计数器 systick（HCLK/8 时基） us
     2de:	e000f7b7          	lui	a5,0xe000f
     2e2:	4705                	li	a4,1
     2e4:	c398                	sw	a4,0(a5)
E:/沁恒/例程/Example/libraries/zf_driver/zf_driver_delay.c:34

    //while((*(volatile uint32*)0xE000F004) <= time);
    while(SysTick->CNT <= time);
     2e6:	0001                	nop
E:/沁恒/例程/Example/libraries/zf_driver/zf_driver_delay.c:34 (discriminator 1)
     2e8:	e000f7b7          	lui	a5,0xe000f
     2ec:	00c7a803          	lw	a6,12(a5) # e000f00c <_eusrstack+0xbffff00c>
     2f0:	479c                	lw	a5,8(a5)
     2f2:	fec42703          	lw	a4,-20(s0)
     2f6:	86c2                	mv	a3,a6
     2f8:	00d76c63          	bltu	a4,a3,310 <system_delay+0x54>
     2fc:	fec42703          	lw	a4,-20(s0)
     300:	86c2                	mv	a3,a6
     302:	fed713e3          	bne	a4,a3,2e8 <system_delay+0x2c>
     306:	fe842703          	lw	a4,-24(s0)
     30a:	00f76363          	bltu	a4,a5,310 <system_delay+0x54>
     30e:	bfe9                	j	2e8 <system_delay+0x2c>
E:/沁恒/例程/Example/libraries/zf_driver/zf_driver_delay.c:36

}
     310:	0001                	nop
     312:	4472                	lw	s0,28(sp)
     314:	6105                	addi	sp,sp,32
     316:	8082                	ret

00000318 <gpio_init>:
gpio_init():
E:/沁恒/例程/Example/libraries/zf_driver/zf_driver_gpio.c:80
//  @param      pinconf     引脚配置（可设置参数由zf_gpio.h文件内GPIOSPEED_enum与GPIOMODE_enum枚举值确定，多个条件使用 | 相或）
//  @return     void
//  Sample usage:           gpio_init(D0, GPO, 1, GPIO_PIN_CONFIG);//D0初始化为GPIO功能、输出模式、输出高电平、速度100MHZ 推挽输出
//-------------------------------------------------------------------------------------------------------------------
void gpio_init(gpio_pin_enum gpio_pin, gpio_dir_enum gpio_dir, gpio_level_enum dat, uint32 pinconf)
{
     318:	7179                	addi	sp,sp,-48
     31a:	d606                	sw	ra,44(sp)
     31c:	d422                	sw	s0,40(sp)
     31e:	1800                	addi	s0,sp,48
     320:	fca42e23          	sw	a0,-36(s0)
     324:	fcb42c23          	sw	a1,-40(s0)
     328:	fcc42a23          	sw	a2,-44(s0)
     32c:	fcd42823          	sw	a3,-48(s0)
E:/沁恒/例程/Example/libraries/zf_driver/zf_driver_gpio.c:81
    GPIO_InitTypeDef GPIO_InitStructure = {0};
     330:	fe042023          	sw	zero,-32(s0)
     334:	fe042223          	sw	zero,-28(s0)
     338:	fe042423          	sw	zero,-24(s0)
E:/沁恒/例程/Example/libraries/zf_driver/zf_driver_gpio.c:82
    uint8 io_group = (gpio_pin & 0xF0) >> 5;
     33c:	fdc42783          	lw	a5,-36(s0)
     340:	8395                	srli	a5,a5,0x5
     342:	0ff7f793          	andi	a5,a5,255
     346:	8b9d                	andi	a5,a5,7
     348:	fef407a3          	sb	a5,-17(s0)
E:/沁恒/例程/Example/libraries/zf_driver/zf_driver_gpio.c:83
    uint8 io_pin = gpio_pin & 0x0F;
     34c:	fdc42783          	lw	a5,-36(s0)
     350:	0ff7f793          	andi	a5,a5,255
     354:	8bbd                	andi	a5,a5,15
     356:	fef40723          	sb	a5,-18(s0)
E:/沁恒/例程/Example/libraries/zf_driver/zf_driver_gpio.c:87

    //GPIO_DeInit((GPIO_TypeDef *)(GPION[io_group]));
    //  空引脚则返回
    if(PIN_NULL == gpio_pin) return;
     35a:	fdc42703          	lw	a4,-36(s0)
     35e:	0ff00793          	li	a5,255
     362:	14f70563          	beq	a4,a5,4ac <gpio_init+0x194>
E:/沁恒/例程/Example/libraries/zf_driver/zf_driver_gpio.c:88
    if(SPI_CS_NULL == gpio_pin) return;
     366:	fdc42703          	lw	a4,-36(s0)
     36a:	0ff00793          	li	a5,255
     36e:	14f70163          	beq	a4,a5,4b0 <gpio_init+0x198>
E:/沁恒/例程/Example/libraries/zf_driver/zf_driver_gpio.c:91

    //  GPIO总线使能
    if(0 == io_group)      RCC_APB2PeriphClockCmd(RCC_APB2Periph_GPIOA, ENABLE);
     372:	fef44783          	lbu	a5,-17(s0)
     376:	e791                	bnez	a5,382 <gpio_init+0x6a>
E:/沁恒/例程/Example/libraries/zf_driver/zf_driver_gpio.c:91 (discriminator 1)
     378:	4585                	li	a1,1
     37a:	4511                	li	a0,4
     37c:	468020ef          	jal	ra,27e4 <RCC_APB2PeriphClockCmd>
     380:	a041                	j	400 <gpio_init+0xe8>
E:/沁恒/例程/Example/libraries/zf_driver/zf_driver_gpio.c:92
    else if(1 == io_group) RCC_APB2PeriphClockCmd(RCC_APB2Periph_GPIOB, ENABLE);
     382:	fef44703          	lbu	a4,-17(s0)
     386:	4785                	li	a5,1
     388:	00f71763          	bne	a4,a5,396 <gpio_init+0x7e>
E:/沁恒/例程/Example/libraries/zf_driver/zf_driver_gpio.c:92 (discriminator 1)
     38c:	4585                	li	a1,1
     38e:	4521                	li	a0,8
     390:	454020ef          	jal	ra,27e4 <RCC_APB2PeriphClockCmd>
     394:	a0b5                	j	400 <gpio_init+0xe8>
E:/沁恒/例程/Example/libraries/zf_driver/zf_driver_gpio.c:93
    else if(2 == io_group) RCC_APB2PeriphClockCmd(RCC_APB2Periph_GPIOC, ENABLE);
     396:	fef44703          	lbu	a4,-17(s0)
     39a:	4789                	li	a5,2
     39c:	00f71763          	bne	a4,a5,3aa <gpio_init+0x92>
E:/沁恒/例程/Example/libraries/zf_driver/zf_driver_gpio.c:93 (discriminator 1)
     3a0:	4585                	li	a1,1
     3a2:	4541                	li	a0,16
     3a4:	440020ef          	jal	ra,27e4 <RCC_APB2PeriphClockCmd>
     3a8:	a8a1                	j	400 <gpio_init+0xe8>
E:/沁恒/例程/Example/libraries/zf_driver/zf_driver_gpio.c:94
    else if(3 == io_group) RCC_APB2PeriphClockCmd(RCC_APB2Periph_GPIOD, ENABLE);
     3aa:	fef44703          	lbu	a4,-17(s0)
     3ae:	478d                	li	a5,3
     3b0:	00f71863          	bne	a4,a5,3c0 <gpio_init+0xa8>
E:/沁恒/例程/Example/libraries/zf_driver/zf_driver_gpio.c:94 (discriminator 1)
     3b4:	4585                	li	a1,1
     3b6:	02000513          	li	a0,32
     3ba:	42a020ef          	jal	ra,27e4 <RCC_APB2PeriphClockCmd>
     3be:	a089                	j	400 <gpio_init+0xe8>
E:/沁恒/例程/Example/libraries/zf_driver/zf_driver_gpio.c:95
    else if(4 == io_group) RCC_APB2PeriphClockCmd(RCC_APB2Periph_GPIOE, ENABLE);
     3c0:	fef44703          	lbu	a4,-17(s0)
     3c4:	4791                	li	a5,4
     3c6:	00f71863          	bne	a4,a5,3d6 <gpio_init+0xbe>
E:/沁恒/例程/Example/libraries/zf_driver/zf_driver_gpio.c:95 (discriminator 1)
     3ca:	4585                	li	a1,1
     3cc:	04000513          	li	a0,64
     3d0:	414020ef          	jal	ra,27e4 <RCC_APB2PeriphClockCmd>
     3d4:	a035                	j	400 <gpio_init+0xe8>
E:/沁恒/例程/Example/libraries/zf_driver/zf_driver_gpio.c:96
    else if(5 == io_group) RCC_APB2PeriphClockCmd(RCC_APB2Periph_GPIOF, ENABLE);
     3d6:	fef44703          	lbu	a4,-17(s0)
     3da:	4795                	li	a5,5
     3dc:	00f71863          	bne	a4,a5,3ec <gpio_init+0xd4>
E:/沁恒/例程/Example/libraries/zf_driver/zf_driver_gpio.c:96 (discriminator 1)
     3e0:	4585                	li	a1,1
     3e2:	08000513          	li	a0,128
     3e6:	3fe020ef          	jal	ra,27e4 <RCC_APB2PeriphClockCmd>
     3ea:	a819                	j	400 <gpio_init+0xe8>
E:/沁恒/例程/Example/libraries/zf_driver/zf_driver_gpio.c:97
    else if(6 == io_group) RCC_APB2PeriphClockCmd(RCC_APB2Periph_GPIOG, ENABLE);
     3ec:	fef44703          	lbu	a4,-17(s0)
     3f0:	4799                	li	a5,6
     3f2:	00f71763          	bne	a4,a5,400 <gpio_init+0xe8>
E:/沁恒/例程/Example/libraries/zf_driver/zf_driver_gpio.c:97 (discriminator 1)
     3f6:	4585                	li	a1,1
     3f8:	10000513          	li	a0,256
     3fc:	3e8020ef          	jal	ra,27e4 <RCC_APB2PeriphClockCmd>
E:/沁恒/例程/Example/libraries/zf_driver/zf_driver_gpio.c:100

    //  设置引脚号
    GPIO_InitStructure.GPIO_Pin = (uint16)(1 << io_pin);
     400:	fee44783          	lbu	a5,-18(s0)
     404:	4705                	li	a4,1
     406:	00f717b3          	sll	a5,a4,a5
     40a:	07c2                	slli	a5,a5,0x10
     40c:	83c1                	srli	a5,a5,0x10
     40e:	fef41023          	sh	a5,-32(s0)
E:/沁恒/例程/Example/libraries/zf_driver/zf_driver_gpio.c:103

    //  只有输出需要设置速度
    if(GPO == gpio_dir)
     412:	fd842703          	lw	a4,-40(s0)
     416:	4785                	li	a5,1
     418:	02f71763          	bne	a4,a5,446 <gpio_init+0x12e>
E:/沁恒/例程/Example/libraries/zf_driver/zf_driver_gpio.c:105
    {
        if((uint16)pinconf >> 8 == 0) GPIO_InitStructure.GPIO_Speed = (GPIOSpeed_TypeDef)(GPIO_Speed_50MHz);            //防止没有填写这个参数,默认设置50Mhz
     41c:	fd042783          	lw	a5,-48(s0)
     420:	07c2                	slli	a5,a5,0x10
     422:	83c1                	srli	a5,a5,0x10
     424:	83a1                	srli	a5,a5,0x8
     426:	07c2                	slli	a5,a5,0x10
     428:	83c1                	srli	a5,a5,0x10
     42a:	e789                	bnez	a5,434 <gpio_init+0x11c>
E:/沁恒/例程/Example/libraries/zf_driver/zf_driver_gpio.c:105 (discriminator 1)
     42c:	478d                	li	a5,3
     42e:	fef42223          	sw	a5,-28(s0)
     432:	a811                	j	446 <gpio_init+0x12e>
E:/沁恒/例程/Example/libraries/zf_driver/zf_driver_gpio.c:106
        else GPIO_InitStructure.GPIO_Speed = (gpio_speed_enum)((uint16)pinconf >> 8);         //已经填写了该参数。根据值来设置
     434:	fd042783          	lw	a5,-48(s0)
     438:	07c2                	slli	a5,a5,0x10
     43a:	83c1                	srli	a5,a5,0x10
     43c:	83a1                	srli	a5,a5,0x8
     43e:	07c2                	slli	a5,a5,0x10
     440:	83c1                	srli	a5,a5,0x10
     442:	fef42223          	sw	a5,-28(s0)
E:/沁恒/例程/Example/libraries/zf_driver/zf_driver_gpio.c:110
    }

    //  设置模式
    GPIO_InitStructure.GPIO_Mode = (GPIOMode_TypeDef)((uint16)pinconf & 0xFF);
     446:	fd042783          	lw	a5,-48(s0)
     44a:	07c2                	slli	a5,a5,0x10
     44c:	83c1                	srli	a5,a5,0x10
     44e:	0ff7f793          	andi	a5,a5,255
     452:	fef42423          	sw	a5,-24(s0)
E:/沁恒/例程/Example/libraries/zf_driver/zf_driver_gpio.c:111
    GPIO_Init((GPIO_TypeDef*)gpio_group[io_group], &GPIO_InitStructure);
     456:	fef44703          	lbu	a4,-17(s0)
     45a:	67a5                	lui	a5,0x9
     45c:	070a                	slli	a4,a4,0x2
     45e:	88078793          	addi	a5,a5,-1920 # 8880 <gpio_group>
     462:	97ba                	add	a5,a5,a4
     464:	439c                	lw	a5,0(a5)
     466:	873e                	mv	a4,a5
     468:	fe040793          	addi	a5,s0,-32
     46c:	85be                	mv	a1,a5
     46e:	853a                	mv	a0,a4
     470:	50d010ef          	jal	ra,217c <GPIO_Init>
E:/沁恒/例程/Example/libraries/zf_driver/zf_driver_gpio.c:114

    //  只有输出需要设置引脚状态
    if(GPO == gpio_dir)
     474:	fd842703          	lw	a4,-40(s0)
     478:	4785                	li	a5,1
     47a:	02f71c63          	bne	a4,a5,4b2 <gpio_init+0x19a>
E:/沁恒/例程/Example/libraries/zf_driver/zf_driver_gpio.c:116
    {
        GPIO_WriteBit((GPIO_TypeDef*)gpio_group[io_group], (uint16)(1 << io_pin), dat);
     47e:	fef44703          	lbu	a4,-17(s0)
     482:	67a5                	lui	a5,0x9
     484:	070a                	slli	a4,a4,0x2
     486:	88078793          	addi	a5,a5,-1920 # 8880 <gpio_group>
     48a:	97ba                	add	a5,a5,a4
     48c:	439c                	lw	a5,0(a5)
     48e:	86be                	mv	a3,a5
     490:	fee44783          	lbu	a5,-18(s0)
     494:	4705                	li	a4,1
     496:	00f717b3          	sll	a5,a4,a5
     49a:	07c2                	slli	a5,a5,0x10
     49c:	83c1                	srli	a5,a5,0x10
     49e:	fd442603          	lw	a2,-44(s0)
     4a2:	85be                	mv	a1,a5
     4a4:	8536                	mv	a0,a3
     4a6:	701010ef          	jal	ra,23a6 <GPIO_WriteBit>
     4aa:	a021                	j	4b2 <gpio_init+0x19a>
E:/沁恒/例程/Example/libraries/zf_driver/zf_driver_gpio.c:87
    if(PIN_NULL == gpio_pin) return;
     4ac:	0001                	nop
     4ae:	a011                	j	4b2 <gpio_init+0x19a>
E:/沁恒/例程/Example/libraries/zf_driver/zf_driver_gpio.c:88
    if(SPI_CS_NULL == gpio_pin) return;
     4b0:	0001                	nop
E:/沁恒/例程/Example/libraries/zf_driver/zf_driver_gpio.c:118
    }
}
     4b2:	50b2                	lw	ra,44(sp)
     4b4:	5422                	lw	s0,40(sp)
     4b6:	6145                	addi	sp,sp,48
     4b8:	8082                	ret

000004ba <uart_gpio_init>:
uart_gpio_init():
E:/沁恒/例程/Example/libraries/zf_driver/zf_driver_uart.c:41
//  @param      rx_pin      串口接收引脚号
//  @return     void
//  Sample usage:           内部使用，用户无需关心
//-------------------------------------------------------------------------------------------------------------------
void uart_gpio_init(uart_pin_enum tx_pin, uart_pin_enum rx_pin)
{
     4ba:	1101                	addi	sp,sp,-32
     4bc:	ce06                	sw	ra,28(sp)
     4be:	cc22                	sw	s0,24(sp)
     4c0:	1000                	addi	s0,sp,32
     4c2:	fea42623          	sw	a0,-20(s0)
     4c6:	feb42423          	sw	a1,-24(s0)
E:/沁恒/例程/Example/libraries/zf_driver/zf_driver_uart.c:42
    if     (tx_pin == UART1_TX_A9 )     gpio_init(A9,  GPO, 0, GPO_AF_PUSH_PULL);
     4ca:	fec42783          	lw	a5,-20(s0)
     4ce:	e799                	bnez	a5,4dc <uart_gpio_init+0x22>
E:/沁恒/例程/Example/libraries/zf_driver/zf_driver_uart.c:42 (discriminator 1)
     4d0:	46e1                	li	a3,24
     4d2:	4601                	li	a2,0
     4d4:	4585                	li	a1,1
     4d6:	4525                	li	a0,9
     4d8:	3581                	jal	318 <gpio_init>
     4da:	aa45                	j	68a <uart_gpio_init+0x1d0>
E:/沁恒/例程/Example/libraries/zf_driver/zf_driver_uart.c:43
    else if(tx_pin == UART1_TX_B6 )     gpio_init(B6,  GPO, 0, GPO_AF_PUSH_PULL);
     4dc:	fec42703          	lw	a4,-20(s0)
     4e0:	4789                	li	a5,2
     4e2:	00f71963          	bne	a4,a5,4f4 <uart_gpio_init+0x3a>
E:/沁恒/例程/Example/libraries/zf_driver/zf_driver_uart.c:43 (discriminator 1)
     4e6:	46e1                	li	a3,24
     4e8:	4601                	li	a2,0
     4ea:	4585                	li	a1,1
     4ec:	02600513          	li	a0,38
     4f0:	3525                	jal	318 <gpio_init>
     4f2:	aa61                	j	68a <uart_gpio_init+0x1d0>
E:/沁恒/例程/Example/libraries/zf_driver/zf_driver_uart.c:44
    else if(tx_pin == UART2_TX_A2 )     gpio_init(A2,  GPO, 0, GPO_AF_PUSH_PULL);
     4f4:	fec42703          	lw	a4,-20(s0)
     4f8:	47c1                	li	a5,16
     4fa:	00f71863          	bne	a4,a5,50a <uart_gpio_init+0x50>
E:/沁恒/例程/Example/libraries/zf_driver/zf_driver_uart.c:44 (discriminator 1)
     4fe:	46e1                	li	a3,24
     500:	4601                	li	a2,0
     502:	4585                	li	a1,1
     504:	4509                	li	a0,2
     506:	3d09                	jal	318 <gpio_init>
     508:	a249                	j	68a <uart_gpio_init+0x1d0>
E:/沁恒/例程/Example/libraries/zf_driver/zf_driver_uart.c:45
    else if(tx_pin == UART2_TX_D5 )     gpio_init(D5,  GPO, 0, GPO_AF_PUSH_PULL);
     50a:	fec42703          	lw	a4,-20(s0)
     50e:	47c9                	li	a5,18
     510:	00f71963          	bne	a4,a5,522 <uart_gpio_init+0x68>
E:/沁恒/例程/Example/libraries/zf_driver/zf_driver_uart.c:45 (discriminator 1)
     514:	46e1                	li	a3,24
     516:	4601                	li	a2,0
     518:	4585                	li	a1,1
     51a:	06500513          	li	a0,101
     51e:	3bed                	jal	318 <gpio_init>
     520:	a2ad                	j	68a <uart_gpio_init+0x1d0>
E:/沁恒/例程/Example/libraries/zf_driver/zf_driver_uart.c:46
    else if(tx_pin == UART3_TX_B10)     gpio_init(B10, GPO, 0, GPO_AF_PUSH_PULL);
     522:	fec42703          	lw	a4,-20(s0)
     526:	02000793          	li	a5,32
     52a:	00f71963          	bne	a4,a5,53c <uart_gpio_init+0x82>
E:/沁恒/例程/Example/libraries/zf_driver/zf_driver_uart.c:46 (discriminator 1)
     52e:	46e1                	li	a3,24
     530:	4601                	li	a2,0
     532:	4585                	li	a1,1
     534:	02a00513          	li	a0,42
     538:	33c5                	jal	318 <gpio_init>
     53a:	aa81                	j	68a <uart_gpio_init+0x1d0>
E:/沁恒/例程/Example/libraries/zf_driver/zf_driver_uart.c:47
    else if(tx_pin == UART3_TX_C10)     gpio_init(C10, GPO, 0, GPO_AF_PUSH_PULL);
     53c:	fec42703          	lw	a4,-20(s0)
     540:	02200793          	li	a5,34
     544:	00f71963          	bne	a4,a5,556 <uart_gpio_init+0x9c>
E:/沁恒/例程/Example/libraries/zf_driver/zf_driver_uart.c:47 (discriminator 1)
     548:	46e1                	li	a3,24
     54a:	4601                	li	a2,0
     54c:	4585                	li	a1,1
     54e:	04a00513          	li	a0,74
     552:	33d9                	jal	318 <gpio_init>
     554:	aa1d                	j	68a <uart_gpio_init+0x1d0>
E:/沁恒/例程/Example/libraries/zf_driver/zf_driver_uart.c:48
    else if(tx_pin == UART3_TX_D8 )     gpio_init(D8,  GPO, 0, GPO_AF_PUSH_PULL);
     556:	fec42703          	lw	a4,-20(s0)
     55a:	02400793          	li	a5,36
     55e:	00f71963          	bne	a4,a5,570 <uart_gpio_init+0xb6>
E:/沁恒/例程/Example/libraries/zf_driver/zf_driver_uart.c:48 (discriminator 1)
     562:	46e1                	li	a3,24
     564:	4601                	li	a2,0
     566:	4585                	li	a1,1
     568:	06800513          	li	a0,104
     56c:	3375                	jal	318 <gpio_init>
     56e:	aa31                	j	68a <uart_gpio_init+0x1d0>
E:/沁恒/例程/Example/libraries/zf_driver/zf_driver_uart.c:49
    else if(tx_pin == UART4_TX_C10)     gpio_init(C10, GPO, 0, GPO_AF_PUSH_PULL);
     570:	fec42703          	lw	a4,-20(s0)
     574:	04000793          	li	a5,64
     578:	00f71963          	bne	a4,a5,58a <uart_gpio_init+0xd0>
E:/沁恒/例程/Example/libraries/zf_driver/zf_driver_uart.c:49 (discriminator 1)
     57c:	46e1                	li	a3,24
     57e:	4601                	li	a2,0
     580:	4585                	li	a1,1
     582:	04a00513          	li	a0,74
     586:	3b49                	jal	318 <gpio_init>
     588:	a209                	j	68a <uart_gpio_init+0x1d0>
E:/沁恒/例程/Example/libraries/zf_driver/zf_driver_uart.c:50
    else if(tx_pin == UART4_TX_B0)      gpio_init(B0, GPO, 0, GPO_AF_PUSH_PULL);
     58a:	fec42703          	lw	a4,-20(s0)
     58e:	04200793          	li	a5,66
     592:	00f71963          	bne	a4,a5,5a4 <uart_gpio_init+0xea>
E:/沁恒/例程/Example/libraries/zf_driver/zf_driver_uart.c:50 (discriminator 1)
     596:	46e1                	li	a3,24
     598:	4601                	li	a2,0
     59a:	4585                	li	a1,1
     59c:	02000513          	li	a0,32
     5a0:	3ba5                	jal	318 <gpio_init>
     5a2:	a0e5                	j	68a <uart_gpio_init+0x1d0>
E:/沁恒/例程/Example/libraries/zf_driver/zf_driver_uart.c:51
    else if(tx_pin == UART5_TX_C12)     gpio_init(C12, GPO, 0, GPO_AF_PUSH_PULL);
     5a4:	fec42703          	lw	a4,-20(s0)
     5a8:	05000793          	li	a5,80
     5ac:	00f71963          	bne	a4,a5,5be <uart_gpio_init+0x104>
E:/沁恒/例程/Example/libraries/zf_driver/zf_driver_uart.c:51 (discriminator 1)
     5b0:	46e1                	li	a3,24
     5b2:	4601                	li	a2,0
     5b4:	4585                	li	a1,1
     5b6:	04c00513          	li	a0,76
     5ba:	3bb9                	jal	318 <gpio_init>
     5bc:	a0f9                	j	68a <uart_gpio_init+0x1d0>
E:/沁恒/例程/Example/libraries/zf_driver/zf_driver_uart.c:52
    else if(tx_pin == UART5_TX_E8)      gpio_init(E8, GPO, 0, GPO_AF_PUSH_PULL);
     5be:	fec42703          	lw	a4,-20(s0)
     5c2:	05200793          	li	a5,82
     5c6:	00f71963          	bne	a4,a5,5d8 <uart_gpio_init+0x11e>
E:/沁恒/例程/Example/libraries/zf_driver/zf_driver_uart.c:52 (discriminator 1)
     5ca:	46e1                	li	a3,24
     5cc:	4601                	li	a2,0
     5ce:	4585                	li	a1,1
     5d0:	08800513          	li	a0,136
     5d4:	3391                	jal	318 <gpio_init>
     5d6:	a855                	j	68a <uart_gpio_init+0x1d0>
E:/沁恒/例程/Example/libraries/zf_driver/zf_driver_uart.c:53
    else if(tx_pin == UART6_TX_C0 )     gpio_init(C0,  GPO, 0, GPO_AF_PUSH_PULL);
     5d8:	fec42703          	lw	a4,-20(s0)
     5dc:	06000793          	li	a5,96
     5e0:	00f71963          	bne	a4,a5,5f2 <uart_gpio_init+0x138>
E:/沁恒/例程/Example/libraries/zf_driver/zf_driver_uart.c:53 (discriminator 1)
     5e4:	46e1                	li	a3,24
     5e6:	4601                	li	a2,0
     5e8:	4585                	li	a1,1
     5ea:	04000513          	li	a0,64
     5ee:	332d                	jal	318 <gpio_init>
     5f0:	a869                	j	68a <uart_gpio_init+0x1d0>
E:/沁恒/例程/Example/libraries/zf_driver/zf_driver_uart.c:54
    else if(tx_pin == UART6_TX_E10 )    gpio_init(C0,  GPO, 0, GPO_AF_PUSH_PULL);
     5f2:	fec42703          	lw	a4,-20(s0)
     5f6:	06200793          	li	a5,98
     5fa:	00f71963          	bne	a4,a5,60c <uart_gpio_init+0x152>
E:/沁恒/例程/Example/libraries/zf_driver/zf_driver_uart.c:54 (discriminator 1)
     5fe:	46e1                	li	a3,24
     600:	4601                	li	a2,0
     602:	4585                	li	a1,1
     604:	04000513          	li	a0,64
     608:	3b01                	jal	318 <gpio_init>
     60a:	a041                	j	68a <uart_gpio_init+0x1d0>
E:/沁恒/例程/Example/libraries/zf_driver/zf_driver_uart.c:55
    else if(tx_pin == UART7_TX_C2 )     gpio_init(C2,  GPO, 0, GPO_AF_PUSH_PULL);
     60c:	fec42703          	lw	a4,-20(s0)
     610:	07000793          	li	a5,112
     614:	00f71963          	bne	a4,a5,626 <uart_gpio_init+0x16c>
E:/沁恒/例程/Example/libraries/zf_driver/zf_driver_uart.c:55 (discriminator 1)
     618:	46e1                	li	a3,24
     61a:	4601                	li	a2,0
     61c:	4585                	li	a1,1
     61e:	04200513          	li	a0,66
     622:	39dd                	jal	318 <gpio_init>
     624:	a09d                	j	68a <uart_gpio_init+0x1d0>
E:/沁恒/例程/Example/libraries/zf_driver/zf_driver_uart.c:56
    else if(tx_pin == UART7_TX_A6 )     gpio_init(A6,  GPO, 0, GPO_AF_PUSH_PULL);
     626:	fec42703          	lw	a4,-20(s0)
     62a:	07200793          	li	a5,114
     62e:	00f71863          	bne	a4,a5,63e <uart_gpio_init+0x184>
E:/沁恒/例程/Example/libraries/zf_driver/zf_driver_uart.c:56 (discriminator 1)
     632:	46e1                	li	a3,24
     634:	4601                	li	a2,0
     636:	4585                	li	a1,1
     638:	4519                	li	a0,6
     63a:	39f9                	jal	318 <gpio_init>
     63c:	a0b9                	j	68a <uart_gpio_init+0x1d0>
E:/沁恒/例程/Example/libraries/zf_driver/zf_driver_uart.c:57
    else if(tx_pin == UART7_TX_E12 )    gpio_init(E12,  GPO, 0, GPO_AF_PUSH_PULL);
     63e:	fec42703          	lw	a4,-20(s0)
     642:	07400793          	li	a5,116
     646:	00f71963          	bne	a4,a5,658 <uart_gpio_init+0x19e>
E:/沁恒/例程/Example/libraries/zf_driver/zf_driver_uart.c:57 (discriminator 1)
     64a:	46e1                	li	a3,24
     64c:	4601                	li	a2,0
     64e:	4585                	li	a1,1
     650:	08c00513          	li	a0,140
     654:	31d1                	jal	318 <gpio_init>
     656:	a815                	j	68a <uart_gpio_init+0x1d0>
E:/沁恒/例程/Example/libraries/zf_driver/zf_driver_uart.c:58
    else if(tx_pin == UART8_TX_C4 )     gpio_init(C4,  GPO, 0, GPO_AF_PUSH_PULL);
     658:	fec42703          	lw	a4,-20(s0)
     65c:	08000793          	li	a5,128
     660:	00f71963          	bne	a4,a5,672 <uart_gpio_init+0x1b8>
E:/沁恒/例程/Example/libraries/zf_driver/zf_driver_uart.c:58 (discriminator 1)
     664:	46e1                	li	a3,24
     666:	4601                	li	a2,0
     668:	4585                	li	a1,1
     66a:	04400513          	li	a0,68
     66e:	316d                	jal	318 <gpio_init>
     670:	a829                	j	68a <uart_gpio_init+0x1d0>
E:/沁恒/例程/Example/libraries/zf_driver/zf_driver_uart.c:59
    else if(tx_pin == UART8_TX_E14 )    gpio_init(E14,  GPO, 0, GPO_AF_PUSH_PULL);
     672:	fec42703          	lw	a4,-20(s0)
     676:	08200793          	li	a5,130
     67a:	00f71863          	bne	a4,a5,68a <uart_gpio_init+0x1d0>
E:/沁恒/例程/Example/libraries/zf_driver/zf_driver_uart.c:59 (discriminator 1)
     67e:	46e1                	li	a3,24
     680:	4601                	li	a2,0
     682:	4585                	li	a1,1
     684:	08e00513          	li	a0,142
     688:	3941                	jal	318 <gpio_init>
E:/沁恒/例程/Example/libraries/zf_driver/zf_driver_uart.c:61

    if     (rx_pin == UART1_RX_A10)     gpio_init(A10, GPI, 0, GPI_PULL_UP);
     68a:	fe842703          	lw	a4,-24(s0)
     68e:	4785                	li	a5,1
     690:	00f71963          	bne	a4,a5,6a2 <uart_gpio_init+0x1e8>
E:/沁恒/例程/Example/libraries/zf_driver/zf_driver_uart.c:61 (discriminator 1)
     694:	04800693          	li	a3,72
     698:	4601                	li	a2,0
     69a:	4581                	li	a1,0
     69c:	4529                	li	a0,10
     69e:	39ad                	jal	318 <gpio_init>
E:/沁恒/例程/Example/libraries/zf_driver/zf_driver_uart.c:79 (discriminator 1)
    else if(rx_pin == UART7_RX_C3 )     gpio_init(C3,  GPI, 0, GPI_PULL_UP);
    else if(rx_pin == UART7_RX_A7 )     gpio_init(A7,  GPI, 0, GPI_PULL_UP);
    else if(rx_pin == UART7_RX_E13 )    gpio_init(E13,  GPI, 0, GPI_PULL_UP);
    else if(rx_pin == UART8_RX_C5 )     gpio_init(C5,  GPI, 0, GPI_PULL_UP);
    else if(rx_pin == UART8_RX_E15 )    gpio_init(E15,  GPI, 0, GPI_PULL_UP);
}
     6a0:	aac9                	j	872 <__stack_size+0x72>
E:/沁恒/例程/Example/libraries/zf_driver/zf_driver_uart.c:62
    else if(rx_pin == UART1_RX_B7 )     gpio_init(B7,  GPI, 0, GPI_PULL_UP);
     6a2:	fe842703          	lw	a4,-24(s0)
     6a6:	478d                	li	a5,3
     6a8:	00f71a63          	bne	a4,a5,6bc <uart_gpio_init+0x202>
E:/沁恒/例程/Example/libraries/zf_driver/zf_driver_uart.c:62 (discriminator 1)
     6ac:	04800693          	li	a3,72
     6b0:	4601                	li	a2,0
     6b2:	4581                	li	a1,0
     6b4:	02700513          	li	a0,39
     6b8:	3185                	jal	318 <gpio_init>
E:/沁恒/例程/Example/libraries/zf_driver/zf_driver_uart.c:79 (discriminator 1)
}
     6ba:	aa65                	j	872 <__stack_size+0x72>
E:/沁恒/例程/Example/libraries/zf_driver/zf_driver_uart.c:63
    else if(rx_pin == UART2_RX_A3 )     gpio_init(A3,  GPI, 0, GPI_PULL_UP);
     6bc:	fe842703          	lw	a4,-24(s0)
     6c0:	47c5                	li	a5,17
     6c2:	00f71963          	bne	a4,a5,6d4 <uart_gpio_init+0x21a>
E:/沁恒/例程/Example/libraries/zf_driver/zf_driver_uart.c:63 (discriminator 1)
     6c6:	04800693          	li	a3,72
     6ca:	4601                	li	a2,0
     6cc:	4581                	li	a1,0
     6ce:	450d                	li	a0,3
     6d0:	31a1                	jal	318 <gpio_init>
E:/沁恒/例程/Example/libraries/zf_driver/zf_driver_uart.c:79 (discriminator 1)
}
     6d2:	a245                	j	872 <__stack_size+0x72>
E:/沁恒/例程/Example/libraries/zf_driver/zf_driver_uart.c:64
    else if(rx_pin == UART2_RX_D6 )     gpio_init(D6,  GPI, 0, GPI_PULL_UP);
     6d4:	fe842703          	lw	a4,-24(s0)
     6d8:	47cd                	li	a5,19
     6da:	00f71a63          	bne	a4,a5,6ee <uart_gpio_init+0x234>
E:/沁恒/例程/Example/libraries/zf_driver/zf_driver_uart.c:64 (discriminator 1)
     6de:	04800693          	li	a3,72
     6e2:	4601                	li	a2,0
     6e4:	4581                	li	a1,0
     6e6:	06600513          	li	a0,102
     6ea:	313d                	jal	318 <gpio_init>
E:/沁恒/例程/Example/libraries/zf_driver/zf_driver_uart.c:79 (discriminator 1)
}
     6ec:	a259                	j	872 <__stack_size+0x72>
E:/沁恒/例程/Example/libraries/zf_driver/zf_driver_uart.c:65
    else if(rx_pin == UART3_RX_B11)     gpio_init(B11, GPI, 0, GPI_PULL_UP);
     6ee:	fe842703          	lw	a4,-24(s0)
     6f2:	02100793          	li	a5,33
     6f6:	00f71a63          	bne	a4,a5,70a <uart_gpio_init+0x250>
E:/沁恒/例程/Example/libraries/zf_driver/zf_driver_uart.c:65 (discriminator 1)
     6fa:	04800693          	li	a3,72
     6fe:	4601                	li	a2,0
     700:	4581                	li	a1,0
     702:	02b00513          	li	a0,43
     706:	3909                	jal	318 <gpio_init>
E:/沁恒/例程/Example/libraries/zf_driver/zf_driver_uart.c:79 (discriminator 1)
}
     708:	a2ad                	j	872 <__stack_size+0x72>
E:/沁恒/例程/Example/libraries/zf_driver/zf_driver_uart.c:66
    else if(rx_pin == UART3_RX_C11)     gpio_init(C11, GPI, 0, GPI_PULL_UP);
     70a:	fe842703          	lw	a4,-24(s0)
     70e:	02300793          	li	a5,35
     712:	00f71a63          	bne	a4,a5,726 <uart_gpio_init+0x26c>
E:/沁恒/例程/Example/libraries/zf_driver/zf_driver_uart.c:66 (discriminator 1)
     716:	04800693          	li	a3,72
     71a:	4601                	li	a2,0
     71c:	4581                	li	a1,0
     71e:	04b00513          	li	a0,75
     722:	3edd                	jal	318 <gpio_init>
E:/沁恒/例程/Example/libraries/zf_driver/zf_driver_uart.c:79 (discriminator 1)
}
     724:	a2b9                	j	872 <__stack_size+0x72>
E:/沁恒/例程/Example/libraries/zf_driver/zf_driver_uart.c:67
    else if(rx_pin == UART3_RX_D9 )     gpio_init(D9,  GPI, 0, GPI_PULL_UP);
     726:	fe842703          	lw	a4,-24(s0)
     72a:	02500793          	li	a5,37
     72e:	00f71a63          	bne	a4,a5,742 <uart_gpio_init+0x288>
E:/沁恒/例程/Example/libraries/zf_driver/zf_driver_uart.c:67 (discriminator 1)
     732:	04800693          	li	a3,72
     736:	4601                	li	a2,0
     738:	4581                	li	a1,0
     73a:	06900513          	li	a0,105
     73e:	3ee9                	jal	318 <gpio_init>
E:/沁恒/例程/Example/libraries/zf_driver/zf_driver_uart.c:79 (discriminator 1)
}
     740:	aa0d                	j	872 <__stack_size+0x72>
E:/沁恒/例程/Example/libraries/zf_driver/zf_driver_uart.c:68
    else if(rx_pin == UART4_RX_C11)     gpio_init(C11, GPI, 0, GPI_PULL_UP);
     742:	fe842703          	lw	a4,-24(s0)
     746:	04100793          	li	a5,65
     74a:	00f71a63          	bne	a4,a5,75e <uart_gpio_init+0x2a4>
E:/沁恒/例程/Example/libraries/zf_driver/zf_driver_uart.c:68 (discriminator 1)
     74e:	04800693          	li	a3,72
     752:	4601                	li	a2,0
     754:	4581                	li	a1,0
     756:	04b00513          	li	a0,75
     75a:	3e7d                	jal	318 <gpio_init>
E:/沁恒/例程/Example/libraries/zf_driver/zf_driver_uart.c:79 (discriminator 1)
}
     75c:	aa19                	j	872 <__stack_size+0x72>
E:/沁恒/例程/Example/libraries/zf_driver/zf_driver_uart.c:69
    else if(rx_pin == UART4_RX_B1)      gpio_init(B1, GPI, 0, GPI_PULL_UP);
     75e:	fe842703          	lw	a4,-24(s0)
     762:	04300793          	li	a5,67
     766:	00f71a63          	bne	a4,a5,77a <uart_gpio_init+0x2c0>
E:/沁恒/例程/Example/libraries/zf_driver/zf_driver_uart.c:69 (discriminator 1)
     76a:	04800693          	li	a3,72
     76e:	4601                	li	a2,0
     770:	4581                	li	a1,0
     772:	02100513          	li	a0,33
     776:	364d                	jal	318 <gpio_init>
E:/沁恒/例程/Example/libraries/zf_driver/zf_driver_uart.c:79 (discriminator 1)
}
     778:	a8ed                	j	872 <__stack_size+0x72>
E:/沁恒/例程/Example/libraries/zf_driver/zf_driver_uart.c:70
    else if(rx_pin == UART5_RX_D2 )     gpio_init(D2,  GPI, 0, GPI_PULL_UP);
     77a:	fe842703          	lw	a4,-24(s0)
     77e:	05100793          	li	a5,81
     782:	00f71a63          	bne	a4,a5,796 <uart_gpio_init+0x2dc>
E:/沁恒/例程/Example/libraries/zf_driver/zf_driver_uart.c:70 (discriminator 1)
     786:	04800693          	li	a3,72
     78a:	4601                	li	a2,0
     78c:	4581                	li	a1,0
     78e:	06200513          	li	a0,98
     792:	3659                	jal	318 <gpio_init>
E:/沁恒/例程/Example/libraries/zf_driver/zf_driver_uart.c:79 (discriminator 1)
}
     794:	a8f9                	j	872 <__stack_size+0x72>
E:/沁恒/例程/Example/libraries/zf_driver/zf_driver_uart.c:71
    else if(rx_pin == UART5_RX_E9 )     gpio_init(E9,  GPI, 0, GPI_PULL_UP);
     796:	fe842703          	lw	a4,-24(s0)
     79a:	05300793          	li	a5,83
     79e:	00f71a63          	bne	a4,a5,7b2 <uart_gpio_init+0x2f8>
E:/沁恒/例程/Example/libraries/zf_driver/zf_driver_uart.c:71 (discriminator 1)
     7a2:	04800693          	li	a3,72
     7a6:	4601                	li	a2,0
     7a8:	4581                	li	a1,0
     7aa:	08900513          	li	a0,137
     7ae:	36ad                	jal	318 <gpio_init>
E:/沁恒/例程/Example/libraries/zf_driver/zf_driver_uart.c:79 (discriminator 1)
}
     7b0:	a0c9                	j	872 <__stack_size+0x72>
E:/沁恒/例程/Example/libraries/zf_driver/zf_driver_uart.c:72
    else if(rx_pin == UART6_RX_C1 )     gpio_init(C1,  GPI, 0, GPI_PULL_UP);
     7b2:	fe842703          	lw	a4,-24(s0)
     7b6:	06100793          	li	a5,97
     7ba:	00f71a63          	bne	a4,a5,7ce <uart_gpio_init+0x314>
E:/沁恒/例程/Example/libraries/zf_driver/zf_driver_uart.c:72 (discriminator 1)
     7be:	04800693          	li	a3,72
     7c2:	4601                	li	a2,0
     7c4:	4581                	li	a1,0
     7c6:	04100513          	li	a0,65
     7ca:	36b9                	jal	318 <gpio_init>
E:/沁恒/例程/Example/libraries/zf_driver/zf_driver_uart.c:79 (discriminator 1)
}
     7cc:	a05d                	j	872 <__stack_size+0x72>
E:/沁恒/例程/Example/libraries/zf_driver/zf_driver_uart.c:73
    else if(rx_pin == UART6_RX_E11 )    gpio_init(E11,  GPI, 0, GPI_PULL_UP);
     7ce:	fe842703          	lw	a4,-24(s0)
     7d2:	06300793          	li	a5,99
     7d6:	00f71a63          	bne	a4,a5,7ea <uart_gpio_init+0x330>
E:/沁恒/例程/Example/libraries/zf_driver/zf_driver_uart.c:73 (discriminator 1)
     7da:	04800693          	li	a3,72
     7de:	4601                	li	a2,0
     7e0:	4581                	li	a1,0
     7e2:	08b00513          	li	a0,139
     7e6:	3e0d                	jal	318 <gpio_init>
E:/沁恒/例程/Example/libraries/zf_driver/zf_driver_uart.c:79 (discriminator 1)
}
     7e8:	a069                	j	872 <__stack_size+0x72>
E:/沁恒/例程/Example/libraries/zf_driver/zf_driver_uart.c:74
    else if(rx_pin == UART7_RX_C3 )     gpio_init(C3,  GPI, 0, GPI_PULL_UP);
     7ea:	fe842703          	lw	a4,-24(s0)
     7ee:	07100793          	li	a5,113
     7f2:	00f71a63          	bne	a4,a5,806 <__stack_size+0x6>
E:/沁恒/例程/Example/libraries/zf_driver/zf_driver_uart.c:74 (discriminator 1)
     7f6:	04800693          	li	a3,72
     7fa:	4601                	li	a2,0
     7fc:	4581                	li	a1,0
     7fe:	04300513          	li	a0,67
     802:	3e19                	jal	318 <gpio_init>
E:/沁恒/例程/Example/libraries/zf_driver/zf_driver_uart.c:79 (discriminator 1)
}
     804:	a0bd                	j	872 <__stack_size+0x72>
E:/沁恒/例程/Example/libraries/zf_driver/zf_driver_uart.c:75
    else if(rx_pin == UART7_RX_A7 )     gpio_init(A7,  GPI, 0, GPI_PULL_UP);
     806:	fe842703          	lw	a4,-24(s0)
     80a:	07300793          	li	a5,115
     80e:	00f71963          	bne	a4,a5,820 <__stack_size+0x20>
E:/沁恒/例程/Example/libraries/zf_driver/zf_driver_uart.c:75 (discriminator 1)
     812:	04800693          	li	a3,72
     816:	4601                	li	a2,0
     818:	4581                	li	a1,0
     81a:	451d                	li	a0,7
     81c:	3cf5                	jal	318 <gpio_init>
E:/沁恒/例程/Example/libraries/zf_driver/zf_driver_uart.c:79 (discriminator 1)
}
     81e:	a891                	j	872 <__stack_size+0x72>
E:/沁恒/例程/Example/libraries/zf_driver/zf_driver_uart.c:76
    else if(rx_pin == UART7_RX_E13 )    gpio_init(E13,  GPI, 0, GPI_PULL_UP);
     820:	fe842703          	lw	a4,-24(s0)
     824:	07500793          	li	a5,117
     828:	00f71a63          	bne	a4,a5,83c <__stack_size+0x3c>
E:/沁恒/例程/Example/libraries/zf_driver/zf_driver_uart.c:76 (discriminator 1)
     82c:	04800693          	li	a3,72
     830:	4601                	li	a2,0
     832:	4581                	li	a1,0
     834:	08d00513          	li	a0,141
     838:	34c5                	jal	318 <gpio_init>
E:/沁恒/例程/Example/libraries/zf_driver/zf_driver_uart.c:79 (discriminator 1)
}
     83a:	a825                	j	872 <__stack_size+0x72>
E:/沁恒/例程/Example/libraries/zf_driver/zf_driver_uart.c:77
    else if(rx_pin == UART8_RX_C5 )     gpio_init(C5,  GPI, 0, GPI_PULL_UP);
     83c:	fe842703          	lw	a4,-24(s0)
     840:	08100793          	li	a5,129
     844:	00f71a63          	bne	a4,a5,858 <__stack_size+0x58>
E:/沁恒/例程/Example/libraries/zf_driver/zf_driver_uart.c:77 (discriminator 1)
     848:	04800693          	li	a3,72
     84c:	4601                	li	a2,0
     84e:	4581                	li	a1,0
     850:	04500513          	li	a0,69
     854:	34d1                	jal	318 <gpio_init>
E:/沁恒/例程/Example/libraries/zf_driver/zf_driver_uart.c:79 (discriminator 1)
}
     856:	a831                	j	872 <__stack_size+0x72>
E:/沁恒/例程/Example/libraries/zf_driver/zf_driver_uart.c:78
    else if(rx_pin == UART8_RX_E15 )    gpio_init(E15,  GPI, 0, GPI_PULL_UP);
     858:	fe842703          	lw	a4,-24(s0)
     85c:	08300793          	li	a5,131
     860:	00f71963          	bne	a4,a5,872 <__stack_size+0x72>
E:/沁恒/例程/Example/libraries/zf_driver/zf_driver_uart.c:78 (discriminator 1)
     864:	04800693          	li	a3,72
     868:	4601                	li	a2,0
     86a:	4581                	li	a1,0
     86c:	08f00513          	li	a0,143
     870:	3465                	jal	318 <gpio_init>
E:/沁恒/例程/Example/libraries/zf_driver/zf_driver_uart.c:79
}
     872:	0001                	nop
     874:	40f2                	lw	ra,28(sp)
     876:	4462                	lw	s0,24(sp)
     878:	6105                	addi	sp,sp,32
     87a:	8082                	ret

0000087c <uart_write_byte>:
uart_write_byte():
E:/沁恒/例程/Example/libraries/zf_driver/zf_driver_uart.c:89
//  @param      dat         串口数据
//  @return     void
//  Sample usage:           uart_write_byte(UART_1, 0x43);        //串口1发送0x43。
//-------------------------------------------------------------------------------------------------------------------
void uart_write_byte(uart_index_enum uartn, const uint8 dat)
{
     87c:	1101                	addi	sp,sp,-32
     87e:	ce22                	sw	s0,28(sp)
     880:	1000                	addi	s0,sp,32
     882:	fea42623          	sw	a0,-20(s0)
     886:	87ae                	mv	a5,a1
     888:	fef405a3          	sb	a5,-21(s0)
E:/沁恒/例程/Example/libraries/zf_driver/zf_driver_uart.c:90
    while((((USART_TypeDef*)uart_index[uartn])->STATR & USART_FLAG_TXE)==0);
     88c:	0001                	nop
E:/沁恒/例程/Example/libraries/zf_driver/zf_driver_uart.c:90 (discriminator 1)
     88e:	67a5                	lui	a5,0x9
     890:	fec42703          	lw	a4,-20(s0)
     894:	070a                	slli	a4,a4,0x2
     896:	89478793          	addi	a5,a5,-1900 # 8894 <uart_index>
     89a:	97ba                	add	a5,a5,a4
     89c:	439c                	lw	a5,0(a5)
     89e:	0007d783          	lhu	a5,0(a5)
     8a2:	07c2                	slli	a5,a5,0x10
     8a4:	83c1                	srli	a5,a5,0x10
     8a6:	0807f793          	andi	a5,a5,128
     8aa:	d3f5                	beqz	a5,88e <uart_write_byte+0x12>
E:/沁恒/例程/Example/libraries/zf_driver/zf_driver_uart.c:91
    ((USART_TypeDef*)uart_index[uartn])->DATAR = dat;
     8ac:	67a5                	lui	a5,0x9
     8ae:	fec42703          	lw	a4,-20(s0)
     8b2:	070a                	slli	a4,a4,0x2
     8b4:	89478793          	addi	a5,a5,-1900 # 8894 <uart_index>
     8b8:	97ba                	add	a5,a5,a4
     8ba:	439c                	lw	a5,0(a5)
     8bc:	873e                	mv	a4,a5
     8be:	feb44783          	lbu	a5,-21(s0)
     8c2:	07c2                	slli	a5,a5,0x10
     8c4:	83c1                	srli	a5,a5,0x10
     8c6:	00f71223          	sh	a5,4(a4)
E:/沁恒/例程/Example/libraries/zf_driver/zf_driver_uart.c:92
}
     8ca:	0001                	nop
     8cc:	4472                	lw	s0,28(sp)
     8ce:	6105                	addi	sp,sp,32
     8d0:	8082                	ret

000008d2 <uart_write_buffer>:
uart_write_buffer():
E:/沁恒/例程/Example/libraries/zf_driver/zf_driver_uart.c:103
//  @param      len         数据长度
//  @return     void
//  Sample usage:           uart_write_buffer(UART_1, buff, 10);     //串口1发送10个buff数组。
//-------------------------------------------------------------------------------------------------------------------
void uart_write_buffer(uart_index_enum uartn, const uint8 *buff, uint32 len)
{
     8d2:	1101                	addi	sp,sp,-32
     8d4:	ce06                	sw	ra,28(sp)
     8d6:	cc22                	sw	s0,24(sp)
     8d8:	1000                	addi	s0,sp,32
     8da:	fea42623          	sw	a0,-20(s0)
     8de:	feb42423          	sw	a1,-24(s0)
     8e2:	fec42223          	sw	a2,-28(s0)
E:/沁恒/例程/Example/libraries/zf_driver/zf_driver_uart.c:104
    while(len--)
     8e6:	a829                	j	900 <uart_write_buffer+0x2e>
E:/沁恒/例程/Example/libraries/zf_driver/zf_driver_uart.c:105
        uart_write_byte(uartn, *buff++);
     8e8:	fe842783          	lw	a5,-24(s0)
     8ec:	00178713          	addi	a4,a5,1
     8f0:	fee42423          	sw	a4,-24(s0)
     8f4:	0007c783          	lbu	a5,0(a5)
     8f8:	85be                	mv	a1,a5
     8fa:	fec42503          	lw	a0,-20(s0)
     8fe:	3fbd                	jal	87c <uart_write_byte>
E:/沁恒/例程/Example/libraries/zf_driver/zf_driver_uart.c:104
    while(len--)
     900:	fe442783          	lw	a5,-28(s0)
     904:	fff78713          	addi	a4,a5,-1
     908:	fee42223          	sw	a4,-28(s0)
     90c:	fff1                	bnez	a5,8e8 <uart_write_buffer+0x16>
E:/沁恒/例程/Example/libraries/zf_driver/zf_driver_uart.c:106
}
     90e:	0001                	nop
     910:	40f2                	lw	ra,28(sp)
     912:	4462                	lw	s0,24(sp)
     914:	6105                	addi	sp,sp,32
     916:	8082                	ret

00000918 <uart_write_string>:
uart_write_string():
E:/沁恒/例程/Example/libraries/zf_driver/zf_driver_uart.c:117
//  @param      str         字符串首地址
//  @return     void
//  Sample usage:           uart_putstr(UART_1, (uint8 *)"12345")   //串口1发送12345这个字符串
//-------------------------------------------------------------------------------------------------------------------
void uart_write_string(uart_index_enum uartn, const uint8 *str)
{
     918:	1101                	addi	sp,sp,-32
     91a:	ce06                	sw	ra,28(sp)
     91c:	cc22                	sw	s0,24(sp)
     91e:	1000                	addi	s0,sp,32
     920:	fea42623          	sw	a0,-20(s0)
     924:	feb42423          	sw	a1,-24(s0)
E:/沁恒/例程/Example/libraries/zf_driver/zf_driver_uart.c:118
    while(*str)
     928:	a829                	j	942 <uart_write_string+0x2a>
E:/沁恒/例程/Example/libraries/zf_driver/zf_driver_uart.c:120
    {
        uart_write_byte(uartn, *str++);
     92a:	fe842783          	lw	a5,-24(s0)
     92e:	00178713          	addi	a4,a5,1
     932:	fee42423          	sw	a4,-24(s0)
     936:	0007c783          	lbu	a5,0(a5)
     93a:	85be                	mv	a1,a5
     93c:	fec42503          	lw	a0,-20(s0)
     940:	3f35                	jal	87c <uart_write_byte>
E:/沁恒/例程/Example/libraries/zf_driver/zf_driver_uart.c:118
    while(*str)
     942:	fe842783          	lw	a5,-24(s0)
     946:	0007c783          	lbu	a5,0(a5)
     94a:	f3e5                	bnez	a5,92a <uart_write_string+0x12>
E:/沁恒/例程/Example/libraries/zf_driver/zf_driver_uart.c:122
    }
}
     94c:	0001                	nop
     94e:	40f2                	lw	ra,28(sp)
     950:	4462                	lw	s0,24(sp)
     952:	6105                	addi	sp,sp,32
     954:	8082                	ret

00000956 <uart_rx_interrupt>:
uart_rx_interrupt():
E:/沁恒/例程/Example/libraries/zf_driver/zf_driver_uart.c:134
//  @param      status      使能或者失能
//  @return     void
//  Sample usage:           uart_rx_irq(UART_1, ENABLE);        //打开串口1接收中断
//-------------------------------------------------------------------------------------------------------------------
void uart_rx_interrupt(uart_index_enum uartn, uint8 status)
{
     956:	1101                	addi	sp,sp,-32
     958:	ce06                	sw	ra,28(sp)
     95a:	cc22                	sw	s0,24(sp)
     95c:	1000                	addi	s0,sp,32
     95e:	fea42623          	sw	a0,-20(s0)
     962:	87ae                	mv	a5,a1
     964:	fef405a3          	sb	a5,-21(s0)
E:/沁恒/例程/Example/libraries/zf_driver/zf_driver_uart.c:135
    USART_ITConfig(((USART_TypeDef*)uart_index[uartn]), USART_IT_RXNE, status);
     968:	67a5                	lui	a5,0x9
     96a:	fec42703          	lw	a4,-20(s0)
     96e:	070a                	slli	a4,a4,0x2
     970:	89478793          	addi	a5,a5,-1900 # 8894 <uart_index>
     974:	97ba                	add	a5,a5,a4
     976:	439c                	lw	a5,0(a5)
     978:	873e                	mv	a4,a5
     97a:	feb44783          	lbu	a5,-21(s0)
     97e:	863e                	mv	a2,a5
     980:	52500593          	li	a1,1317
     984:	853a                	mv	a0,a4
     986:	21c020ef          	jal	ra,2ba2 <USART_ITConfig>
E:/沁恒/例程/Example/libraries/zf_driver/zf_driver_uart.c:138

    // 设置中断优先级
    interrupt_set_priority((uint32)((IRQn_Type)uart_irq[uartn]), 0);
     98a:	81418713          	addi	a4,gp,-2028 # 20000234 <uart_irq>
     98e:	fec42783          	lw	a5,-20(s0)
     992:	97ba                	add	a5,a5,a4
     994:	0007c783          	lbu	a5,0(a5)
     998:	4581                	li	a1,0
     99a:	853e                	mv	a0,a5
     99c:	4e9000ef          	jal	ra,1684 <interrupt_set_priority>
E:/沁恒/例程/Example/libraries/zf_driver/zf_driver_uart.c:140

    if(status)  interrupt_enable((IRQn_Type)uart_irq[uartn]);
     9a0:	feb44783          	lbu	a5,-21(s0)
     9a4:	cf81                	beqz	a5,9bc <uart_rx_interrupt+0x66>
E:/沁恒/例程/Example/libraries/zf_driver/zf_driver_uart.c:140 (discriminator 1)
     9a6:	81418713          	addi	a4,gp,-2028 # 20000234 <uart_irq>
     9aa:	fec42783          	lw	a5,-20(s0)
     9ae:	97ba                	add	a5,a5,a4
     9b0:	0007c783          	lbu	a5,0(a5)
     9b4:	853e                	mv	a0,a5
     9b6:	497000ef          	jal	ra,164c <interrupt_enable>
E:/沁恒/例程/Example/libraries/zf_driver/zf_driver_uart.c:144 (discriminator 1)
    else        interrupt_disable((IRQn_Type)uart_irq[uartn]);


}
     9ba:	a819                	j	9d0 <uart_rx_interrupt+0x7a>
E:/沁恒/例程/Example/libraries/zf_driver/zf_driver_uart.c:141
    else        interrupt_disable((IRQn_Type)uart_irq[uartn]);
     9bc:	81418713          	addi	a4,gp,-2028 # 20000234 <uart_irq>
     9c0:	fec42783          	lw	a5,-20(s0)
     9c4:	97ba                	add	a5,a5,a4
     9c6:	0007c783          	lbu	a5,0(a5)
     9ca:	853e                	mv	a0,a5
     9cc:	49d000ef          	jal	ra,1668 <interrupt_disable>
E:/沁恒/例程/Example/libraries/zf_driver/zf_driver_uart.c:144
}
     9d0:	0001                	nop
     9d2:	40f2                	lw	ra,28(sp)
     9d4:	4462                	lw	s0,24(sp)
     9d6:	6105                	addi	sp,sp,32
     9d8:	8082                	ret

000009da <uart_query_byte>:
uart_query_byte():
E:/沁恒/例程/Example/libraries/zf_driver/zf_driver_uart.c:186
//  @param      *dat            接收数据的地址
//  @return     uint8           1：接收成功   0：未接收到数据
//  Sample usage:               uint8 dat; uart_query_byte(USART_1,&dat);       // 接收串口1数据  存在在dat变量里
//-------------------------------------------------------------------------------------------------------------------
uint8 uart_query_byte(uart_index_enum uartn, uint8 *dat)
{
     9da:	1101                	addi	sp,sp,-32
     9dc:	ce22                	sw	s0,28(sp)
     9de:	1000                	addi	s0,sp,32
     9e0:	fea42623          	sw	a0,-20(s0)
     9e4:	feb42423          	sw	a1,-24(s0)
E:/沁恒/例程/Example/libraries/zf_driver/zf_driver_uart.c:187
    if((((USART_TypeDef*)uart_index[uartn])->STATR & USART_FLAG_RXNE) != 0)
     9e8:	67a5                	lui	a5,0x9
     9ea:	fec42703          	lw	a4,-20(s0)
     9ee:	070a                	slli	a4,a4,0x2
     9f0:	89478793          	addi	a5,a5,-1900 # 8894 <uart_index>
     9f4:	97ba                	add	a5,a5,a4
     9f6:	439c                	lw	a5,0(a5)
     9f8:	0007d783          	lhu	a5,0(a5)
     9fc:	07c2                	slli	a5,a5,0x10
     9fe:	83c1                	srli	a5,a5,0x10
     a00:	0207f793          	andi	a5,a5,32
     a04:	c78d                	beqz	a5,a2e <uart_query_byte+0x54>
E:/沁恒/例程/Example/libraries/zf_driver/zf_driver_uart.c:189
    {
        *dat = (((USART_TypeDef*)uart_index[uartn])->DATAR & 0xFF);
     a06:	67a5                	lui	a5,0x9
     a08:	fec42703          	lw	a4,-20(s0)
     a0c:	070a                	slli	a4,a4,0x2
     a0e:	89478793          	addi	a5,a5,-1900 # 8894 <uart_index>
     a12:	97ba                	add	a5,a5,a4
     a14:	439c                	lw	a5,0(a5)
     a16:	0047d783          	lhu	a5,4(a5)
     a1a:	07c2                	slli	a5,a5,0x10
     a1c:	83c1                	srli	a5,a5,0x10
     a1e:	0ff7f713          	andi	a4,a5,255
     a22:	fe842783          	lw	a5,-24(s0)
     a26:	00e78023          	sb	a4,0(a5)
E:/沁恒/例程/Example/libraries/zf_driver/zf_driver_uart.c:190
        return 1;
     a2a:	4785                	li	a5,1
     a2c:	a011                	j	a30 <uart_query_byte+0x56>
E:/沁恒/例程/Example/libraries/zf_driver/zf_driver_uart.c:192
    }
    return 0;
     a2e:	4781                	li	a5,0
E:/沁恒/例程/Example/libraries/zf_driver/zf_driver_uart.c:193
}
     a30:	853e                	mv	a0,a5
     a32:	4472                	lw	s0,28(sp)
     a34:	6105                	addi	sp,sp,32
     a36:	8082                	ret

00000a38 <uart_init>:
uart_init():
E:/沁恒/例程/Example/libraries/zf_driver/zf_driver_uart.c:205
//  @param      rx_pin      串口接收引脚号
//  @return     void
//  Sample usage:           uart_init(UART_1, 115200, UART1_TX_A9, UART1_RX_A10); //串口1初始化引脚号,TX为A9,RX为A10
//-------------------------------------------------------------------------------------------------------------------
void uart_init(uart_index_enum uart_num, uint32 baud, uart_pin_enum tx_pin, uart_pin_enum rx_pin)
{
     a38:	7179                	addi	sp,sp,-48
     a3a:	d606                	sw	ra,44(sp)
     a3c:	d422                	sw	s0,40(sp)
     a3e:	1800                	addi	s0,sp,48
     a40:	fca42e23          	sw	a0,-36(s0)
     a44:	fcb42c23          	sw	a1,-40(s0)
     a48:	fcc42a23          	sw	a2,-44(s0)
     a4c:	fcd42823          	sw	a3,-48(s0)
E:/沁恒/例程/Example/libraries/zf_driver/zf_driver_uart.c:206
    USART_InitTypeDef USART_InitStructure = {0};
     a50:	fe042023          	sw	zero,-32(s0)
     a54:	fe042223          	sw	zero,-28(s0)
     a58:	fe042423          	sw	zero,-24(s0)
     a5c:	fe042623          	sw	zero,-20(s0)
E:/沁恒/例程/Example/libraries/zf_driver/zf_driver_uart.c:209

    // AFIO总线开启
    RCC_APB2PeriphClockCmd(RCC_APB2Periph_AFIO, ENABLE);
     a60:	4585                	li	a1,1
     a62:	4505                	li	a0,1
     a64:	581010ef          	jal	ra,27e4 <RCC_APB2PeriphClockCmd>
E:/沁恒/例程/Example/libraries/zf_driver/zf_driver_uart.c:216

    // RX引脚和TX引脚必须组传入
//    zf_assert(((rx_pin - 1) == tx_pin) || (tx_pin == UART5_TX_C12 && UART5_RX_D2 == rx_pin));

    // 引脚初始化
    uart_gpio_init(tx_pin, rx_pin);
     a68:	fd042583          	lw	a1,-48(s0)
     a6c:	fd442503          	lw	a0,-44(s0)
     a70:	34a9                	jal	4ba <uart_gpio_init>
E:/沁恒/例程/Example/libraries/zf_driver/zf_driver_uart.c:219

    // 端口重映射
    if(UART1_TX_B6 == tx_pin && UART1_RX_B7 == rx_pin)
     a72:	fd442703          	lw	a4,-44(s0)
     a76:	4789                	li	a5,2
     a78:	00f71c63          	bne	a4,a5,a90 <uart_init+0x58>
E:/沁恒/例程/Example/libraries/zf_driver/zf_driver_uart.c:219 (discriminator 1)
     a7c:	fd042703          	lw	a4,-48(s0)
     a80:	478d                	li	a5,3
     a82:	00f71763          	bne	a4,a5,a90 <uart_init+0x58>
E:/沁恒/例程/Example/libraries/zf_driver/zf_driver_uart.c:220
        GPIO_PinRemapConfig(GPIO_Remap_USART1, ENABLE);
     a86:	4585                	li	a1,1
     a88:	4511                	li	a0,4
     a8a:	155010ef          	jal	ra,23de <GPIO_PinRemapConfig>
     a8e:	a295                	j	bf2 <uart_init+0x1ba>
E:/沁恒/例程/Example/libraries/zf_driver/zf_driver_uart.c:221
    else if(UART2_TX_D5 == tx_pin && UART2_RX_D6 == rx_pin)
     a90:	fd442703          	lw	a4,-44(s0)
     a94:	47c9                	li	a5,18
     a96:	00f71c63          	bne	a4,a5,aae <uart_init+0x76>
E:/沁恒/例程/Example/libraries/zf_driver/zf_driver_uart.c:221 (discriminator 1)
     a9a:	fd042703          	lw	a4,-48(s0)
     a9e:	47cd                	li	a5,19
     aa0:	00f71763          	bne	a4,a5,aae <uart_init+0x76>
E:/沁恒/例程/Example/libraries/zf_driver/zf_driver_uart.c:222
        GPIO_PinRemapConfig(GPIO_Remap_USART2, ENABLE);
     aa4:	4585                	li	a1,1
     aa6:	4521                	li	a0,8
     aa8:	137010ef          	jal	ra,23de <GPIO_PinRemapConfig>
     aac:	a299                	j	bf2 <uart_init+0x1ba>
E:/沁恒/例程/Example/libraries/zf_driver/zf_driver_uart.c:223
    else if(UART3_TX_C10 == tx_pin && UART3_RX_C11 == rx_pin)
     aae:	fd442703          	lw	a4,-44(s0)
     ab2:	02200793          	li	a5,34
     ab6:	02f71063          	bne	a4,a5,ad6 <uart_init+0x9e>
E:/沁恒/例程/Example/libraries/zf_driver/zf_driver_uart.c:223 (discriminator 1)
     aba:	fd042703          	lw	a4,-48(s0)
     abe:	02300793          	li	a5,35
     ac2:	00f71a63          	bne	a4,a5,ad6 <uart_init+0x9e>
E:/沁恒/例程/Example/libraries/zf_driver/zf_driver_uart.c:224
        GPIO_PinRemapConfig(GPIO_PartialRemap_USART3, ENABLE);
     ac6:	4585                	li	a1,1
     ac8:	001407b7          	lui	a5,0x140
     acc:	01078513          	addi	a0,a5,16 # 140010 <_data_lma+0x13714c>
     ad0:	10f010ef          	jal	ra,23de <GPIO_PinRemapConfig>
     ad4:	aa39                	j	bf2 <uart_init+0x1ba>
E:/沁恒/例程/Example/libraries/zf_driver/zf_driver_uart.c:225
    else if(UART3_TX_D8 == tx_pin && UART3_RX_D9 == rx_pin)
     ad6:	fd442703          	lw	a4,-44(s0)
     ada:	02400793          	li	a5,36
     ade:	02f71063          	bne	a4,a5,afe <uart_init+0xc6>
E:/沁恒/例程/Example/libraries/zf_driver/zf_driver_uart.c:225 (discriminator 1)
     ae2:	fd042703          	lw	a4,-48(s0)
     ae6:	02500793          	li	a5,37
     aea:	00f71a63          	bne	a4,a5,afe <uart_init+0xc6>
E:/沁恒/例程/Example/libraries/zf_driver/zf_driver_uart.c:226
        GPIO_PinRemapConfig(GPIO_FullRemap_USART3, ENABLE);
     aee:	4585                	li	a1,1
     af0:	001407b7          	lui	a5,0x140
     af4:	03078513          	addi	a0,a5,48 # 140030 <_data_lma+0x13716c>
     af8:	0e7010ef          	jal	ra,23de <GPIO_PinRemapConfig>
     afc:	a8dd                	j	bf2 <uart_init+0x1ba>
E:/沁恒/例程/Example/libraries/zf_driver/zf_driver_uart.c:227
    else if(UART4_TX_B0 == tx_pin && UART4_RX_B1 == rx_pin)
     afe:	fd442703          	lw	a4,-44(s0)
     b02:	04200793          	li	a5,66
     b06:	00f71d63          	bne	a4,a5,b20 <uart_init+0xe8>
E:/沁恒/例程/Example/libraries/zf_driver/zf_driver_uart.c:227 (discriminator 1)
     b0a:	fd042703          	lw	a4,-48(s0)
     b0e:	04300793          	li	a5,67
     b12:	00f71763          	bne	a4,a5,b20 <uart_init+0xe8>
E:/沁恒/例程/Example/libraries/zf_driver/zf_driver_uart.c:228
        GPIO_PinRemapConfig(GPIO_Remap_TIM4, ENABLE);
     b16:	4585                	li	a1,1
     b18:	6505                	lui	a0,0x1
     b1a:	0c5010ef          	jal	ra,23de <GPIO_PinRemapConfig>
     b1e:	a8d1                	j	bf2 <uart_init+0x1ba>
E:/沁恒/例程/Example/libraries/zf_driver/zf_driver_uart.c:229
    else if(UART5_TX_E8 == tx_pin && UART5_RX_E9 == rx_pin)
     b20:	fd442703          	lw	a4,-44(s0)
     b24:	05200793          	li	a5,82
     b28:	02f71063          	bne	a4,a5,b48 <uart_init+0x110>
E:/沁恒/例程/Example/libraries/zf_driver/zf_driver_uart.c:229 (discriminator 1)
     b2c:	fd042703          	lw	a4,-48(s0)
     b30:	05300793          	li	a5,83
     b34:	00f71a63          	bne	a4,a5,b48 <uart_init+0x110>
E:/沁恒/例程/Example/libraries/zf_driver/zf_driver_uart.c:230
        GPIO_PinRemapConfig(GPIO_Remap_TIM5CH4_LSI, ENABLE);
     b38:	4585                	li	a1,1
     b3a:	002007b7          	lui	a5,0x200
     b3e:	00178513          	addi	a0,a5,1 # 200001 <_data_lma+0x1f713d>
     b42:	09d010ef          	jal	ra,23de <GPIO_PinRemapConfig>
     b46:	a075                	j	bf2 <uart_init+0x1ba>
E:/沁恒/例程/Example/libraries/zf_driver/zf_driver_uart.c:231
    else if(UART6_TX_E10 == tx_pin && UART6_RX_E11 == rx_pin)
     b48:	fd442703          	lw	a4,-44(s0)
     b4c:	06200793          	li	a5,98
     b50:	02f71063          	bne	a4,a5,b70 <uart_init+0x138>
E:/沁恒/例程/Example/libraries/zf_driver/zf_driver_uart.c:231 (discriminator 1)
     b54:	fd042703          	lw	a4,-48(s0)
     b58:	06300793          	li	a5,99
     b5c:	00f71a63          	bne	a4,a5,b70 <uart_init+0x138>
E:/沁恒/例程/Example/libraries/zf_driver/zf_driver_uart.c:232
        GPIO_PinRemapConfig(GPIO_Remap_TIM67_DAC_DMA, ENABLE);
     b60:	4585                	li	a1,1
     b62:	800017b7          	lui	a5,0x80001
     b66:	80078513          	addi	a0,a5,-2048 # 80000800 <_eusrstack+0x5fff0800>
     b6a:	075010ef          	jal	ra,23de <GPIO_PinRemapConfig>
     b6e:	a051                	j	bf2 <uart_init+0x1ba>
E:/沁恒/例程/Example/libraries/zf_driver/zf_driver_uart.c:234

    else if(UART7_TX_A6 == tx_pin && UART7_RX_A7 == rx_pin)
     b70:	fd442703          	lw	a4,-44(s0)
     b74:	07200793          	li	a5,114
     b78:	02f71263          	bne	a4,a5,b9c <uart_init+0x164>
E:/沁恒/例程/Example/libraries/zf_driver/zf_driver_uart.c:234 (discriminator 1)
     b7c:	fd042703          	lw	a4,-48(s0)
     b80:	07300793          	li	a5,115
     b84:	00f71c63          	bne	a4,a5,b9c <uart_init+0x164>
E:/沁恒/例程/Example/libraries/zf_driver/zf_driver_uart.c:235
        AFIO->PCFR2 |= 0x01<<22;                       //[23:22]
     b88:	400107b7          	lui	a5,0x40010
     b8c:	4fd4                	lw	a3,28(a5)
     b8e:	400107b7          	lui	a5,0x40010
     b92:	00400737          	lui	a4,0x400
     b96:	8f55                	or	a4,a4,a3
     b98:	cfd8                	sw	a4,28(a5)
     b9a:	a8a1                	j	bf2 <uart_init+0x1ba>
E:/沁恒/例程/Example/libraries/zf_driver/zf_driver_uart.c:236
    else if(UART7_TX_E12 == tx_pin && UART7_RX_E13 == rx_pin)
     b9c:	fd442703          	lw	a4,-44(s0)
     ba0:	07400793          	li	a5,116
     ba4:	02f71263          	bne	a4,a5,bc8 <uart_init+0x190>
E:/沁恒/例程/Example/libraries/zf_driver/zf_driver_uart.c:236 (discriminator 1)
     ba8:	fd042703          	lw	a4,-48(s0)
     bac:	07500793          	li	a5,117
     bb0:	00f71c63          	bne	a4,a5,bc8 <uart_init+0x190>
E:/沁恒/例程/Example/libraries/zf_driver/zf_driver_uart.c:237
        AFIO->PCFR2 |= 0x01<<23;                       //[23:22]
     bb4:	400107b7          	lui	a5,0x40010
     bb8:	4fd4                	lw	a3,28(a5)
     bba:	400107b7          	lui	a5,0x40010
     bbe:	00800737          	lui	a4,0x800
     bc2:	8f55                	or	a4,a4,a3
     bc4:	cfd8                	sw	a4,28(a5)
     bc6:	a035                	j	bf2 <uart_init+0x1ba>
E:/沁恒/例程/Example/libraries/zf_driver/zf_driver_uart.c:239

    else if(UART8_TX_E14 == tx_pin && UART8_RX_E15 == rx_pin)
     bc8:	fd442703          	lw	a4,-44(s0)
     bcc:	08200793          	li	a5,130
     bd0:	02f71163          	bne	a4,a5,bf2 <uart_init+0x1ba>
E:/沁恒/例程/Example/libraries/zf_driver/zf_driver_uart.c:239 (discriminator 1)
     bd4:	fd042703          	lw	a4,-48(s0)
     bd8:	08300793          	li	a5,131
     bdc:	00f71b63          	bne	a4,a5,bf2 <uart_init+0x1ba>
E:/沁恒/例程/Example/libraries/zf_driver/zf_driver_uart.c:240
        AFIO->PCFR2 |= 1<<25;    //[25:24]
     be0:	400107b7          	lui	a5,0x40010
     be4:	4fd4                	lw	a3,28(a5)
     be6:	400107b7          	lui	a5,0x40010
     bea:	02000737          	lui	a4,0x2000
     bee:	8f55                	or	a4,a4,a3
     bf0:	cfd8                	sw	a4,28(a5)
E:/沁恒/例程/Example/libraries/zf_driver/zf_driver_uart.c:243

    //  串口总线使能
    if(UART_1 == uart_num) RCC_APB2PeriphClockCmd(RCC_APB2Periph_USART1, ENABLE);
     bf2:	fdc42783          	lw	a5,-36(s0)
     bf6:	e791                	bnez	a5,c02 <uart_init+0x1ca>
E:/沁恒/例程/Example/libraries/zf_driver/zf_driver_uart.c:243 (discriminator 1)
     bf8:	4585                	li	a1,1
     bfa:	6511                	lui	a0,0x4
     bfc:	3e9010ef          	jal	ra,27e4 <RCC_APB2PeriphClockCmd>
     c00:	a869                	j	c9a <uart_init+0x262>
E:/沁恒/例程/Example/libraries/zf_driver/zf_driver_uart.c:244
    else if(UART_2 == uart_num) RCC_APB1PeriphClockCmd(RCC_APB1Periph_USART2, ENABLE);
     c02:	fdc42703          	lw	a4,-36(s0)
     c06:	4785                	li	a5,1
     c08:	00f71863          	bne	a4,a5,c18 <uart_init+0x1e0>
E:/沁恒/例程/Example/libraries/zf_driver/zf_driver_uart.c:244 (discriminator 1)
     c0c:	4585                	li	a1,1
     c0e:	00020537          	lui	a0,0x20
     c12:	419010ef          	jal	ra,282a <RCC_APB1PeriphClockCmd>
     c16:	a051                	j	c9a <uart_init+0x262>
E:/沁恒/例程/Example/libraries/zf_driver/zf_driver_uart.c:245
    else if(UART_3 == uart_num) RCC_APB1PeriphClockCmd(RCC_APB1Periph_USART3, ENABLE);
     c18:	fdc42703          	lw	a4,-36(s0)
     c1c:	4789                	li	a5,2
     c1e:	00f71863          	bne	a4,a5,c2e <uart_init+0x1f6>
E:/沁恒/例程/Example/libraries/zf_driver/zf_driver_uart.c:245 (discriminator 1)
     c22:	4585                	li	a1,1
     c24:	00040537          	lui	a0,0x40
     c28:	403010ef          	jal	ra,282a <RCC_APB1PeriphClockCmd>
     c2c:	a0bd                	j	c9a <uart_init+0x262>
E:/沁恒/例程/Example/libraries/zf_driver/zf_driver_uart.c:246
    else if(UART_4 == uart_num) RCC_APB1PeriphClockCmd(RCC_APB1Periph_UART4, ENABLE);
     c2e:	fdc42703          	lw	a4,-36(s0)
     c32:	478d                	li	a5,3
     c34:	00f71863          	bne	a4,a5,c44 <uart_init+0x20c>
E:/沁恒/例程/Example/libraries/zf_driver/zf_driver_uart.c:246 (discriminator 1)
     c38:	4585                	li	a1,1
     c3a:	00080537          	lui	a0,0x80
     c3e:	3ed010ef          	jal	ra,282a <RCC_APB1PeriphClockCmd>
     c42:	a8a1                	j	c9a <uart_init+0x262>
E:/沁恒/例程/Example/libraries/zf_driver/zf_driver_uart.c:247
    else if(UART_5 == uart_num) RCC_APB1PeriphClockCmd(RCC_APB1Periph_UART5, ENABLE);
     c44:	fdc42703          	lw	a4,-36(s0)
     c48:	4791                	li	a5,4
     c4a:	00f71863          	bne	a4,a5,c5a <uart_init+0x222>
E:/沁恒/例程/Example/libraries/zf_driver/zf_driver_uart.c:247 (discriminator 1)
     c4e:	4585                	li	a1,1
     c50:	00100537          	lui	a0,0x100
     c54:	3d7010ef          	jal	ra,282a <RCC_APB1PeriphClockCmd>
     c58:	a089                	j	c9a <uart_init+0x262>
E:/沁恒/例程/Example/libraries/zf_driver/zf_driver_uart.c:248
    else if(UART_6 == uart_num) RCC_APB1PeriphClockCmd(RCC_APB1Periph_UART6, ENABLE);
     c5a:	fdc42703          	lw	a4,-36(s0)
     c5e:	4795                	li	a5,5
     c60:	00f71863          	bne	a4,a5,c70 <uart_init+0x238>
E:/沁恒/例程/Example/libraries/zf_driver/zf_driver_uart.c:248 (discriminator 1)
     c64:	4585                	li	a1,1
     c66:	04000513          	li	a0,64
     c6a:	3c1010ef          	jal	ra,282a <RCC_APB1PeriphClockCmd>
     c6e:	a035                	j	c9a <uart_init+0x262>
E:/沁恒/例程/Example/libraries/zf_driver/zf_driver_uart.c:249
    else if(UART_7 == uart_num) RCC_APB1PeriphClockCmd(RCC_APB1Periph_UART7, ENABLE);
     c70:	fdc42703          	lw	a4,-36(s0)
     c74:	4799                	li	a5,6
     c76:	00f71863          	bne	a4,a5,c86 <uart_init+0x24e>
E:/沁恒/例程/Example/libraries/zf_driver/zf_driver_uart.c:249 (discriminator 1)
     c7a:	4585                	li	a1,1
     c7c:	08000513          	li	a0,128
     c80:	3ab010ef          	jal	ra,282a <RCC_APB1PeriphClockCmd>
     c84:	a819                	j	c9a <uart_init+0x262>
E:/沁恒/例程/Example/libraries/zf_driver/zf_driver_uart.c:250
    else if(UART_8 == uart_num) RCC_APB1PeriphClockCmd(RCC_APB1Periph_UART8, ENABLE);
     c86:	fdc42703          	lw	a4,-36(s0)
     c8a:	479d                	li	a5,7
     c8c:	00f71763          	bne	a4,a5,c9a <uart_init+0x262>
E:/沁恒/例程/Example/libraries/zf_driver/zf_driver_uart.c:250 (discriminator 1)
     c90:	4585                	li	a1,1
     c92:	10000513          	li	a0,256
     c96:	395010ef          	jal	ra,282a <RCC_APB1PeriphClockCmd>
E:/沁恒/例程/Example/libraries/zf_driver/zf_driver_uart.c:254


    //  串口参数配置
    USART_InitStructure.USART_BaudRate = baud;
     c9a:	fd842783          	lw	a5,-40(s0)
     c9e:	fef42023          	sw	a5,-32(s0)
E:/沁恒/例程/Example/libraries/zf_driver/zf_driver_uart.c:255
    USART_InitStructure.USART_WordLength = USART_WordLength_8b;
     ca2:	fe041223          	sh	zero,-28(s0)
E:/沁恒/例程/Example/libraries/zf_driver/zf_driver_uart.c:256
    USART_InitStructure.USART_StopBits = USART_StopBits_1;
     ca6:	fe041323          	sh	zero,-26(s0)
E:/沁恒/例程/Example/libraries/zf_driver/zf_driver_uart.c:257
    USART_InitStructure.USART_Parity = USART_Parity_No;
     caa:	fe041423          	sh	zero,-24(s0)
E:/沁恒/例程/Example/libraries/zf_driver/zf_driver_uart.c:258
    USART_InitStructure.USART_HardwareFlowControl = USART_HardwareFlowControl_None;
     cae:	fe041623          	sh	zero,-20(s0)
E:/沁恒/例程/Example/libraries/zf_driver/zf_driver_uart.c:259
    USART_InitStructure.USART_Mode = USART_Mode_Tx | USART_Mode_Rx;
     cb2:	47b1                	li	a5,12
     cb4:	fef41523          	sh	a5,-22(s0)
E:/沁恒/例程/Example/libraries/zf_driver/zf_driver_uart.c:262

    //  使能串口
    USART_Init((USART_TypeDef*)uart_index[uart_num], &USART_InitStructure);
     cb8:	67a5                	lui	a5,0x9
     cba:	fdc42703          	lw	a4,-36(s0)
     cbe:	070a                	slli	a4,a4,0x2
     cc0:	89478793          	addi	a5,a5,-1900 # 8894 <uart_index>
     cc4:	97ba                	add	a5,a5,a4
     cc6:	439c                	lw	a5,0(a5)
     cc8:	873e                	mv	a4,a5
     cca:	fe040793          	addi	a5,s0,-32
     cce:	85be                	mv	a1,a5
     cd0:	853a                	mv	a0,a4
     cd2:	43d010ef          	jal	ra,290e <USART_Init>
E:/沁恒/例程/Example/libraries/zf_driver/zf_driver_uart.c:263
    USART_Cmd((USART_TypeDef*)uart_index[uart_num], ENABLE);
     cd6:	67a5                	lui	a5,0x9
     cd8:	fdc42703          	lw	a4,-36(s0)
     cdc:	070a                	slli	a4,a4,0x2
     cde:	89478793          	addi	a5,a5,-1900 # 8894 <uart_index>
     ce2:	97ba                	add	a5,a5,a4
     ce4:	439c                	lw	a5,0(a5)
     ce6:	4585                	li	a1,1
     ce8:	853e                	mv	a0,a5
     cea:	659010ef          	jal	ra,2b42 <USART_Cmd>
E:/沁恒/例程/Example/libraries/zf_driver/zf_driver_uart.c:265

}
     cee:	0001                	nop
     cf0:	50b2                	lw	ra,44(sp)
     cf2:	5422                	lw	s0,40(sp)
     cf4:	6145                	addi	sp,sp,48
     cf6:	8082                	ret

00000cf8 <bluetooth_ch9141_uart_callback_ch1>:
bluetooth_ch9141_uart_callback_ch1():
E:/沁恒/例程/Example/libraries/zf_device/zf_device_bluetooth_ch9141.c:39
//  @since      v1.0
//  Sample usage:
//  @note       该函数在ISR文件 串口8中断程序被调用
//-------------------------------------------------------------------------------------------------------------------
void bluetooth_ch9141_uart_callback_ch1 (void)
{
     cf8:	1141                	addi	sp,sp,-16
     cfa:	c606                	sw	ra,12(sp)
     cfc:	c422                	sw	s0,8(sp)
     cfe:	0800                	addi	s0,sp,16
E:/沁恒/例程/Example/libraries/zf_device/zf_device_bluetooth_ch9141.c:40
    uart_query_byte(BLUETOOTH_CH9141_INDEX, &bluetooth_ch9141_data);                // 读取串口数据
     d00:	82818593          	addi	a1,gp,-2008 # 20000248 <_edata>
     d04:	4519                	li	a0,6
     d06:	39d1                	jal	9da <uart_query_byte>
E:/沁恒/例程/Example/libraries/zf_device/zf_device_bluetooth_ch9141.c:41
    fifo_write_buffer(&bluetooth_ch9141_fifo, &bluetooth_ch9141_data, 1);           // 存入 FIFO
     d08:	4605                	li	a2,1
     d0a:	82818593          	addi	a1,gp,-2008 # 20000248 <_edata>
     d0e:	88818513          	addi	a0,gp,-1912 # 200002a8 <bluetooth_ch9141_fifo>
     d12:	2569                	jal	139c <fifo_write_buffer>
E:/沁恒/例程/Example/libraries/zf_device/zf_device_bluetooth_ch9141.c:42
}
     d14:	0001                	nop
     d16:	40b2                	lw	ra,12(sp)
     d18:	4422                	lw	s0,8(sp)
     d1a:	0141                	addi	sp,sp,16
     d1c:	8082                	ret

00000d1e <bluetooth_ch9141_uart_callback_ch2>:
bluetooth_ch9141_uart_callback_ch2():
E:/沁恒/例程/Example/libraries/zf_device/zf_device_bluetooth_ch9141_ch2.c:41
//  @since      v1.0
//  Sample usage:
//  @note       该函数在ISR文件 串口8中断程序被调用
//-------------------------------------------------------------------------------------------------------------------
void bluetooth_ch9141_uart_callback_ch2 (void)
{
     d1e:	1141                	addi	sp,sp,-16
     d20:	c606                	sw	ra,12(sp)
     d22:	c422                	sw	s0,8(sp)
     d24:	0800                	addi	s0,sp,16
E:/沁恒/例程/Example/libraries/zf_device/zf_device_bluetooth_ch9141_ch2.c:42
    uart_query_byte(BLUETOOTH_CH9141_INDEX_CH2, &bluetooth_ch9141_data_ch2);                // 读取串口数据
     d26:	82918593          	addi	a1,gp,-2007 # 20000249 <bluetooth_ch9141_data_ch2>
     d2a:	4505                	li	a0,1
     d2c:	317d                	jal	9da <uart_query_byte>
E:/沁恒/例程/Example/libraries/zf_device/zf_device_bluetooth_ch9141_ch2.c:43
    fifo_write_buffer(&bluetooth_ch9141_fifo_ch2, &bluetooth_ch9141_data_ch2, 1);           // 存入 FIFO
     d2e:	4605                	li	a2,1
     d30:	82918593          	addi	a1,gp,-2007 # 20000249 <bluetooth_ch9141_data_ch2>
     d34:	89c18513          	addi	a0,gp,-1892 # 200002bc <bluetooth_ch9141_fifo_ch2>
     d38:	2595                	jal	139c <fifo_write_buffer>
E:/沁恒/例程/Example/libraries/zf_device/zf_device_bluetooth_ch9141_ch2.c:45

}
     d3a:	0001                	nop
     d3c:	40b2                	lw	ra,12(sp)
     d3e:	4422                	lw	s0,8(sp)
     d40:	0141                	addi	sp,sp,16
     d42:	8082                	ret

00000d44 <camera_uart_handler>:
camera_uart_handler():
E:/沁恒/例程/Example/libraries/zf_device/zf_device_camera.c:35
// @param       void
// @return      void
// Sample usage:
//-------------------------------------------------------------------------------------------------------------------
void camera_uart_handler (void)
{
     d44:	1141                	addi	sp,sp,-16
     d46:	c606                	sw	ra,12(sp)
     d48:	c422                	sw	s0,8(sp)
     d4a:	0800                	addi	s0,sp,16
E:/沁恒/例程/Example/libraries/zf_device/zf_device_camera.c:36
    if(camera_type == CAMERA_BIN_UART)
     d4c:	83c1a703          	lw	a4,-1988(gp) # 2000025c <camera_type>
     d50:	4789                	li	a5,2
     d52:	00f70f63          	beq	a4,a5,d70 <camera_uart_handler+0x2c>
E:/沁恒/例程/Example/libraries/zf_device/zf_device_camera.c:41
    {
        // 小钻风暂不支持
        //ov7725_cof_uart_interrupt();
    }
    else if(camera_type == CAMERA_GRAYSCALE)
     d56:	83c1a703          	lw	a4,-1988(gp) # 2000025c <camera_type>
     d5a:	478d                	li	a5,3
     d5c:	00f71463          	bne	a4,a5,d64 <camera_uart_handler+0x20>
E:/沁恒/例程/Example/libraries/zf_device/zf_device_camera.c:44
    {
        // 总钻风串口回调函数
        mt9v03x_uart_callback_dvp();
     d60:	2099                	jal	da6 <mt9v03x_uart_callback_dvp>
E:/沁恒/例程/Example/libraries/zf_device/zf_device_camera.c:51
    else if(camera_type == CAMERA_COLOR)
    {
        //凌瞳串口回调函数
        scc8660_uart_callback_dvp();
    }
}
     d62:	a039                	j	d70 <camera_uart_handler+0x2c>
E:/沁恒/例程/Example/libraries/zf_device/zf_device_camera.c:46
    else if(camera_type == CAMERA_COLOR)
     d64:	83c1a703          	lw	a4,-1988(gp) # 2000025c <camera_type>
     d68:	4791                	li	a5,4
     d6a:	00f71363          	bne	a4,a5,d70 <camera_uart_handler+0x2c>
E:/沁恒/例程/Example/libraries/zf_device/zf_device_camera.c:49
        scc8660_uart_callback_dvp();
     d6e:	2845                	jal	e1e <scc8660_uart_callback_dvp>
E:/沁恒/例程/Example/libraries/zf_device/zf_device_camera.c:51
}
     d70:	0001                	nop
     d72:	40b2                	lw	ra,12(sp)
     d74:	4422                	lw	s0,8(sp)
     d76:	0141                	addi	sp,sp,16
     d78:	8082                	ret

00000d7a <camera_dvp_handler>:
camera_dvp_handler():
E:/沁恒/例程/Example/libraries/zf_device/zf_device_camera.c:82
// @param       void
// @return      void
// Sample usage:
//-------------------------------------------------------------------------------------------------------------------
void camera_dvp_handler(void)
{
     d7a:	1141                	addi	sp,sp,-16
     d7c:	c606                	sw	ra,12(sp)
     d7e:	c422                	sw	s0,8(sp)
     d80:	0800                	addi	s0,sp,16
E:/沁恒/例程/Example/libraries/zf_device/zf_device_camera.c:83
    if(camera_type == CAMERA_COLOR)
     d82:	83c1a703          	lw	a4,-1988(gp) # 2000025c <camera_type>
     d86:	4791                	li	a5,4
     d88:	00f71463          	bne	a4,a5,d90 <camera_dvp_handler+0x16>
E:/沁恒/例程/Example/libraries/zf_device/zf_device_camera.c:85
    {
        scc8660_vsync_dvp();
     d8c:	28dd                	jal	e82 <scc8660_vsync_dvp>
E:/沁恒/例程/Example/libraries/zf_device/zf_device_camera.c:95
    }
    else if(camera_type == CAMERA_BIN_UART)
    {
        //小钻风不支持
    }
}
     d8e:	a039                	j	d9c <camera_dvp_handler+0x22>
E:/沁恒/例程/Example/libraries/zf_device/zf_device_camera.c:87
    else if(camera_type == CAMERA_GRAYSCALE)
     d90:	83c1a703          	lw	a4,-1988(gp) # 2000025c <camera_type>
     d94:	478d                	li	a5,3
     d96:	00f71363          	bne	a4,a5,d9c <camera_dvp_handler+0x22>
E:/沁恒/例程/Example/libraries/zf_device/zf_device_camera.c:89
        mt9v03x_handler_dvp();
     d9a:	2885                	jal	e0a <mt9v03x_handler_dvp>
E:/沁恒/例程/Example/libraries/zf_device/zf_device_camera.c:95
}
     d9c:	0001                	nop
     d9e:	40b2                	lw	ra,12(sp)
     da0:	4422                	lw	s0,8(sp)
     da2:	0141                	addi	sp,sp,16
     da4:	8082                	ret

00000da6 <mt9v03x_uart_callback_dvp>:
mt9v03x_uart_callback_dvp():
E:/沁恒/例程/Example/libraries/zf_device/zf_device_mt9v03x_dvp.c:177
// @param       void
// @return      void
// Sample usage:
//-------------------------------------------------------------------------------------------------------------------
void mt9v03x_uart_callback_dvp (void)
{
     da6:	1141                	addi	sp,sp,-16
     da8:	c606                	sw	ra,12(sp)
     daa:	c422                	sw	s0,8(sp)
     dac:	0800                	addi	s0,sp,16
E:/沁恒/例程/Example/libraries/zf_device/zf_device_mt9v03x_dvp.c:181
//    receive_dvp[receive_num_dvp] = ((USART_TypeDef*)uart_index[MT9V03X_COF_UART_DVP])->DATAR & 0xFF;
//    receive_num_dvp++;

    if(uart_query_byte(MT9V03X_COF_UART_DVP, &receive_dvp[receive_num_dvp]))
     dae:	82f1c783          	lbu	a5,-2001(gp) # 2000024f <receive_num_dvp>
     db2:	873e                	mv	a4,a5
     db4:	82c18793          	addi	a5,gp,-2004 # 2000024c <receive_dvp>
     db8:	97ba                	add	a5,a5,a4
     dba:	85be                	mv	a1,a5
     dbc:	4511                	li	a0,4
     dbe:	3931                	jal	9da <uart_query_byte>
     dc0:	87aa                	mv	a5,a0
     dc2:	cb81                	beqz	a5,dd2 <mt9v03x_uart_callback_dvp+0x2c>
E:/沁恒/例程/Example/libraries/zf_device/zf_device_mt9v03x_dvp.c:182
        receive_num_dvp++;
     dc4:	82f1c783          	lbu	a5,-2001(gp) # 2000024f <receive_num_dvp>
     dc8:	0785                	addi	a5,a5,1
     dca:	0ff7f713          	andi	a4,a5,255
     dce:	82e187a3          	sb	a4,-2001(gp) # 2000024f <receive_num_dvp>
E:/沁恒/例程/Example/libraries/zf_device/zf_device_mt9v03x_dvp.c:184

    if(1 == receive_num_dvp && 0XA5!=receive_dvp[0])
     dd2:	82f1c703          	lbu	a4,-2001(gp) # 2000024f <receive_num_dvp>
     dd6:	4785                	li	a5,1
     dd8:	00f71a63          	bne	a4,a5,dec <mt9v03x_uart_callback_dvp+0x46>
E:/沁恒/例程/Example/libraries/zf_device/zf_device_mt9v03x_dvp.c:184 (discriminator 1)
     ddc:	82c1c703          	lbu	a4,-2004(gp) # 2000024c <receive_dvp>
     de0:	0a500793          	li	a5,165
     de4:	00f70463          	beq	a4,a5,dec <mt9v03x_uart_callback_dvp+0x46>
E:/沁恒/例程/Example/libraries/zf_device/zf_device_mt9v03x_dvp.c:185
        receive_num_dvp = 0;
     de8:	820187a3          	sb	zero,-2001(gp) # 2000024f <receive_num_dvp>
E:/沁恒/例程/Example/libraries/zf_device/zf_device_mt9v03x_dvp.c:186
    if(3 == receive_num_dvp)
     dec:	82f1c703          	lbu	a4,-2001(gp) # 2000024f <receive_num_dvp>
     df0:	478d                	li	a5,3
     df2:	00f71763          	bne	a4,a5,e00 <mt9v03x_uart_callback_dvp+0x5a>
E:/沁恒/例程/Example/libraries/zf_device/zf_device_mt9v03x_dvp.c:188
    {
        receive_num_dvp = 0;
     df6:	820187a3          	sb	zero,-2001(gp) # 2000024f <receive_num_dvp>
E:/沁恒/例程/Example/libraries/zf_device/zf_device_mt9v03x_dvp.c:189
        uart_receive_flag_dvp = 1;
     dfa:	4705                	li	a4,1
     dfc:	82e18823          	sb	a4,-2000(gp) # 20000250 <uart_receive_flag_dvp>
E:/沁恒/例程/Example/libraries/zf_device/zf_device_mt9v03x_dvp.c:191
    }
}
     e00:	0001                	nop
     e02:	40b2                	lw	ra,12(sp)
     e04:	4422                	lw	s0,8(sp)
     e06:	0141                	addi	sp,sp,16
     e08:	8082                	ret

00000e0a <mt9v03x_handler_dvp>:
mt9v03x_handler_dvp():
E:/沁恒/例程/Example/libraries/zf_device/zf_device_mt9v03x_dvp.c:306
//  @return     void
//  @since      v1.0
//  Sample usage:               在isr.c里面先创建对应的中断函数，然后调用该函数(之后别忘记清除中断标志位)
//-------------------------------------------------------------------------------------------------------------------
void mt9v03x_handler_dvp(void)
{
     e0a:	1141                	addi	sp,sp,-16
     e0c:	c622                	sw	s0,12(sp)
     e0e:	0800                	addi	s0,sp,16
E:/沁恒/例程/Example/libraries/zf_device/zf_device_mt9v03x_dvp.c:309
    //已经修改为循环采集模式。不需要设置地址和开启DVP
    //DVP->DMA_BUF0 = (uint32)camera_buffer_addr;       // 恢复DMA地址
    mt9v03x_finish_flag_dvp = 1;                        // 摄像头采集完成标志位置1
     e10:	4705                	li	a4,1
     e12:	82e18523          	sb	a4,-2006(gp) # 2000024a <mt9v03x_finish_flag_dvp>
E:/沁恒/例程/Example/libraries/zf_device/zf_device_mt9v03x_dvp.c:312
    //已经修改为循环采集模式。不需要设置地址和开启DVP
    //DVP->CR0 |= RB_DVP_ENABLE;                          // 重新打开DVP，采集下一副图像
}
     e16:	0001                	nop
     e18:	4432                	lw	s0,12(sp)
     e1a:	0141                	addi	sp,sp,16
     e1c:	8082                	ret

00000e1e <scc8660_uart_callback_dvp>:
scc8660_uart_callback_dvp():
E:/沁恒/例程/Example/libraries/zf_device/zf_device_scc8660_dvp.c:106
//  @since      v1.0
//  Sample usage:	
//  @note       该函数在SDK底层fsl_lpuart文件中的串口3中断函数内调用
//-------------------------------------------------------------------------------------------------------------------
void scc8660_uart_callback_dvp(void)
{
     e1e:	1141                	addi	sp,sp,-16
     e20:	c606                	sw	ra,12(sp)
     e22:	c422                	sw	s0,8(sp)
     e24:	0800                	addi	s0,sp,16
E:/沁恒/例程/Example/libraries/zf_device/zf_device_scc8660_dvp.c:107
    if(uart_query_byte(SCC8660_COF_UART_DVP, &scc8660_uart_receive_dvp[scc8660_uart_receive_num_dvp]))
     e26:	8371c783          	lbu	a5,-1993(gp) # 20000257 <scc8660_uart_receive_num_dvp>
     e2a:	873e                	mv	a4,a5
     e2c:	83418793          	addi	a5,gp,-1996 # 20000254 <scc8660_uart_receive_dvp>
     e30:	97ba                	add	a5,a5,a4
     e32:	85be                	mv	a1,a5
     e34:	4511                	li	a0,4
     e36:	3655                	jal	9da <uart_query_byte>
     e38:	87aa                	mv	a5,a0
     e3a:	cb81                	beqz	a5,e4a <scc8660_uart_callback_dvp+0x2c>
E:/沁恒/例程/Example/libraries/zf_device/zf_device_scc8660_dvp.c:108
        scc8660_uart_receive_num_dvp++;
     e3c:	8371c783          	lbu	a5,-1993(gp) # 20000257 <scc8660_uart_receive_num_dvp>
     e40:	0785                	addi	a5,a5,1
     e42:	0ff7f713          	andi	a4,a5,255
     e46:	82e18ba3          	sb	a4,-1993(gp) # 20000257 <scc8660_uart_receive_num_dvp>
E:/沁恒/例程/Example/libraries/zf_device/zf_device_scc8660_dvp.c:110

    if(1==scc8660_uart_receive_num_dvp && 0XA5!=scc8660_uart_receive_dvp[0])  scc8660_uart_receive_num_dvp = 0;
     e4a:	8371c703          	lbu	a4,-1993(gp) # 20000257 <scc8660_uart_receive_num_dvp>
     e4e:	4785                	li	a5,1
     e50:	00f71a63          	bne	a4,a5,e64 <scc8660_uart_callback_dvp+0x46>
E:/沁恒/例程/Example/libraries/zf_device/zf_device_scc8660_dvp.c:110 (discriminator 1)
     e54:	8341c703          	lbu	a4,-1996(gp) # 20000254 <scc8660_uart_receive_dvp>
     e58:	0a500793          	li	a5,165
     e5c:	00f70463          	beq	a4,a5,e64 <scc8660_uart_callback_dvp+0x46>
E:/沁恒/例程/Example/libraries/zf_device/zf_device_scc8660_dvp.c:110 (discriminator 2)
     e60:	82018ba3          	sb	zero,-1993(gp) # 20000257 <scc8660_uart_receive_num_dvp>
E:/沁恒/例程/Example/libraries/zf_device/zf_device_scc8660_dvp.c:111
    if(3 == scc8660_uart_receive_num_dvp)
     e64:	8371c703          	lbu	a4,-1993(gp) # 20000257 <scc8660_uart_receive_num_dvp>
     e68:	478d                	li	a5,3
     e6a:	00f71763          	bne	a4,a5,e78 <scc8660_uart_callback_dvp+0x5a>
E:/沁恒/例程/Example/libraries/zf_device/zf_device_scc8660_dvp.c:113
    {
        scc8660_uart_receive_num_dvp = 0;
     e6e:	82018ba3          	sb	zero,-1993(gp) # 20000257 <scc8660_uart_receive_num_dvp>
E:/沁恒/例程/Example/libraries/zf_device/zf_device_scc8660_dvp.c:114
        scc8660_uart_receive_flag_dvp = 1;
     e72:	4705                	li	a4,1
     e74:	82e18c23          	sb	a4,-1992(gp) # 20000258 <scc8660_uart_receive_flag_dvp>
E:/沁恒/例程/Example/libraries/zf_device/zf_device_scc8660_dvp.c:116
    }
}
     e78:	0001                	nop
     e7a:	40b2                	lw	ra,12(sp)
     e7c:	4422                	lw	s0,8(sp)
     e7e:	0141                	addi	sp,sp,16
     e80:	8082                	ret

00000e82 <scc8660_vsync_dvp>:
scc8660_vsync_dvp():
E:/沁恒/例程/Example/libraries/zf_device/zf_device_scc8660_dvp.c:452
//  @return     void
//  @since      v1.0
//  Sample usage:               在isr.c里面先创建对应的中断函数，然后调用该函数(之后别忘记清除中断标志位)
//-------------------------------------------------------------------------------------------------------------------
void scc8660_vsync_dvp(void)
{
     e82:	1141                	addi	sp,sp,-16
     e84:	c622                	sw	s0,12(sp)
     e86:	0800                	addi	s0,sp,16
E:/沁恒/例程/Example/libraries/zf_device/zf_device_scc8660_dvp.c:458
    //已经修改为循环采集模式。不需要设置地址和开启DVP
    //恢复DMA地址
    //DVP->DMA_BUF0 = (uint32)camera_buffer_addr;

    //采集完成标志位置1
    scc8660_finish_flag_dvp = 1;
     e88:	4705                	li	a4,1
     e8a:	82e18ca3          	sb	a4,-1991(gp) # 20000259 <scc8660_finish_flag_dvp>
E:/沁恒/例程/Example/libraries/zf_device/zf_device_scc8660_dvp.c:463

    //已经修改为循环采集模式。不需要设置地址和开启DVP
    //开启DVP
    //DVP->CR0 |= RB_DVP_ENABLE;
}
     e8e:	0001                	nop
     e90:	4432                	lw	s0,12(sp)
     e92:	0141                	addi	sp,sp,16
     e94:	8082                	ret

00000e96 <wireless_ch573_callback>:
wireless_ch573_callback():
E:/沁恒/例程/Example/libraries/zf_device/zf_device_wireless_ch573.c:37
// @return      void
// Sample usage:
// @note
//-------------------------------------------------------------------------------------------------------------------
void wireless_ch573_callback (void)
{
     e96:	1141                	addi	sp,sp,-16
     e98:	c606                	sw	ra,12(sp)
     e9a:	c422                	sw	s0,8(sp)
     e9c:	0800                	addi	s0,sp,16
E:/沁恒/例程/Example/libraries/zf_device/zf_device_wireless_ch573.c:38
    uart_query_byte(WIRELESS_CH573_INDEX, &wireless_ch573_data);
     e9e:	84418593          	addi	a1,gp,-1980 # 20000264 <wireless_ch573_data>
     ea2:	4505                	li	a0,1
     ea4:	3e1d                	jal	9da <uart_query_byte>
E:/沁恒/例程/Example/libraries/zf_device/zf_device_wireless_ch573.c:39
    fifo_write_buffer(&wireless_ch573_fifo, &wireless_ch573_data, 1);
     ea6:	4605                	li	a2,1
     ea8:	84418593          	addi	a1,gp,-1980 # 20000264 <wireless_ch573_data>
     eac:	8b018513          	addi	a0,gp,-1872 # 200002d0 <wireless_ch573_fifo>
     eb0:	21f5                	jal	139c <fifo_write_buffer>
E:/沁恒/例程/Example/libraries/zf_device/zf_device_wireless_ch573.c:41

}
     eb2:	0001                	nop
     eb4:	40b2                	lw	ra,12(sp)
     eb6:	4422                	lw	s0,8(sp)
     eb8:	0141                	addi	sp,sp,16
     eba:	8082                	ret

00000ebc <wireless_uart_callback>:
wireless_uart_callback():
E:/沁恒/例程/Example/libraries/zf_device/zf_device_wireless_uart.c:41
// @return      void
// Sample usage:
// @note
//-------------------------------------------------------------------------------------------------------------------
void wireless_uart_callback (void)
{
     ebc:	1141                	addi	sp,sp,-16
     ebe:	c606                	sw	ra,12(sp)
     ec0:	c422                	sw	s0,8(sp)
     ec2:	0800                	addi	s0,sp,16
E:/沁恒/例程/Example/libraries/zf_device/zf_device_wireless_uart.c:42
    uart_query_byte(WIRELESS_UART_INDEX, &wireless_uart_data);
     ec4:	84518593          	addi	a1,gp,-1979 # 20000265 <wireless_uart_data>
     ec8:	4505                	li	a0,1
     eca:	3e01                	jal	9da <uart_query_byte>
E:/沁恒/例程/Example/libraries/zf_device/zf_device_wireless_uart.c:43
    fifo_write_buffer(&wireless_uart_fifo, &wireless_uart_data, 1);
     ecc:	4605                	li	a2,1
     ece:	84518593          	addi	a1,gp,-1979 # 20000265 <wireless_uart_data>
     ed2:	8c418513          	addi	a0,gp,-1852 # 200002e4 <wireless_uart_fifo>
     ed6:	21d9                	jal	139c <fifo_write_buffer>
E:/沁恒/例程/Example/libraries/zf_device/zf_device_wireless_uart.c:51
    {
        wireless_auto_baud_flag = 3;
        fifo_read_buffer(&wireless_uart_fifo, (uint8 *)wireless_auto_baud_data, (uint32 *)&wireless_auto_baud_flag, FIFO_READ_AND_CLEAN);
    }
#endif
}
     ed8:	0001                	nop
     eda:	40b2                	lw	ra,12(sp)
     edc:	4422                	lw	s0,8(sp)
     ede:	0141                	addi	sp,sp,16
     ee0:	8082                	ret

00000ee2 <clock_init>:
clock_init():
E:/沁恒/例程/Example/libraries/zf_common/zf_common_clock.c:36
// @param       clock           时钟频率 推荐使用 zf_common_clock.h 中 system_clock_enum 定义的选项
// @return      void
// Sample usage:                clock_init(SYSTEM_CLOCK_144M);                   // 初始化核心时钟为 144MHz
//-------------------------------------------------------------------------------------------------------------------
void clock_init (uint32 clock)
{
     ee2:	1101                	addi	sp,sp,-32
     ee4:	ce06                	sw	ra,28(sp)
     ee6:	cc22                	sw	s0,24(sp)
     ee8:	1000                	addi	s0,sp,32
     eea:	fea42623          	sw	a0,-20(s0)
E:/沁恒/例程/Example/libraries/zf_common/zf_common_clock.c:37
    system_clock = clock;                                                       // 记录核心时钟频率
     eee:	fec42703          	lw	a4,-20(s0)
     ef2:	84e1a423          	sw	a4,-1976(gp) # 20000268 <system_clock>
E:/沁恒/例程/Example/libraries/zf_common/zf_common_clock.c:38
    clock_reset();
     ef6:	2819                	jal	f0c <clock_reset>
E:/沁恒/例程/Example/libraries/zf_common/zf_common_clock.c:39
    clock_set_freq(clock);
     ef8:	fec42503          	lw	a0,-20(s0)
     efc:	2059                	jal	f82 <clock_set_freq>
E:/沁恒/例程/Example/libraries/zf_common/zf_common_clock.c:40
    interrupt_init();
     efe:	7ae000ef          	jal	ra,16ac <interrupt_init>
E:/沁恒/例程/Example/libraries/zf_common/zf_common_clock.c:41
}
     f02:	0001                	nop
     f04:	40f2                	lw	ra,28(sp)
     f06:	4462                	lw	s0,24(sp)
     f08:	6105                	addi	sp,sp,32
     f0a:	8082                	ret

00000f0c <clock_reset>:
clock_reset():
E:/沁恒/例程/Example/libraries/zf_common/zf_common_clock.c:49
// @brief       核心时钟恢复初始设置 内部调用
// @param       void
// @return      void
//-------------------------------------------------------------------------------------------------------------------
static void clock_reset (void)
{
     f0c:	1141                	addi	sp,sp,-16
     f0e:	c622                	sw	s0,12(sp)
     f10:	0800                	addi	s0,sp,16
E:/沁恒/例程/Example/libraries/zf_common/zf_common_clock.c:50
    RCC->CTLR |= (uint32)0x00000001;      //使能HSI振荡器
     f12:	400217b7          	lui	a5,0x40021
     f16:	4398                	lw	a4,0(a5)
     f18:	400217b7          	lui	a5,0x40021
     f1c:	00176713          	ori	a4,a4,1
     f20:	c398                	sw	a4,0(a5)
E:/沁恒/例程/Example/libraries/zf_common/zf_common_clock.c:51
    RCC->CFGR0 &= (uint32)0xF8FF0000;
     f22:	400217b7          	lui	a5,0x40021
     f26:	43d4                	lw	a3,4(a5)
     f28:	400217b7          	lui	a5,0x40021
     f2c:	f8ff0737          	lui	a4,0xf8ff0
     f30:	8f75                	and	a4,a4,a3
     f32:	c3d8                	sw	a4,4(a5)
E:/沁恒/例程/Example/libraries/zf_common/zf_common_clock.c:52
    RCC->CTLR &= (uint32)0xFEF6FFFF;
     f34:	400217b7          	lui	a5,0x40021
     f38:	4394                	lw	a3,0(a5)
     f3a:	400217b7          	lui	a5,0x40021
     f3e:	fef70737          	lui	a4,0xfef70
     f42:	177d                	addi	a4,a4,-1
     f44:	8f75                	and	a4,a4,a3
     f46:	c398                	sw	a4,0(a5)
E:/沁恒/例程/Example/libraries/zf_common/zf_common_clock.c:53
    RCC->CTLR &= (uint32)0xFFFBFFFF;
     f48:	400217b7          	lui	a5,0x40021
     f4c:	4394                	lw	a3,0(a5)
     f4e:	400217b7          	lui	a5,0x40021
     f52:	fffc0737          	lui	a4,0xfffc0
     f56:	177d                	addi	a4,a4,-1
     f58:	8f75                	and	a4,a4,a3
     f5a:	c398                	sw	a4,0(a5)
E:/沁恒/例程/Example/libraries/zf_common/zf_common_clock.c:54
    RCC->CFGR0 &= (uint32)0xFF80FFFF;
     f5c:	400217b7          	lui	a5,0x40021
     f60:	43d4                	lw	a3,4(a5)
     f62:	400217b7          	lui	a5,0x40021
     f66:	ff810737          	lui	a4,0xff810
     f6a:	177d                	addi	a4,a4,-1
     f6c:	8f75                	and	a4,a4,a3
     f6e:	c3d8                	sw	a4,4(a5)
E:/沁恒/例程/Example/libraries/zf_common/zf_common_clock.c:55
    RCC->INTR = 0x009F0000;                 // 禁用所有中断并清除挂起位
     f70:	400217b7          	lui	a5,0x40021
     f74:	009f0737          	lui	a4,0x9f0
     f78:	c798                	sw	a4,8(a5)
E:/沁恒/例程/Example/libraries/zf_common/zf_common_clock.c:56
}
     f7a:	0001                	nop
     f7c:	4432                	lw	s0,12(sp)
     f7e:	0141                	addi	sp,sp,16
     f80:	8082                	ret

00000f82 <clock_set_freq>:
clock_set_freq():
E:/沁恒/例程/Example/libraries/zf_common/zf_common_clock.c:66
// @brief       核心时钟设置
// @param       clock           时钟频率 推荐使用 zf_common_clock.h 中 system_clock_enum 定义的选项
// @return      void
//-------------------------------------------------------------------------------------------------------------------
static void clock_set_freq (uint32 clock)
{
     f82:	7179                	addi	sp,sp,-48
     f84:	d622                	sw	s0,44(sp)
     f86:	1800                	addi	s0,sp,48
     f88:	fca42e23          	sw	a0,-36(s0)
E:/沁恒/例程/Example/libraries/zf_common/zf_common_clock.c:67
    __IO uint32 StartUpCounter = 0, HSEStatus = 0;
     f8c:	fe042623          	sw	zero,-20(s0)
     f90:	fe042423          	sw	zero,-24(s0)
E:/沁恒/例程/Example/libraries/zf_common/zf_common_clock.c:69

    RCC->CTLR |= ((uint32)RCC_HSEON);
     f94:	400217b7          	lui	a5,0x40021
     f98:	4394                	lw	a3,0(a5)
     f9a:	400217b7          	lui	a5,0x40021
     f9e:	6741                	lui	a4,0x10
     fa0:	8f55                	or	a4,a4,a3
     fa2:	c398                	sw	a4,0(a5)
E:/沁恒/例程/Example/libraries/zf_common/zf_common_clock.c:74 (discriminator 2)

    /* Wait till HSE is ready and if Time out is reached exit */
    do
    {
        HSEStatus = RCC->CTLR & RCC_HSERDY;
     fa4:	400217b7          	lui	a5,0x40021
     fa8:	4398                	lw	a4,0(a5)
     faa:	000207b7          	lui	a5,0x20
     fae:	8ff9                	and	a5,a5,a4
     fb0:	fef42423          	sw	a5,-24(s0)
E:/沁恒/例程/Example/libraries/zf_common/zf_common_clock.c:75 (discriminator 2)
        StartUpCounter++;
     fb4:	fec42783          	lw	a5,-20(s0)
     fb8:	0785                	addi	a5,a5,1
     fba:	fef42623          	sw	a5,-20(s0)
E:/沁恒/例程/Example/libraries/zf_common/zf_common_clock.c:76 (discriminator 2)
    } while((HSEStatus == 0) && (StartUpCounter != HSE_STARTUP_TIMEOUT));
     fbe:	fe842783          	lw	a5,-24(s0)
     fc2:	e799                	bnez	a5,fd0 <clock_set_freq+0x4e>
E:/沁恒/例程/Example/libraries/zf_common/zf_common_clock.c:76 (discriminator 1)
     fc4:	fec42703          	lw	a4,-20(s0)
     fc8:	50000793          	li	a5,1280
     fcc:	fcf71ce3          	bne	a4,a5,fa4 <clock_set_freq+0x22>
E:/沁恒/例程/Example/libraries/zf_common/zf_common_clock.c:78

    if ((RCC->CTLR & RCC_HSERDY) != RESET)
     fd0:	400217b7          	lui	a5,0x40021
     fd4:	4398                	lw	a4,0(a5)
     fd6:	000207b7          	lui	a5,0x20
     fda:	8ff9                	and	a5,a5,a4
     fdc:	c789                	beqz	a5,fe6 <clock_set_freq+0x64>
E:/沁恒/例程/Example/libraries/zf_common/zf_common_clock.c:80
    {
        HSEStatus = (uint32)0x01;
     fde:	4785                	li	a5,1
     fe0:	fef42423          	sw	a5,-24(s0)
     fe4:	a019                	j	fea <clock_set_freq+0x68>
E:/沁恒/例程/Example/libraries/zf_common/zf_common_clock.c:84
    }
    else
    {
        HSEStatus = (uint32)0x00;
     fe6:	fe042423          	sw	zero,-24(s0)
E:/沁恒/例程/Example/libraries/zf_common/zf_common_clock.c:87
    }

    if (HSEStatus == (uint32)0x01)
     fea:	fe842703          	lw	a4,-24(s0)
     fee:	4785                	li	a5,1
     ff0:	1ef71563          	bne	a4,a5,11da <clock_set_freq+0x258>
E:/沁恒/例程/Example/libraries/zf_common/zf_common_clock.c:90
    {
        /* Enable Prefetch Buffer */
        FLASH->ACTLR |= FLASH_ACTLR_PRFTBE;
     ff4:	400227b7          	lui	a5,0x40022
     ff8:	4398                	lw	a4,0(a5)
     ffa:	400227b7          	lui	a5,0x40022
     ffe:	01076713          	ori	a4,a4,16
    1002:	c398                	sw	a4,0(a5)
E:/沁恒/例程/Example/libraries/zf_common/zf_common_clock.c:93

        /* Flash wait state */
        FLASH->ACTLR &= (uint32)((uint32)~FLASH_ACTLR_LATENCY);
    1004:	400227b7          	lui	a5,0x40022
    1008:	4398                	lw	a4,0(a5)
    100a:	400227b7          	lui	a5,0x40022
    100e:	9b71                	andi	a4,a4,-4
    1010:	c398                	sw	a4,0(a5)
E:/沁恒/例程/Example/libraries/zf_common/zf_common_clock.c:95

        FLASH->ACTLR |= (((clock-1)/24000000)&0x07);
    1012:	400227b7          	lui	a5,0x40022
    1016:	4394                	lw	a3,0(a5)
    1018:	fdc42783          	lw	a5,-36(s0)
    101c:	fff78713          	addi	a4,a5,-1 # 40021fff <_eusrstack+0x20011fff>
    1020:	016e37b7          	lui	a5,0x16e3
    1024:	60078793          	addi	a5,a5,1536 # 16e3600 <_data_lma+0x16da73c>
    1028:	02f757b3          	divu	a5,a4,a5
    102c:	0077f713          	andi	a4,a5,7
    1030:	400227b7          	lui	a5,0x40022
    1034:	8f55                	or	a4,a4,a3
    1036:	c398                	sw	a4,0(a5)
E:/沁恒/例程/Example/libraries/zf_common/zf_common_clock.c:98

        /* HCLK = SYSCLK */
        RCC->CFGR0 |= (uint32)RCC_HPRE_DIV1;
    1038:	40021737          	lui	a4,0x40021
    103c:	400217b7          	lui	a5,0x40021
    1040:	4358                	lw	a4,4(a4)
    1042:	c3d8                	sw	a4,4(a5)
E:/沁恒/例程/Example/libraries/zf_common/zf_common_clock.c:100
        /* PCLK2 = HCLK */
        RCC->CFGR0 |= (uint32)RCC_PPRE2_DIV1;
    1044:	40021737          	lui	a4,0x40021
    1048:	400217b7          	lui	a5,0x40021
    104c:	4358                	lw	a4,4(a4)
    104e:	c3d8                	sw	a4,4(a5)
E:/沁恒/例程/Example/libraries/zf_common/zf_common_clock.c:102
        /* PCLK1 = HCLK */
        RCC->CFGR0 |= (uint32)RCC_PPRE1_DIV1;
    1050:	40021737          	lui	a4,0x40021
    1054:	400217b7          	lui	a5,0x40021
    1058:	4358                	lw	a4,4(a4)
    105a:	c3d8                	sw	a4,4(a5)
E:/沁恒/例程/Example/libraries/zf_common/zf_common_clock.c:105


        if(clock == SYSTEM_CLOCK_XTAL)
    105c:	fdc42703          	lw	a4,-36(s0)
    1060:	007a17b7          	lui	a5,0x7a1
    1064:	20078793          	addi	a5,a5,512 # 7a1200 <_data_lma+0x79833c>
    1068:	02f71b63          	bne	a4,a5,109e <clock_set_freq+0x11c>
E:/沁恒/例程/Example/libraries/zf_common/zf_common_clock.c:108
        {
            /* Select HSE as system clock source */
            RCC->CFGR0 &= (uint32)((uint32)~(RCC_SW));
    106c:	400217b7          	lui	a5,0x40021
    1070:	43d8                	lw	a4,4(a5)
    1072:	400217b7          	lui	a5,0x40021
    1076:	9b71                	andi	a4,a4,-4
    1078:	c3d8                	sw	a4,4(a5)
E:/沁恒/例程/Example/libraries/zf_common/zf_common_clock.c:109
            RCC->CFGR0 |= (uint32)RCC_SW_HSE;
    107a:	400217b7          	lui	a5,0x40021
    107e:	43d8                	lw	a4,4(a5)
    1080:	400217b7          	lui	a5,0x40021
    1084:	00176713          	ori	a4,a4,1
    1088:	c3d8                	sw	a4,4(a5)
E:/沁恒/例程/Example/libraries/zf_common/zf_common_clock.c:111
            /* Wait till HSE is used as system clock source */
            while ((RCC->CFGR0 & (uint32)RCC_SWS) != (uint32)0x04)
    108a:	0001                	nop
E:/沁恒/例程/Example/libraries/zf_common/zf_common_clock.c:111 (discriminator 1)
    108c:	400217b7          	lui	a5,0x40021
    1090:	43dc                	lw	a5,4(a5)
    1092:	00c7f713          	andi	a4,a5,12
    1096:	4791                	li	a5,4
    1098:	fef71ae3          	bne	a4,a5,108c <clock_set_freq+0x10a>
E:/沁恒/例程/Example/libraries/zf_common/zf_common_clock.c:161
        /*
        * If HSE fails to start-up, the application will have wrong clock
        * configuration. User can add here some code to deal with this error
        */
    }
}
    109c:	a281                	j	11dc <clock_set_freq+0x25a>
E:/沁恒/例程/Example/libraries/zf_common/zf_common_clock.c:118
            RCC->CFGR0 &= (uint32)((uint32)~(RCC_PLLSRC | RCC_PLLXTPRE | RCC_PLLMULL));
    109e:	400217b7          	lui	a5,0x40021
    10a2:	43d4                	lw	a3,4(a5)
    10a4:	400217b7          	lui	a5,0x40021
    10a8:	ffc10737          	lui	a4,0xffc10
    10ac:	177d                	addi	a4,a4,-1
    10ae:	8f75                	and	a4,a4,a3
    10b0:	c3d8                	sw	a4,4(a5)
E:/沁恒/例程/Example/libraries/zf_common/zf_common_clock.c:120
            if(clock == SYSTEM_CLOCK_144M)
    10b2:	fdc42703          	lw	a4,-36(s0)
    10b6:	089547b7          	lui	a5,0x8954
    10ba:	40078793          	addi	a5,a5,1024 # 8954400 <_data_lma+0x894b53c>
    10be:	00f71b63          	bne	a4,a5,10d4 <clock_set_freq+0x152>
E:/沁恒/例程/Example/libraries/zf_common/zf_common_clock.c:121
            RCC->CFGR0 |= (uint32)(RCC_PLLSRC_HSE | RCC_PLLXTPRE_HSE | RCC_PLLMULL18_EXTEN);
    10c2:	400217b7          	lui	a5,0x40021
    10c6:	43d4                	lw	a3,4(a5)
    10c8:	400217b7          	lui	a5,0x40021
    10cc:	6741                	lui	a4,0x10
    10ce:	8f55                	or	a4,a4,a3
    10d0:	c3d8                	sw	a4,4(a5)
    10d2:	a855                	j	1186 <clock_set_freq+0x204>
E:/沁恒/例程/Example/libraries/zf_common/zf_common_clock.c:122
            else if(clock == SYSTEM_CLOCK_120M)
    10d4:	fdc42703          	lw	a4,-36(s0)
    10d8:	072717b7          	lui	a5,0x7271
    10dc:	e0078793          	addi	a5,a5,-512 # 7270e00 <_data_lma+0x7267f3c>
    10e0:	00f71c63          	bne	a4,a5,10f8 <clock_set_freq+0x176>
E:/沁恒/例程/Example/libraries/zf_common/zf_common_clock.c:123
            RCC->CFGR0 |= (uint32)(RCC_PLLSRC_HSE | RCC_PLLXTPRE_HSE | RCC_PLLMULL15_EXTEN);
    10e4:	400217b7          	lui	a5,0x40021
    10e8:	43d4                	lw	a3,4(a5)
    10ea:	400217b7          	lui	a5,0x40021
    10ee:	00390737          	lui	a4,0x390
    10f2:	8f55                	or	a4,a4,a3
    10f4:	c3d8                	sw	a4,4(a5)
    10f6:	a841                	j	1186 <clock_set_freq+0x204>
E:/沁恒/例程/Example/libraries/zf_common/zf_common_clock.c:124
            else if(clock == SYSTEM_CLOCK_96M)
    10f8:	fdc42703          	lw	a4,-36(s0)
    10fc:	05b8e7b7          	lui	a5,0x5b8e
    1100:	80078793          	addi	a5,a5,-2048 # 5b8d800 <_data_lma+0x5b8493c>
    1104:	00f71c63          	bne	a4,a5,111c <clock_set_freq+0x19a>
E:/沁恒/例程/Example/libraries/zf_common/zf_common_clock.c:125
            RCC->CFGR0 |= (uint32)(RCC_PLLSRC_HSE | RCC_PLLXTPRE_HSE | RCC_PLLMULL12_EXTEN);
    1108:	400217b7          	lui	a5,0x40021
    110c:	43d4                	lw	a3,4(a5)
    110e:	400217b7          	lui	a5,0x40021
    1112:	00290737          	lui	a4,0x290
    1116:	8f55                	or	a4,a4,a3
    1118:	c3d8                	sw	a4,4(a5)
    111a:	a0b5                	j	1186 <clock_set_freq+0x204>
E:/沁恒/例程/Example/libraries/zf_common/zf_common_clock.c:126
            else if(clock == SYSTEM_CLOCK_72M)
    111c:	fdc42703          	lw	a4,-36(s0)
    1120:	044aa7b7          	lui	a5,0x44aa
    1124:	20078793          	addi	a5,a5,512 # 44aa200 <_data_lma+0x44a133c>
    1128:	00f71c63          	bne	a4,a5,1140 <clock_set_freq+0x1be>
E:/沁恒/例程/Example/libraries/zf_common/zf_common_clock.c:127
            RCC->CFGR0 |= (uint32)(RCC_PLLSRC_HSE | RCC_PLLXTPRE_HSE | RCC_PLLMULL9_EXTEN);
    112c:	400217b7          	lui	a5,0x40021
    1130:	43d4                	lw	a3,4(a5)
    1132:	400217b7          	lui	a5,0x40021
    1136:	001d0737          	lui	a4,0x1d0
    113a:	8f55                	or	a4,a4,a3
    113c:	c3d8                	sw	a4,4(a5)
    113e:	a0a1                	j	1186 <clock_set_freq+0x204>
E:/沁恒/例程/Example/libraries/zf_common/zf_common_clock.c:128
            else if(clock == SYSTEM_CLOCK_48M)
    1140:	fdc42703          	lw	a4,-36(s0)
    1144:	02dc77b7          	lui	a5,0x2dc7
    1148:	c0078793          	addi	a5,a5,-1024 # 2dc6c00 <_data_lma+0x2dbdd3c>
    114c:	00f71c63          	bne	a4,a5,1164 <clock_set_freq+0x1e2>
E:/沁恒/例程/Example/libraries/zf_common/zf_common_clock.c:129
            RCC->CFGR0 |= (uint32)(RCC_PLLSRC_HSE | RCC_PLLXTPRE_HSE | RCC_PLLMULL6_EXTEN);
    1150:	400217b7          	lui	a5,0x40021
    1154:	43d4                	lw	a3,4(a5)
    1156:	400217b7          	lui	a5,0x40021
    115a:	00110737          	lui	a4,0x110
    115e:	8f55                	or	a4,a4,a3
    1160:	c3d8                	sw	a4,4(a5)
    1162:	a015                	j	1186 <clock_set_freq+0x204>
E:/沁恒/例程/Example/libraries/zf_common/zf_common_clock.c:130
            else if(clock == SYSTEM_CLOCK_24M)
    1164:	fdc42703          	lw	a4,-36(s0)
    1168:	016e37b7          	lui	a5,0x16e3
    116c:	60078793          	addi	a5,a5,1536 # 16e3600 <_data_lma+0x16da73c>
    1170:	00f71b63          	bne	a4,a5,1186 <clock_set_freq+0x204>
E:/沁恒/例程/Example/libraries/zf_common/zf_common_clock.c:131
            RCC->CFGR0 |= (uint32)(RCC_PLLSRC_HSE | RCC_PLLXTPRE_HSE | RCC_PLLMULL3_EXTEN);
    1174:	400217b7          	lui	a5,0x40021
    1178:	43d4                	lw	a3,4(a5)
    117a:	400217b7          	lui	a5,0x40021
    117e:	00050737          	lui	a4,0x50
    1182:	8f55                	or	a4,a4,a3
    1184:	c3d8                	sw	a4,4(a5)
E:/沁恒/例程/Example/libraries/zf_common/zf_common_clock.c:138
            RCC->CTLR |= RCC_PLLON;
    1186:	400217b7          	lui	a5,0x40021
    118a:	4394                	lw	a3,0(a5)
    118c:	400217b7          	lui	a5,0x40021
    1190:	01000737          	lui	a4,0x1000
    1194:	8f55                	or	a4,a4,a3
    1196:	c398                	sw	a4,0(a5)
E:/沁恒/例程/Example/libraries/zf_common/zf_common_clock.c:140
            while((RCC->CTLR & RCC_PLLRDY) == 0)
    1198:	0001                	nop
E:/沁恒/例程/Example/libraries/zf_common/zf_common_clock.c:140 (discriminator 1)
    119a:	400217b7          	lui	a5,0x40021
    119e:	4398                	lw	a4,0(a5)
    11a0:	020007b7          	lui	a5,0x2000
    11a4:	8ff9                	and	a5,a5,a4
    11a6:	dbf5                	beqz	a5,119a <clock_set_freq+0x218>
E:/沁恒/例程/Example/libraries/zf_common/zf_common_clock.c:144
            RCC->CFGR0 &= (uint32)((uint32)~(RCC_SW));
    11a8:	400217b7          	lui	a5,0x40021
    11ac:	43d8                	lw	a4,4(a5)
    11ae:	400217b7          	lui	a5,0x40021
    11b2:	9b71                	andi	a4,a4,-4
    11b4:	c3d8                	sw	a4,4(a5)
E:/沁恒/例程/Example/libraries/zf_common/zf_common_clock.c:145
            RCC->CFGR0 |= (uint32)RCC_SW_PLL;
    11b6:	400217b7          	lui	a5,0x40021
    11ba:	43d8                	lw	a4,4(a5)
    11bc:	400217b7          	lui	a5,0x40021
    11c0:	00276713          	ori	a4,a4,2
    11c4:	c3d8                	sw	a4,4(a5)
E:/沁恒/例程/Example/libraries/zf_common/zf_common_clock.c:147
            while ((RCC->CFGR0 & (uint32)RCC_SWS) != (uint32)0x08)
    11c6:	0001                	nop
E:/沁恒/例程/Example/libraries/zf_common/zf_common_clock.c:147 (discriminator 1)
    11c8:	400217b7          	lui	a5,0x40021
    11cc:	43dc                	lw	a5,4(a5)
    11ce:	00c7f713          	andi	a4,a5,12
    11d2:	47a1                	li	a5,8
    11d4:	fef71ae3          	bne	a4,a5,11c8 <clock_set_freq+0x246>
E:/沁恒/例程/Example/libraries/zf_common/zf_common_clock.c:161
}
    11d8:	a011                	j	11dc <clock_set_freq+0x25a>
E:/沁恒/例程/Example/libraries/zf_common/zf_common_clock.c:155 (discriminator 2)
        while(1);           // 外部晶振不稳定或缺失 时钟设置失败
    11da:	a001                	j	11da <clock_set_freq+0x258>
E:/沁恒/例程/Example/libraries/zf_common/zf_common_clock.c:161
}
    11dc:	5432                	lw	s0,44(sp)
    11de:	6145                	addi	sp,sp,48
    11e0:	8082                	ret

000011e2 <debug_init>:
debug_init():
E:/沁恒/例程/Example/libraries/zf_common/zf_common_debug.c:41
// @param       void
// @return      void
// Sample usage:
//-------------------------------------------------------------------------------------------------------------------
void debug_init (void)
{
    11e2:	1141                	addi	sp,sp,-16
    11e4:	c606                	sw	ra,12(sp)
    11e6:	c422                	sw	s0,8(sp)
    11e8:	0800                	addi	s0,sp,16
E:/沁恒/例程/Example/libraries/zf_common/zf_common_debug.c:48
//    GPIO_DeInit(GPIOB);
//    GPIO_DeInit(GPIOC);
//    GPIO_DeInit(GPIOD);
//    GPIO_DeInit(GPIOE);

    uart_init(
    11ea:	4685                	li	a3,1
    11ec:	4601                	li	a2,0
    11ee:	67f1                	lui	a5,0x1c
    11f0:	20078593          	addi	a1,a5,512 # 1c200 <_data_lma+0x1333c>
    11f4:	4501                	li	a0,0
    11f6:	843ff0ef          	jal	ra,a38 <uart_init>
E:/沁恒/例程/Example/libraries/zf_common/zf_common_debug.c:56
        DEBUG_UART_TX_PIN,                                                      // 在 zf_common_debug.h 中查看对应值
        DEBUG_UART_RX_PIN);                                                     // 在 zf_common_debug.h 中查看对应值

    if(DEBUG_UART_USE_INTERRUPT)                                                // 如果启用串口中断
    {
        uart_rx_interrupt(DEBUG_UART_INDEX, 1);                                 // 使能对应串口接收中断
    11fa:	4585                	li	a1,1
    11fc:	4501                	li	a0,0
    11fe:	f58ff0ef          	jal	ra,956 <uart_rx_interrupt>
E:/沁恒/例程/Example/libraries/zf_common/zf_common_debug.c:58
    }
    zf_debug_init_flag = 1;
    1202:	4705                	li	a4,1
    1204:	84e18623          	sb	a4,-1972(gp) # 2000026c <zf_debug_init_flag>
E:/沁恒/例程/Example/libraries/zf_common/zf_common_debug.c:59
}
    1208:	0001                	nop
    120a:	40b2                	lw	ra,12(sp)
    120c:	4422                	lw	s0,8(sp)
    120e:	0141                	addi	sp,sp,16
    1210:	8082                	ret

00001212 <_write>:
_write():
E:/沁恒/例程/Example/libraries/zf_common/zf_common_debug.c:159
//  @since      v1.0
//  Sample usage:              重定向printf到DEBUG串口上
//-------------------------------------------------------------------------------------------------------------------
#if (1 == PRINTF_ENABLE)
int _write(int fd, char *buf, int size)
{
    1212:	7179                	addi	sp,sp,-48
    1214:	d606                	sw	ra,44(sp)
    1216:	d422                	sw	s0,40(sp)
    1218:	1800                	addi	s0,sp,48
    121a:	fca42e23          	sw	a0,-36(s0)
    121e:	fcb42c23          	sw	a1,-40(s0)
    1222:	fcc42a23          	sw	a2,-44(s0)
E:/沁恒/例程/Example/libraries/zf_common/zf_common_debug.c:161
    int i;
    for(i=0; i<size; i++)
    1226:	fe042623          	sw	zero,-20(s0)
    122a:	a099                	j	1270 <_write+0x5e>
E:/沁恒/例程/Example/libraries/zf_common/zf_common_debug.c:163
    {
        while (USART_GetFlagStatus((USART_TypeDef*)uart_index[DEBUG_UART_INDEX], USART_FLAG_TC) == RESET);
    122c:	0001                	nop
E:/沁恒/例程/Example/libraries/zf_common/zf_common_debug.c:163 (discriminator 1)
    122e:	67a5                	lui	a5,0x9
    1230:	8947a783          	lw	a5,-1900(a5) # 8894 <uart_index>
    1234:	04000593          	li	a1,64
    1238:	853e                	mv	a0,a5
    123a:	25b010ef          	jal	ra,2c94 <USART_GetFlagStatus>
    123e:	87aa                	mv	a5,a0
    1240:	d7fd                	beqz	a5,122e <_write+0x1c>
E:/沁恒/例程/Example/libraries/zf_common/zf_common_debug.c:164 (discriminator 2)
        USART_SendData((USART_TypeDef*)uart_index[DEBUG_UART_INDEX], *buf++);
    1242:	67a5                	lui	a5,0x9
    1244:	8947a783          	lw	a5,-1900(a5) # 8894 <uart_index>
    1248:	86be                	mv	a3,a5
    124a:	fd842783          	lw	a5,-40(s0)
    124e:	00178713          	addi	a4,a5,1
    1252:	fce42c23          	sw	a4,-40(s0)
    1256:	00078783          	lb	a5,0(a5)
    125a:	07c2                	slli	a5,a5,0x10
    125c:	83c1                	srli	a5,a5,0x10
    125e:	85be                	mv	a1,a5
    1260:	8536                	mv	a0,a3
    1262:	205010ef          	jal	ra,2c66 <USART_SendData>
E:/沁恒/例程/Example/libraries/zf_common/zf_common_debug.c:161 (discriminator 2)
    for(i=0; i<size; i++)
    1266:	fec42783          	lw	a5,-20(s0)
    126a:	0785                	addi	a5,a5,1
    126c:	fef42623          	sw	a5,-20(s0)
E:/沁恒/例程/Example/libraries/zf_common/zf_common_debug.c:161 (discriminator 1)
    1270:	fec42703          	lw	a4,-20(s0)
    1274:	fd442783          	lw	a5,-44(s0)
    1278:	faf74ae3          	blt	a4,a5,122c <_write+0x1a>
E:/沁恒/例程/Example/libraries/zf_common/zf_common_debug.c:167

    }
    return size;
    127c:	fd442783          	lw	a5,-44(s0)
E:/沁恒/例程/Example/libraries/zf_common/zf_common_debug.c:168
}
    1280:	853e                	mv	a0,a5
    1282:	50b2                	lw	ra,44(sp)
    1284:	5422                	lw	s0,40(sp)
    1286:	6145                	addi	sp,sp,48
    1288:	8082                	ret

0000128a <fifo_init>:
fifo_init():
E:/沁恒/例程/Example/libraries/zf_common/zf_common_fifo.c:34
// @param       size            缓冲区大小
// @return      fifo_state_enum 操作状态
// Sample usage:
//-------------------------------------------------------------------------------------------------------------------
fifo_state_enum fifo_init (fifo_struct *fifo, uint8 *buffer_addr, uint32 size)
{
    128a:	1101                	addi	sp,sp,-32
    128c:	ce22                	sw	s0,28(sp)
    128e:	1000                	addi	s0,sp,32
    1290:	fea42623          	sw	a0,-20(s0)
    1294:	feb42423          	sw	a1,-24(s0)
    1298:	fec42223          	sw	a2,-28(s0)
E:/沁恒/例程/Example/libraries/zf_common/zf_common_fifo.c:35
    if(buffer_addr == NULL)
    129c:	fe842783          	lw	a5,-24(s0)
    12a0:	e399                	bnez	a5,12a6 <fifo_init+0x1c>
E:/沁恒/例程/Example/libraries/zf_common/zf_common_fifo.c:36
        return FIFO_BUFFER_NULL;
    12a2:	4785                	li	a5,1
    12a4:	a80d                	j	12d6 <fifo_init+0x4c>
E:/沁恒/例程/Example/libraries/zf_common/zf_common_fifo.c:37
    fifo->buffer    = buffer_addr;
    12a6:	fec42783          	lw	a5,-20(s0)
    12aa:	fe842703          	lw	a4,-24(s0)
    12ae:	c398                	sw	a4,0(a5)
E:/沁恒/例程/Example/libraries/zf_common/zf_common_fifo.c:38
    fifo->head      = 0;
    12b0:	fec42783          	lw	a5,-20(s0)
    12b4:	0007a223          	sw	zero,4(a5)
E:/沁恒/例程/Example/libraries/zf_common/zf_common_fifo.c:39
    fifo->end       = 0;
    12b8:	fec42783          	lw	a5,-20(s0)
    12bc:	0007a423          	sw	zero,8(a5)
E:/沁恒/例程/Example/libraries/zf_common/zf_common_fifo.c:40
    fifo->size      = size;
    12c0:	fec42783          	lw	a5,-20(s0)
    12c4:	fe442703          	lw	a4,-28(s0)
    12c8:	c7d8                	sw	a4,12(a5)
E:/沁恒/例程/Example/libraries/zf_common/zf_common_fifo.c:41
    fifo->max       = size;
    12ca:	fec42783          	lw	a5,-20(s0)
    12ce:	fe442703          	lw	a4,-28(s0)
    12d2:	cb98                	sw	a4,16(a5)
E:/沁恒/例程/Example/libraries/zf_common/zf_common_fifo.c:42
    return FIFO_SUCCESS;
    12d4:	4781                	li	a5,0
E:/沁恒/例程/Example/libraries/zf_common/zf_common_fifo.c:43
}
    12d6:	853e                	mv	a0,a5
    12d8:	4472                	lw	s0,28(sp)
    12da:	6105                	addi	sp,sp,32
    12dc:	8082                	ret

000012de <fifo_head_offset>:
fifo_head_offset():
E:/沁恒/例程/Example/libraries/zf_common/zf_common_fifo.c:53
// @param       offset          偏移量
// @return      void
// Sample usage:
//-------------------------------------------------------------------------------------------------------------------
void fifo_head_offset (fifo_struct *fifo, uint32 offset)
{
    12de:	1101                	addi	sp,sp,-32
    12e0:	ce22                	sw	s0,28(sp)
    12e2:	1000                	addi	s0,sp,32
    12e4:	fea42623          	sw	a0,-20(s0)
    12e8:	feb42423          	sw	a1,-24(s0)
E:/沁恒/例程/Example/libraries/zf_common/zf_common_fifo.c:54
    fifo->head += offset;
    12ec:	fec42783          	lw	a5,-20(s0)
    12f0:	43d8                	lw	a4,4(a5)
    12f2:	fe842783          	lw	a5,-24(s0)
    12f6:	973e                	add	a4,a4,a5
    12f8:	fec42783          	lw	a5,-20(s0)
    12fc:	c3d8                	sw	a4,4(a5)
E:/沁恒/例程/Example/libraries/zf_common/zf_common_fifo.c:56
    
    while(fifo->max <= fifo->head)                                              // 如果范围超过则减缓冲区大小 直到小于最大缓冲区大小
    12fe:	a819                	j	1314 <fifo_head_offset+0x36>
E:/沁恒/例程/Example/libraries/zf_common/zf_common_fifo.c:58
    {
        fifo->head -= fifo->max;
    1300:	fec42783          	lw	a5,-20(s0)
    1304:	43d8                	lw	a4,4(a5)
    1306:	fec42783          	lw	a5,-20(s0)
    130a:	4b9c                	lw	a5,16(a5)
    130c:	8f1d                	sub	a4,a4,a5
    130e:	fec42783          	lw	a5,-20(s0)
    1312:	c3d8                	sw	a4,4(a5)
E:/沁恒/例程/Example/libraries/zf_common/zf_common_fifo.c:56
    while(fifo->max <= fifo->head)                                              // 如果范围超过则减缓冲区大小 直到小于最大缓冲区大小
    1314:	fec42783          	lw	a5,-20(s0)
    1318:	4b98                	lw	a4,16(a5)
    131a:	fec42783          	lw	a5,-20(s0)
    131e:	43dc                	lw	a5,4(a5)
    1320:	fee7f0e3          	bgeu	a5,a4,1300 <fifo_head_offset+0x22>
E:/沁恒/例程/Example/libraries/zf_common/zf_common_fifo.c:60
    }
}
    1324:	0001                	nop
    1326:	4472                	lw	s0,28(sp)
    1328:	6105                	addi	sp,sp,32
    132a:	8082                	ret

0000132c <fifo_end_offset>:
fifo_end_offset():
E:/沁恒/例程/Example/libraries/zf_common/zf_common_fifo.c:70
// @param       offset          偏移量
// @return      void
// Sample usage:
//-------------------------------------------------------------------------------------------------------------------
void fifo_end_offset (fifo_struct *fifo, uint32 offset)
{
    132c:	1101                	addi	sp,sp,-32
    132e:	ce22                	sw	s0,28(sp)
    1330:	1000                	addi	s0,sp,32
    1332:	fea42623          	sw	a0,-20(s0)
    1336:	feb42423          	sw	a1,-24(s0)
E:/沁恒/例程/Example/libraries/zf_common/zf_common_fifo.c:71
    fifo->end += offset;
    133a:	fec42783          	lw	a5,-20(s0)
    133e:	4798                	lw	a4,8(a5)
    1340:	fe842783          	lw	a5,-24(s0)
    1344:	973e                	add	a4,a4,a5
    1346:	fec42783          	lw	a5,-20(s0)
    134a:	c798                	sw	a4,8(a5)
E:/沁恒/例程/Example/libraries/zf_common/zf_common_fifo.c:73
    
    while(fifo->max <= fifo->end)                                               // 如果范围超过则减缓冲区大小 直到小于最大缓冲区大小
    134c:	a819                	j	1362 <fifo_end_offset+0x36>
E:/沁恒/例程/Example/libraries/zf_common/zf_common_fifo.c:75
    {
        fifo->end -= fifo->max;
    134e:	fec42783          	lw	a5,-20(s0)
    1352:	4798                	lw	a4,8(a5)
    1354:	fec42783          	lw	a5,-20(s0)
    1358:	4b9c                	lw	a5,16(a5)
    135a:	8f1d                	sub	a4,a4,a5
    135c:	fec42783          	lw	a5,-20(s0)
    1360:	c798                	sw	a4,8(a5)
E:/沁恒/例程/Example/libraries/zf_common/zf_common_fifo.c:73
    while(fifo->max <= fifo->end)                                               // 如果范围超过则减缓冲区大小 直到小于最大缓冲区大小
    1362:	fec42783          	lw	a5,-20(s0)
    1366:	4b98                	lw	a4,16(a5)
    1368:	fec42783          	lw	a5,-20(s0)
    136c:	479c                	lw	a5,8(a5)
    136e:	fee7f0e3          	bgeu	a5,a4,134e <fifo_end_offset+0x22>
E:/沁恒/例程/Example/libraries/zf_common/zf_common_fifo.c:77
    }
}
    1372:	0001                	nop
    1374:	4472                	lw	s0,28(sp)
    1376:	6105                	addi	sp,sp,32
    1378:	8082                	ret

0000137a <fifo_used>:
fifo_used():
E:/沁恒/例程/Example/libraries/zf_common/zf_common_fifo.c:99
// @param       *fifo           FIFO 对象指针
// @return      void
// Sample usage:
//-------------------------------------------------------------------------------------------------------------------
uint32 fifo_used (fifo_struct *fifo)
{
    137a:	1101                	addi	sp,sp,-32
    137c:	ce22                	sw	s0,28(sp)
    137e:	1000                	addi	s0,sp,32
    1380:	fea42623          	sw	a0,-20(s0)
E:/沁恒/例程/Example/libraries/zf_common/zf_common_fifo.c:100
    return (fifo->max - fifo->size);
    1384:	fec42783          	lw	a5,-20(s0)
    1388:	4b98                	lw	a4,16(a5)
    138a:	fec42783          	lw	a5,-20(s0)
    138e:	47dc                	lw	a5,12(a5)
    1390:	40f707b3          	sub	a5,a4,a5
E:/沁恒/例程/Example/libraries/zf_common/zf_common_fifo.c:101
}
    1394:	853e                	mv	a0,a5
    1396:	4472                	lw	s0,28(sp)
    1398:	6105                	addi	sp,sp,32
    139a:	8082                	ret

0000139c <fifo_write_buffer>:
fifo_write_buffer():
E:/沁恒/例程/Example/libraries/zf_common/zf_common_fifo.c:112
// @param       length          需要写入的数据长度
// @return      fifo_state_enum 操作状态
// Sample usage:                if(fifo_write(&fifo,data,32)!=FIFO_SUCCESS) while(1);
//-------------------------------------------------------------------------------------------------------------------
fifo_state_enum fifo_write_buffer (fifo_struct *fifo, uint8 *dat, uint32 length)
{
    139c:	7179                	addi	sp,sp,-48
    139e:	d606                	sw	ra,44(sp)
    13a0:	d422                	sw	s0,40(sp)
    13a2:	1800                	addi	s0,sp,48
    13a4:	fca42e23          	sw	a0,-36(s0)
    13a8:	fcb42c23          	sw	a1,-40(s0)
    13ac:	fcc42a23          	sw	a2,-44(s0)
E:/沁恒/例程/Example/libraries/zf_common/zf_common_fifo.c:115
    uint32 temp_length;
    
    if(length < fifo->size)                                                     // 剩余空间足够装下本次数据
    13b0:	fdc42783          	lw	a5,-36(s0)
    13b4:	47dc                	lw	a5,12(a5)
    13b6:	fd442703          	lw	a4,-44(s0)
    13ba:	0cf77b63          	bgeu	a4,a5,1490 <fifo_write_buffer+0xf4>
E:/沁恒/例程/Example/libraries/zf_common/zf_common_fifo.c:117
    {
        interrupt_global_disable();
    13be:	262d                	jal	16e8 <interrupt_global_disable>
E:/沁恒/例程/Example/libraries/zf_common/zf_common_fifo.c:118
        temp_length = fifo->max - fifo->head;                                   // 计算头指针距离缓冲区尾还有多少空间
    13c0:	fdc42783          	lw	a5,-36(s0)
    13c4:	4b98                	lw	a4,16(a5)
    13c6:	fdc42783          	lw	a5,-36(s0)
    13ca:	43dc                	lw	a5,4(a5)
    13cc:	40f707b3          	sub	a5,a4,a5
    13d0:	fef42623          	sw	a5,-20(s0)
E:/沁恒/例程/Example/libraries/zf_common/zf_common_fifo.c:120

        if(length > temp_length)                                                // 距离缓冲区尾长度不足写入数据 环形缓冲区分段操作
    13d4:	fd442703          	lw	a4,-44(s0)
    13d8:	fec42783          	lw	a5,-20(s0)
    13dc:	06e7fb63          	bgeu	a5,a4,1452 <fifo_write_buffer+0xb6>
E:/沁恒/例程/Example/libraries/zf_common/zf_common_fifo.c:122
        {
            memcpy(&fifo->buffer[fifo->head], dat, temp_length);                // 拷贝第一段数据
    13e0:	fdc42783          	lw	a5,-36(s0)
    13e4:	4398                	lw	a4,0(a5)
    13e6:	fdc42783          	lw	a5,-36(s0)
    13ea:	43dc                	lw	a5,4(a5)
    13ec:	97ba                	add	a5,a5,a4
    13ee:	fec42603          	lw	a2,-20(s0)
    13f2:	fd842583          	lw	a1,-40(s0)
    13f6:	853e                	mv	a0,a5
    13f8:	336040ef          	jal	ra,572e <memcpy>
E:/沁恒/例程/Example/libraries/zf_common/zf_common_fifo.c:123
            fifo_head_offset(fifo, temp_length);                                // 头指针偏移
    13fc:	fec42583          	lw	a1,-20(s0)
    1400:	fdc42503          	lw	a0,-36(s0)
    1404:	3de9                	jal	12de <fifo_head_offset>
E:/沁恒/例程/Example/libraries/zf_common/zf_common_fifo.c:124
            dat += temp_length;                                                 // 读取缓冲偏移
    1406:	fd842703          	lw	a4,-40(s0)
    140a:	fec42783          	lw	a5,-20(s0)
    140e:	97ba                	add	a5,a5,a4
    1410:	fcf42c23          	sw	a5,-40(s0)
E:/沁恒/例程/Example/libraries/zf_common/zf_common_fifo.c:125
            memcpy(&fifo->buffer[fifo->head], dat, length - temp_length);       // 拷贝第一段数据
    1414:	fdc42783          	lw	a5,-36(s0)
    1418:	4398                	lw	a4,0(a5)
    141a:	fdc42783          	lw	a5,-36(s0)
    141e:	43dc                	lw	a5,4(a5)
    1420:	00f706b3          	add	a3,a4,a5
    1424:	fd442703          	lw	a4,-44(s0)
    1428:	fec42783          	lw	a5,-20(s0)
    142c:	40f707b3          	sub	a5,a4,a5
    1430:	863e                	mv	a2,a5
    1432:	fd842583          	lw	a1,-40(s0)
    1436:	8536                	mv	a0,a3
    1438:	2f6040ef          	jal	ra,572e <memcpy>
E:/沁恒/例程/Example/libraries/zf_common/zf_common_fifo.c:126
            fifo_head_offset(fifo, length - temp_length);                       // 头指针偏移
    143c:	fd442703          	lw	a4,-44(s0)
    1440:	fec42783          	lw	a5,-20(s0)
    1444:	40f707b3          	sub	a5,a4,a5
    1448:	85be                	mv	a1,a5
    144a:	fdc42503          	lw	a0,-36(s0)
    144e:	3d41                	jal	12de <fifo_head_offset>
    1450:	a025                	j	1478 <fifo_write_buffer+0xdc>
E:/沁恒/例程/Example/libraries/zf_common/zf_common_fifo.c:130
        }
        else
        {
            memcpy(&fifo->buffer[fifo->head], dat, length);                     // 一次完整写入
    1452:	fdc42783          	lw	a5,-36(s0)
    1456:	4398                	lw	a4,0(a5)
    1458:	fdc42783          	lw	a5,-36(s0)
    145c:	43dc                	lw	a5,4(a5)
    145e:	97ba                	add	a5,a5,a4
    1460:	fd442603          	lw	a2,-44(s0)
    1464:	fd842583          	lw	a1,-40(s0)
    1468:	853e                	mv	a0,a5
    146a:	2c4040ef          	jal	ra,572e <memcpy>
E:/沁恒/例程/Example/libraries/zf_common/zf_common_fifo.c:131
            fifo_head_offset(fifo, length);                                     // 头指针偏移
    146e:	fd442583          	lw	a1,-44(s0)
    1472:	fdc42503          	lw	a0,-36(s0)
    1476:	35a5                	jal	12de <fifo_head_offset>
E:/沁恒/例程/Example/libraries/zf_common/zf_common_fifo.c:134
        }

        fifo->size -= length;                                                   // 缓冲区剩余长度减小
    1478:	fdc42783          	lw	a5,-36(s0)
    147c:	47d8                	lw	a4,12(a5)
    147e:	fd442783          	lw	a5,-44(s0)
    1482:	8f1d                	sub	a4,a4,a5
    1484:	fdc42783          	lw	a5,-36(s0)
    1488:	c7d8                	sw	a4,12(a5)
E:/沁恒/例程/Example/libraries/zf_common/zf_common_fifo.c:135
        interrupt_global_enable();
    148a:	2c05                	jal	16ba <interrupt_global_enable>
E:/沁恒/例程/Example/libraries/zf_common/zf_common_fifo.c:142
    else
    {
        return FIFO_SPACE_NO_ENOUGH;
    }
    
    return FIFO_SUCCESS;
    148c:	4781                	li	a5,0
    148e:	a011                	j	1492 <fifo_write_buffer+0xf6>
E:/沁恒/例程/Example/libraries/zf_common/zf_common_fifo.c:139
        return FIFO_SPACE_NO_ENOUGH;
    1490:	4789                	li	a5,2
E:/沁恒/例程/Example/libraries/zf_common/zf_common_fifo.c:143
}
    1492:	853e                	mv	a0,a5
    1494:	50b2                	lw	ra,44(sp)
    1496:	5422                	lw	s0,40(sp)
    1498:	6145                	addi	sp,sp,48
    149a:	8082                	ret

0000149c <fifo_read_buffer>:
fifo_read_buffer():
E:/沁恒/例程/Example/libraries/zf_common/zf_common_fifo.c:155
// @param       flag            是否变更 FIFO 状态 可选择是否清空读取的数据
// @return      fifo_state_enum 操作状态
// Sample usage:                if(fifo_read(&fifo,data,32,FIFO_READ_ONLY)!=FIFO_SUCCESS) while(1);
//-------------------------------------------------------------------------------------------------------------------
fifo_state_enum fifo_read_buffer (fifo_struct *fifo, uint8 *dat, uint32 *length, fifo_operation_enum flag)
{
    149c:	7179                	addi	sp,sp,-48
    149e:	d606                	sw	ra,44(sp)
    14a0:	d422                	sw	s0,40(sp)
    14a2:	d226                	sw	s1,36(sp)
    14a4:	1800                	addi	s0,sp,48
    14a6:	fca42e23          	sw	a0,-36(s0)
    14aa:	fcb42c23          	sw	a1,-40(s0)
    14ae:	fcc42a23          	sw	a2,-44(s0)
    14b2:	fcd42823          	sw	a3,-48(s0)
E:/沁恒/例程/Example/libraries/zf_common/zf_common_fifo.c:156
    uint8 data_check = 0;
    14b6:	fe0407a3          	sb	zero,-17(s0)
E:/沁恒/例程/Example/libraries/zf_common/zf_common_fifo.c:159
    uint32 temp_length;

    if(*length > fifo_used(fifo))
    14ba:	fd442783          	lw	a5,-44(s0)
    14be:	4384                	lw	s1,0(a5)
    14c0:	fdc42503          	lw	a0,-36(s0)
    14c4:	3d5d                	jal	137a <fifo_used>
    14c6:	87aa                	mv	a5,a0
    14c8:	0097ff63          	bgeu	a5,s1,14e6 <fifo_read_buffer+0x4a>
E:/沁恒/例程/Example/libraries/zf_common/zf_common_fifo.c:161
    {
        *length = (fifo->max - fifo->size);                                     // 纠正读取的长度
    14cc:	fdc42783          	lw	a5,-36(s0)
    14d0:	4b98                	lw	a4,16(a5)
    14d2:	fdc42783          	lw	a5,-36(s0)
    14d6:	47dc                	lw	a5,12(a5)
    14d8:	8f1d                	sub	a4,a4,a5
    14da:	fd442783          	lw	a5,-44(s0)
    14de:	c398                	sw	a4,0(a5)
E:/沁恒/例程/Example/libraries/zf_common/zf_common_fifo.c:162
        data_check = 1;                                                         // 标志数据不够
    14e0:	4785                	li	a5,1
    14e2:	fef407a3          	sb	a5,-17(s0)
E:/沁恒/例程/Example/libraries/zf_common/zf_common_fifo.c:165
    }

    temp_length = fifo->max - fifo->end;                                        // 计算尾指针距离缓冲区尾还有多少空间
    14e6:	fdc42783          	lw	a5,-36(s0)
    14ea:	4b98                	lw	a4,16(a5)
    14ec:	fdc42783          	lw	a5,-36(s0)
    14f0:	479c                	lw	a5,8(a5)
    14f2:	40f707b3          	sub	a5,a4,a5
    14f6:	fef42423          	sw	a5,-24(s0)
E:/沁恒/例程/Example/libraries/zf_common/zf_common_fifo.c:166
    if(*length <= temp_length)                                                  // 足够一次性读取完毕
    14fa:	fd442783          	lw	a5,-44(s0)
    14fe:	439c                	lw	a5,0(a5)
    1500:	fe842703          	lw	a4,-24(s0)
    1504:	02f76663          	bltu	a4,a5,1530 <fifo_read_buffer+0x94>
E:/沁恒/例程/Example/libraries/zf_common/zf_common_fifo.c:168
    {
        if(NULL != dat)    memcpy(dat, &fifo->buffer[fifo->end], *length);      // 一次性读取完毕
    1508:	fd842783          	lw	a5,-40(s0)
    150c:	c7bd                	beqz	a5,157a <fifo_read_buffer+0xde>
E:/沁恒/例程/Example/libraries/zf_common/zf_common_fifo.c:168 (discriminator 1)
    150e:	fdc42783          	lw	a5,-36(s0)
    1512:	4398                	lw	a4,0(a5)
    1514:	fdc42783          	lw	a5,-36(s0)
    1518:	479c                	lw	a5,8(a5)
    151a:	973e                	add	a4,a4,a5
    151c:	fd442783          	lw	a5,-44(s0)
    1520:	439c                	lw	a5,0(a5)
    1522:	863e                	mv	a2,a5
    1524:	85ba                	mv	a1,a4
    1526:	fd842503          	lw	a0,-40(s0)
    152a:	204040ef          	jal	ra,572e <memcpy>
    152e:	a0b1                	j	157a <fifo_read_buffer+0xde>
E:/沁恒/例程/Example/libraries/zf_common/zf_common_fifo.c:172
    }
    else
    {
        if(NULL != dat)
    1530:	fd842783          	lw	a5,-40(s0)
    1534:	c3b9                	beqz	a5,157a <fifo_read_buffer+0xde>
E:/沁恒/例程/Example/libraries/zf_common/zf_common_fifo.c:174
        {
            memcpy(dat, &fifo->buffer[fifo->end], temp_length);                 // 拷贝第一段数据
    1536:	fdc42783          	lw	a5,-36(s0)
    153a:	4398                	lw	a4,0(a5)
    153c:	fdc42783          	lw	a5,-36(s0)
    1540:	479c                	lw	a5,8(a5)
    1542:	97ba                	add	a5,a5,a4
    1544:	fe842603          	lw	a2,-24(s0)
    1548:	85be                	mv	a1,a5
    154a:	fd842503          	lw	a0,-40(s0)
    154e:	1e0040ef          	jal	ra,572e <memcpy>
E:/沁恒/例程/Example/libraries/zf_common/zf_common_fifo.c:175
            memcpy(&dat[temp_length], &fifo->buffer[0], *length - temp_length); // 拷贝第二段数据
    1552:	fd842703          	lw	a4,-40(s0)
    1556:	fe842783          	lw	a5,-24(s0)
    155a:	00f706b3          	add	a3,a4,a5
    155e:	fdc42783          	lw	a5,-36(s0)
    1562:	438c                	lw	a1,0(a5)
    1564:	fd442783          	lw	a5,-44(s0)
    1568:	4398                	lw	a4,0(a5)
    156a:	fe842783          	lw	a5,-24(s0)
    156e:	40f707b3          	sub	a5,a4,a5
    1572:	863e                	mv	a2,a5
    1574:	8536                	mv	a0,a3
    1576:	1b8040ef          	jal	ra,572e <memcpy>
E:/沁恒/例程/Example/libraries/zf_common/zf_common_fifo.c:179
        }
    }
    
    if(flag == FIFO_READ_AND_CLEAN)                                             // 如果选择读取并更改 FIFO 状态
    157a:	fd042783          	lw	a5,-48(s0)
    157e:	e785                	bnez	a5,15a6 <fifo_read_buffer+0x10a>
E:/沁恒/例程/Example/libraries/zf_common/zf_common_fifo.c:181
    {
        interrupt_global_disable();
    1580:	22a5                	jal	16e8 <interrupt_global_disable>
E:/沁恒/例程/Example/libraries/zf_common/zf_common_fifo.c:182
        fifo_end_offset(fifo, *length);                                         // 移动 FIFO 头指针
    1582:	fd442783          	lw	a5,-44(s0)
    1586:	439c                	lw	a5,0(a5)
    1588:	85be                	mv	a1,a5
    158a:	fdc42503          	lw	a0,-36(s0)
    158e:	3b79                	jal	132c <fifo_end_offset>
E:/沁恒/例程/Example/libraries/zf_common/zf_common_fifo.c:183
        fifo->size += *length;                                                  
    1590:	fdc42783          	lw	a5,-36(s0)
    1594:	47d8                	lw	a4,12(a5)
    1596:	fd442783          	lw	a5,-44(s0)
    159a:	439c                	lw	a5,0(a5)
    159c:	973e                	add	a4,a4,a5
    159e:	fdc42783          	lw	a5,-36(s0)
    15a2:	c7d8                	sw	a4,12(a5)
E:/沁恒/例程/Example/libraries/zf_common/zf_common_fifo.c:184
        interrupt_global_enable();
    15a4:	2a19                	jal	16ba <interrupt_global_enable>
E:/沁恒/例程/Example/libraries/zf_common/zf_common_fifo.c:187
    }

    return (data_check?FIFO_DATA_NO_ENOUGH:FIFO_SUCCESS);
    15a6:	fef44783          	lbu	a5,-17(s0)
    15aa:	c399                	beqz	a5,15b0 <fifo_read_buffer+0x114>
E:/沁恒/例程/Example/libraries/zf_common/zf_common_fifo.c:187 (discriminator 1)
    15ac:	478d                	li	a5,3
    15ae:	a011                	j	15b2 <fifo_read_buffer+0x116>
E:/沁恒/例程/Example/libraries/zf_common/zf_common_fifo.c:187 (discriminator 2)
    15b0:	4781                	li	a5,0
E:/沁恒/例程/Example/libraries/zf_common/zf_common_fifo.c:188 (discriminator 5)
}
    15b2:	853e                	mv	a0,a5
    15b4:	50b2                	lw	ra,44(sp)
    15b6:	5422                	lw	s0,40(sp)
    15b8:	5492                	lw	s1,36(sp)
    15ba:	6145                	addi	sp,sp,48
    15bc:	8082                	ret

000015be <NVIC_EnableIRQ>:
NVIC_EnableIRQ():
E:\沁恒\例程\Example\libraries\sdk\Core/core_riscv.h:129
* Function Name  : NVIC_EnableIRQ
* Description    : Enable Interrupt
* Input          : IRQn: Interrupt Numbers
* Return         : None
*******************************************************************************/
RV_STATIC_INLINE void NVIC_EnableIRQ(IRQn_Type IRQn){
    15be:	1101                	addi	sp,sp,-32
    15c0:	ce22                	sw	s0,28(sp)
    15c2:	1000                	addi	s0,sp,32
    15c4:	fea42623          	sw	a0,-20(s0)
E:\沁恒\例程\Example\libraries\sdk\Core/core_riscv.h:130
  NVIC->IENR[((uint32_t)(IRQn) >> 5)] = (1 << ((uint32_t)(IRQn) & 0x1F));
    15c8:	fec42783          	lw	a5,-20(s0)
    15cc:	8bfd                	andi	a5,a5,31
    15ce:	4705                	li	a4,1
    15d0:	00f716b3          	sll	a3,a4,a5
    15d4:	e000e737          	lui	a4,0xe000e
    15d8:	fec42783          	lw	a5,-20(s0)
    15dc:	8395                	srli	a5,a5,0x5
    15de:	04078793          	addi	a5,a5,64
    15e2:	078a                	slli	a5,a5,0x2
    15e4:	97ba                	add	a5,a5,a4
    15e6:	c394                	sw	a3,0(a5)
E:\沁恒\例程\Example\libraries\sdk\Core/core_riscv.h:131
}
    15e8:	0001                	nop
    15ea:	4472                	lw	s0,28(sp)
    15ec:	6105                	addi	sp,sp,32
    15ee:	8082                	ret

000015f0 <NVIC_DisableIRQ>:
NVIC_DisableIRQ():
E:\沁恒\例程\Example\libraries\sdk\Core/core_riscv.h:140
* Description    : Disable Interrupt
* Input          : IRQn: Interrupt Numbers
* Return         : None
*******************************************************************************/
RV_STATIC_INLINE void NVIC_DisableIRQ(IRQn_Type IRQn)
{
    15f0:	1101                	addi	sp,sp,-32
    15f2:	ce22                	sw	s0,28(sp)
    15f4:	1000                	addi	s0,sp,32
    15f6:	fea42623          	sw	a0,-20(s0)
E:\沁恒\例程\Example\libraries\sdk\Core/core_riscv.h:141
  NVIC->IRER[((uint32_t)(IRQn) >> 5)] = (1 << ((uint32_t)(IRQn) & 0x1F));
    15fa:	fec42783          	lw	a5,-20(s0)
    15fe:	8bfd                	andi	a5,a5,31
    1600:	4705                	li	a4,1
    1602:	00f716b3          	sll	a3,a4,a5
    1606:	e000e737          	lui	a4,0xe000e
    160a:	fec42783          	lw	a5,-20(s0)
    160e:	8395                	srli	a5,a5,0x5
    1610:	06078793          	addi	a5,a5,96
    1614:	078a                	slli	a5,a5,0x2
    1616:	97ba                	add	a5,a5,a4
    1618:	c394                	sw	a3,0(a5)
E:\沁恒\例程\Example\libraries\sdk\Core/core_riscv.h:142
}
    161a:	0001                	nop
    161c:	4472                	lw	s0,28(sp)
    161e:	6105                	addi	sp,sp,32
    1620:	8082                	ret

00001622 <NVIC_SetPriority>:
NVIC_SetPriority():
E:\沁恒\例程\Example\libraries\sdk\Core/core_riscv.h:211
*                  priority: bit7:pre-emption priority
*                            bit6-bit4: subpriority
* Return         : None
*******************************************************************************/
RV_STATIC_INLINE void NVIC_SetPriority(IRQn_Type IRQn, uint8_t priority)
{
    1622:	1101                	addi	sp,sp,-32
    1624:	ce22                	sw	s0,28(sp)
    1626:	1000                	addi	s0,sp,32
    1628:	fea42623          	sw	a0,-20(s0)
    162c:	87ae                	mv	a5,a1
    162e:	fef405a3          	sb	a5,-21(s0)
E:\沁恒\例程\Example\libraries\sdk\Core/core_riscv.h:212
  NVIC->IPRIOR[(uint32_t)(IRQn)] = priority;
    1632:	e000e737          	lui	a4,0xe000e
    1636:	fec42783          	lw	a5,-20(s0)
    163a:	97ba                	add	a5,a5,a4
    163c:	feb44703          	lbu	a4,-21(s0)
    1640:	40e78023          	sb	a4,1024(a5)
E:\沁恒\例程\Example\libraries\sdk\Core/core_riscv.h:213
}
    1644:	0001                	nop
    1646:	4472                	lw	s0,28(sp)
    1648:	6105                	addi	sp,sp,32
    164a:	8082                	ret

0000164c <interrupt_enable>:
interrupt_enable():
E:/沁恒/例程/Example/libraries/zf_common/zf_common_interrupt.c:34
// @param       irqn            指定中断号 可查看 isr.c 对应中断服务函数的标注
// @return      void
// Sample usage:                interrupt_enable(UART1_IRQn);
//-------------------------------------------------------------------------------------------------------------------
void interrupt_enable (IRQn_Type irqn)
{
    164c:	1101                	addi	sp,sp,-32
    164e:	ce06                	sw	ra,28(sp)
    1650:	cc22                	sw	s0,24(sp)
    1652:	1000                	addi	s0,sp,32
    1654:	fea42623          	sw	a0,-20(s0)
E:/沁恒/例程/Example/libraries/zf_common/zf_common_interrupt.c:35
    NVIC_EnableIRQ(irqn);
    1658:	fec42503          	lw	a0,-20(s0)
    165c:	378d                	jal	15be <NVIC_EnableIRQ>
E:/沁恒/例程/Example/libraries/zf_common/zf_common_interrupt.c:36
}
    165e:	0001                	nop
    1660:	40f2                	lw	ra,28(sp)
    1662:	4462                	lw	s0,24(sp)
    1664:	6105                	addi	sp,sp,32
    1666:	8082                	ret

00001668 <interrupt_disable>:
interrupt_disable():
E:/沁恒/例程/Example/libraries/zf_common/zf_common_interrupt.c:45
// @param       irqn            指定中断号 可查看 isr.c 对应中断服务函数的标注
// @return      void
// Sample usage:                interrupt_disable(UART1_IRQn);
//-------------------------------------------------------------------------------------------------------------------
void interrupt_disable (IRQn_Type irqn)
{
    1668:	1101                	addi	sp,sp,-32
    166a:	ce06                	sw	ra,28(sp)
    166c:	cc22                	sw	s0,24(sp)
    166e:	1000                	addi	s0,sp,32
    1670:	fea42623          	sw	a0,-20(s0)
E:/沁恒/例程/Example/libraries/zf_common/zf_common_interrupt.c:46
    NVIC_DisableIRQ(irqn);
    1674:	fec42503          	lw	a0,-20(s0)
    1678:	3fa5                	jal	15f0 <NVIC_DisableIRQ>
E:/沁恒/例程/Example/libraries/zf_common/zf_common_interrupt.c:47
}
    167a:	0001                	nop
    167c:	40f2                	lw	ra,28(sp)
    167e:	4462                	lw	s0,24(sp)
    1680:	6105                	addi	sp,sp,32
    1682:	8082                	ret

00001684 <interrupt_set_priority>:
interrupt_set_priority():
E:/沁恒/例程/Example/libraries/zf_common/zf_common_interrupt.c:58
// @return      void
// Sample usage:                interrupt_enable(UART1_IRQn, (1<<5) || 2);
//                              抢占优先级设置为1,次优先级设置为2
//-------------------------------------------------------------------------------------------------------------------
void interrupt_set_priority (IRQn_Type irqn, uint8 priority)
{
    1684:	1101                	addi	sp,sp,-32
    1686:	ce06                	sw	ra,28(sp)
    1688:	cc22                	sw	s0,24(sp)
    168a:	1000                	addi	s0,sp,32
    168c:	fea42623          	sw	a0,-20(s0)
    1690:	87ae                	mv	a5,a1
    1692:	fef405a3          	sb	a5,-21(s0)
E:/沁恒/例程/Example/libraries/zf_common/zf_common_interrupt.c:59
    NVIC_SetPriority(irqn, priority);
    1696:	feb44783          	lbu	a5,-21(s0)
    169a:	85be                	mv	a1,a5
    169c:	fec42503          	lw	a0,-20(s0)
    16a0:	3749                	jal	1622 <NVIC_SetPriority>
E:/沁恒/例程/Example/libraries/zf_common/zf_common_interrupt.c:60
}
    16a2:	0001                	nop
    16a4:	40f2                	lw	ra,28(sp)
    16a6:	4462                	lw	s0,24(sp)
    16a8:	6105                	addi	sp,sp,32
    16aa:	8082                	ret

000016ac <interrupt_init>:
interrupt_init():
E:/沁恒/例程/Example/libraries/zf_common/zf_common_interrupt.c:69
// @param       void
// @return      void
// Sample usage:                interrupt_init();
//-------------------------------------------------------------------------------------------------------------------
void interrupt_init (void)
{
    16ac:	1141                	addi	sp,sp,-16
    16ae:	c622                	sw	s0,12(sp)
    16b0:	0800                	addi	s0,sp,16
E:/沁恒/例程/Example/libraries/zf_common/zf_common_interrupt.c:72
    //NVIC_SetPriorityGrouping(4);

}
    16b2:	0001                	nop
    16b4:	4432                	lw	s0,12(sp)
    16b6:	0141                	addi	sp,sp,16
    16b8:	8082                	ret

000016ba <interrupt_global_enable>:
interrupt_global_enable():
E:/沁恒/例程/Example/libraries/zf_common/zf_common_interrupt.c:81
// @param       void            还原的嵌套层 如果传入 0 则直接清空嵌套层数开启总中断
// @return      void
// Sample usage:                interrupt_global_enable();
//-------------------------------------------------------------------------------------------------------------------
void interrupt_global_enable (void)
{
    16ba:	1141                	addi	sp,sp,-16
    16bc:	c606                	sw	ra,12(sp)
    16be:	c422                	sw	s0,8(sp)
    16c0:	0800                	addi	s0,sp,16
E:/沁恒/例程/Example/libraries/zf_common/zf_common_interrupt.c:82
    if(interrupt_nest_count)
    16c2:	8501a783          	lw	a5,-1968(gp) # 20000270 <interrupt_nest_count>
    16c6:	c799                	beqz	a5,16d4 <interrupt_global_enable+0x1a>
E:/沁恒/例程/Example/libraries/zf_common/zf_common_interrupt.c:83
        interrupt_nest_count--;
    16c8:	8501a783          	lw	a5,-1968(gp) # 20000270 <interrupt_nest_count>
    16cc:	fff78713          	addi	a4,a5,-1
    16d0:	84e1a823          	sw	a4,-1968(gp) # 20000270 <interrupt_nest_count>
E:/沁恒/例程/Example/libraries/zf_common/zf_common_interrupt.c:85

    if(interrupt_nest_count == 0)
    16d4:	8501a783          	lw	a5,-1968(gp) # 20000270 <interrupt_nest_count>
    16d8:	e399                	bnez	a5,16de <interrupt_global_enable+0x24>
E:/沁恒/例程/Example/libraries/zf_common/zf_common_interrupt.c:88
    {
        extern void en_interrupt();
        en_interrupt();
    16da:	b2dfe0ef          	jal	ra,206 <en_interrupt>
E:/沁恒/例程/Example/libraries/zf_common/zf_common_interrupt.c:90
    }
}
    16de:	0001                	nop
    16e0:	40b2                	lw	ra,12(sp)
    16e2:	4422                	lw	s0,8(sp)
    16e4:	0141                	addi	sp,sp,16
    16e6:	8082                	ret

000016e8 <interrupt_global_disable>:
interrupt_global_disable():
E:/沁恒/例程/Example/libraries/zf_common/zf_common_interrupt.c:99
// @param       void
// @return      void
// Sample usage:                interrupt_disable_all();
//-------------------------------------------------------------------------------------------------------------------
void interrupt_global_disable (void)
{
    16e8:	1141                	addi	sp,sp,-16
    16ea:	c606                	sw	ra,12(sp)
    16ec:	c422                	sw	s0,8(sp)
    16ee:	0800                	addi	s0,sp,16
E:/沁恒/例程/Example/libraries/zf_common/zf_common_interrupt.c:100
    if(!interrupt_nest_count)
    16f0:	8501a783          	lw	a5,-1968(gp) # 20000270 <interrupt_nest_count>
    16f4:	e399                	bnez	a5,16fa <interrupt_global_disable+0x12>
E:/沁恒/例程/Example/libraries/zf_common/zf_common_interrupt.c:103
    {
        extern void dis_interrupt();
        dis_interrupt();
    16f6:	b0bfe0ef          	jal	ra,200 <dis_interrupt>
E:/沁恒/例程/Example/libraries/zf_common/zf_common_interrupt.c:105
    }
    interrupt_nest_count++;
    16fa:	8501a783          	lw	a5,-1968(gp) # 20000270 <interrupt_nest_count>
    16fe:	00178713          	addi	a4,a5,1
    1702:	84e1a823          	sw	a4,-1968(gp) # 20000270 <interrupt_nest_count>
E:/沁恒/例程/Example/libraries/zf_common/zf_common_interrupt.c:110
    //返回当前mstatus寄存器的值
//    uint32 temp;
//    temp = __get_MSTATUS();
//    return temp;
}
    1706:	0001                	nop
    1708:	40b2                	lw	ra,12(sp)
    170a:	4422                	lw	s0,8(sp)
    170c:	0141                	addi	sp,sp,16
    170e:	8082                	ret

00001710 <USART1_IRQHandler>:
USART1_IRQHandler():
E:/沁恒/例程/Example/5-UART Demo/user/src/isr.c:65
void EXTI4_IRQHandler(void) __attribute__((interrupt("WCH-Interrupt-fast")));
void EXTI9_5_IRQHandler(void) __attribute__((interrupt("WCH-Interrupt-fast")));
void EXTI15_10_IRQHandler(void) __attribute__((interrupt("WCH-Interrupt-fast")));

void USART1_IRQHandler(void)
{
    1710:	1141                	addi	sp,sp,-16
    1712:	c622                	sw	s0,12(sp)
    1714:	0800                	addi	s0,sp,16
E:/沁恒/例程/Example/5-UART Demo/user/src/isr.c:66
    if(USART_GetITStatus(USART1, USART_IT_RXNE) != RESET)
    1716:	52500593          	li	a1,1317
    171a:	400147b7          	lui	a5,0x40014
    171e:	80078513          	addi	a0,a5,-2048 # 40013800 <_eusrstack+0x20003800>
    1722:	5b8010ef          	jal	ra,2cda <USART_GetITStatus>
    1726:	87aa                	mv	a5,a0
    1728:	cb99                	beqz	a5,173e <USART1_IRQHandler+0x2e>
E:/沁恒/例程/Example/5-UART Demo/user/src/isr.c:69
    {
        extern void uart_rx_interrupt_handler (void);
              uart_rx_interrupt_handler();
    172a:	674000ef          	jal	ra,1d9e <uart_rx_interrupt_handler>
E:/沁恒/例程/Example/5-UART Demo/user/src/isr.c:70
        USART_ClearITPendingBit(USART1, USART_IT_RXNE);
    172e:	52500593          	li	a1,1317
    1732:	400147b7          	lui	a5,0x40014
    1736:	80078513          	addi	a0,a5,-2048 # 40013800 <_eusrstack+0x20003800>
    173a:	6a2010ef          	jal	ra,2ddc <USART_ClearITPendingBit>
E:/沁恒/例程/Example/5-UART Demo/user/src/isr.c:72
    }
}
    173e:	0001                	nop
    1740:	4432                	lw	s0,12(sp)
    1742:	0141                	addi	sp,sp,16
    1744:	30200073          	mret

00001748 <USART2_IRQHandler>:
USART2_IRQHandler():
E:/沁恒/例程/Example/5-UART Demo/user/src/isr.c:74
void USART2_IRQHandler(void)
{
    1748:	1141                	addi	sp,sp,-16
    174a:	c622                	sw	s0,12(sp)
    174c:	0800                	addi	s0,sp,16
E:/沁恒/例程/Example/5-UART Demo/user/src/isr.c:75
    if(USART_GetITStatus(USART2, USART_IT_RXNE) != RESET)
    174e:	52500593          	li	a1,1317
    1752:	400047b7          	lui	a5,0x40004
    1756:	40078513          	addi	a0,a5,1024 # 40004400 <_eusrstack+0x1fff4400>
    175a:	580010ef          	jal	ra,2cda <USART_GetITStatus>
    175e:	87aa                	mv	a5,a0
    1760:	c3a1                	beqz	a5,17a0 <USART2_IRQHandler+0x58>
E:/沁恒/例程/Example/5-UART Demo/user/src/isr.c:77
    {
        if(wireless_type == WIRELESS_UART)
    1762:	8401a703          	lw	a4,-1984(gp) # 20000260 <wireless_type>
    1766:	4785                	li	a5,1
    1768:	00f71563          	bne	a4,a5,1772 <USART2_IRQHandler+0x2a>
E:/沁恒/例程/Example/5-UART Demo/user/src/isr.c:79
        {
            wireless_uart_callback();
    176c:	f50ff0ef          	jal	ra,ebc <wireless_uart_callback>
    1770:	a005                	j	1790 <USART2_IRQHandler+0x48>
E:/沁恒/例程/Example/5-UART Demo/user/src/isr.c:81
        }
        else if(wireless_type == BLUETOOTH_CH9141)
    1772:	8401a703          	lw	a4,-1984(gp) # 20000260 <wireless_type>
    1776:	4789                	li	a5,2
    1778:	00f71563          	bne	a4,a5,1782 <USART2_IRQHandler+0x3a>
E:/沁恒/例程/Example/5-UART Demo/user/src/isr.c:83
        {
            bluetooth_ch9141_uart_callback_ch2();
    177c:	da2ff0ef          	jal	ra,d1e <bluetooth_ch9141_uart_callback_ch2>
    1780:	a801                	j	1790 <USART2_IRQHandler+0x48>
E:/沁恒/例程/Example/5-UART Demo/user/src/isr.c:85
        }
        else if(wireless_type == WIRELESS_CH573)
    1782:	8401a703          	lw	a4,-1984(gp) # 20000260 <wireless_type>
    1786:	478d                	li	a5,3
    1788:	00f71463          	bne	a4,a5,1790 <USART2_IRQHandler+0x48>
E:/沁恒/例程/Example/5-UART Demo/user/src/isr.c:87
        {
            wireless_ch573_callback();
    178c:	f0aff0ef          	jal	ra,e96 <wireless_ch573_callback>
E:/沁恒/例程/Example/5-UART Demo/user/src/isr.c:89
        }
        USART_ClearITPendingBit(USART2, USART_IT_RXNE);
    1790:	52500593          	li	a1,1317
    1794:	400047b7          	lui	a5,0x40004
    1798:	40078513          	addi	a0,a5,1024 # 40004400 <_eusrstack+0x1fff4400>
    179c:	640010ef          	jal	ra,2ddc <USART_ClearITPendingBit>
E:/沁恒/例程/Example/5-UART Demo/user/src/isr.c:91
    }
}
    17a0:	0001                	nop
    17a2:	4432                	lw	s0,12(sp)
    17a4:	0141                	addi	sp,sp,16
    17a6:	30200073          	mret

000017aa <USART3_IRQHandler>:
USART3_IRQHandler():
E:/沁恒/例程/Example/5-UART Demo/user/src/isr.c:93
void USART3_IRQHandler(void)
{
    17aa:	1141                	addi	sp,sp,-16
    17ac:	c622                	sw	s0,12(sp)
    17ae:	0800                	addi	s0,sp,16
E:/沁恒/例程/Example/5-UART Demo/user/src/isr.c:94
    if(USART_GetITStatus(USART3, USART_IT_RXNE) != RESET)
    17b0:	52500593          	li	a1,1317
    17b4:	400057b7          	lui	a5,0x40005
    17b8:	80078513          	addi	a0,a5,-2048 # 40004800 <_eusrstack+0x1fff4800>
    17bc:	51e010ef          	jal	ra,2cda <USART_GetITStatus>
    17c0:	87aa                	mv	a5,a0
    17c2:	cb89                	beqz	a5,17d4 <USART3_IRQHandler+0x2a>
E:/沁恒/例程/Example/5-UART Demo/user/src/isr.c:100
    {
        // 此处编写用户代码
        // 务必读取数据或者关闭中断 否则会一直触发串口接收中断


        USART_ClearITPendingBit(USART3, USART_IT_RXNE);
    17c4:	52500593          	li	a1,1317
    17c8:	400057b7          	lui	a5,0x40005
    17cc:	80078513          	addi	a0,a5,-2048 # 40004800 <_eusrstack+0x1fff4800>
    17d0:	60c010ef          	jal	ra,2ddc <USART_ClearITPendingBit>
E:/沁恒/例程/Example/5-UART Demo/user/src/isr.c:102
    }
}
    17d4:	0001                	nop
    17d6:	4432                	lw	s0,12(sp)
    17d8:	0141                	addi	sp,sp,16
    17da:	30200073          	mret

000017de <UART4_IRQHandler>:
UART4_IRQHandler():
E:/沁恒/例程/Example/5-UART Demo/user/src/isr.c:104
void UART4_IRQHandler (void)
{
    17de:	1141                	addi	sp,sp,-16
    17e0:	c622                	sw	s0,12(sp)
    17e2:	0800                	addi	s0,sp,16
E:/沁恒/例程/Example/5-UART Demo/user/src/isr.c:105
    if(USART_GetITStatus(UART4, USART_IT_RXNE) != RESET)
    17e4:	52500593          	li	a1,1317
    17e8:	400057b7          	lui	a5,0x40005
    17ec:	c0078513          	addi	a0,a5,-1024 # 40004c00 <_eusrstack+0x1fff4c00>
    17f0:	4ea010ef          	jal	ra,2cda <USART_GetITStatus>
    17f4:	87aa                	mv	a5,a0
    17f6:	cb89                	beqz	a5,1808 <UART4_IRQHandler+0x2a>
E:/沁恒/例程/Example/5-UART Demo/user/src/isr.c:108
    {

        USART_ClearITPendingBit(UART4, USART_IT_RXNE);
    17f8:	52500593          	li	a1,1317
    17fc:	400057b7          	lui	a5,0x40005
    1800:	c0078513          	addi	a0,a5,-1024 # 40004c00 <_eusrstack+0x1fff4c00>
    1804:	5d8010ef          	jal	ra,2ddc <USART_ClearITPendingBit>
E:/沁恒/例程/Example/5-UART Demo/user/src/isr.c:110
    }
}
    1808:	0001                	nop
    180a:	4432                	lw	s0,12(sp)
    180c:	0141                	addi	sp,sp,16
    180e:	30200073          	mret

00001812 <UART5_IRQHandler>:
UART5_IRQHandler():
E:/沁恒/例程/Example/5-UART Demo/user/src/isr.c:112
void UART5_IRQHandler (void)
{
    1812:	1141                	addi	sp,sp,-16
    1814:	c622                	sw	s0,12(sp)
    1816:	0800                	addi	s0,sp,16
E:/沁恒/例程/Example/5-UART Demo/user/src/isr.c:113
    if(USART_GetITStatus(UART5, USART_IT_RXNE) != RESET)
    1818:	52500593          	li	a1,1317
    181c:	40005537          	lui	a0,0x40005
    1820:	4ba010ef          	jal	ra,2cda <USART_GetITStatus>
    1824:	87aa                	mv	a5,a0
    1826:	cb89                	beqz	a5,1838 <UART5_IRQHandler+0x26>
E:/沁恒/例程/Example/5-UART Demo/user/src/isr.c:115
    {
        camera_uart_handler();
    1828:	d1cff0ef          	jal	ra,d44 <camera_uart_handler>
E:/沁恒/例程/Example/5-UART Demo/user/src/isr.c:116
        USART_ClearITPendingBit(UART5, USART_IT_RXNE);
    182c:	52500593          	li	a1,1317
    1830:	40005537          	lui	a0,0x40005
    1834:	5a8010ef          	jal	ra,2ddc <USART_ClearITPendingBit>
E:/沁恒/例程/Example/5-UART Demo/user/src/isr.c:118
    }
}
    1838:	0001                	nop
    183a:	4432                	lw	s0,12(sp)
    183c:	0141                	addi	sp,sp,16
    183e:	30200073          	mret

00001842 <UART6_IRQHandler>:
UART6_IRQHandler():
E:/沁恒/例程/Example/5-UART Demo/user/src/isr.c:120
void UART6_IRQHandler (void)
{
    1842:	1141                	addi	sp,sp,-16
    1844:	c622                	sw	s0,12(sp)
    1846:	0800                	addi	s0,sp,16
E:/沁恒/例程/Example/5-UART Demo/user/src/isr.c:121
    if(USART_GetITStatus(UART6, USART_IT_RXNE) != RESET)
    1848:	52500593          	li	a1,1317
    184c:	400027b7          	lui	a5,0x40002
    1850:	80078513          	addi	a0,a5,-2048 # 40001800 <_eusrstack+0x1fff1800>
    1854:	486010ef          	jal	ra,2cda <USART_GetITStatus>
    1858:	87aa                	mv	a5,a0
    185a:	cb89                	beqz	a5,186c <UART6_IRQHandler+0x2a>
E:/沁恒/例程/Example/5-UART Demo/user/src/isr.c:124
    {

        USART_ClearITPendingBit(UART6, USART_IT_RXNE);
    185c:	52500593          	li	a1,1317
    1860:	400027b7          	lui	a5,0x40002
    1864:	80078513          	addi	a0,a5,-2048 # 40001800 <_eusrstack+0x1fff1800>
    1868:	574010ef          	jal	ra,2ddc <USART_ClearITPendingBit>
E:/沁恒/例程/Example/5-UART Demo/user/src/isr.c:126
    }
}
    186c:	0001                	nop
    186e:	4432                	lw	s0,12(sp)
    1870:	0141                	addi	sp,sp,16
    1872:	30200073          	mret

00001876 <UART7_IRQHandler>:
UART7_IRQHandler():
E:/沁恒/例程/Example/5-UART Demo/user/src/isr.c:128
void UART7_IRQHandler (void)
{
    1876:	1141                	addi	sp,sp,-16
    1878:	c622                	sw	s0,12(sp)
    187a:	0800                	addi	s0,sp,16
E:/沁恒/例程/Example/5-UART Demo/user/src/isr.c:129
    if(USART_GetITStatus(UART7, USART_IT_RXNE) != RESET)
    187c:	52500593          	li	a1,1317
    1880:	400027b7          	lui	a5,0x40002
    1884:	c0078513          	addi	a0,a5,-1024 # 40001c00 <_eusrstack+0x1fff1c00>
    1888:	452010ef          	jal	ra,2cda <USART_GetITStatus>
    188c:	87aa                	mv	a5,a0
    188e:	c78d                	beqz	a5,18b8 <UART7_IRQHandler+0x42>
E:/沁恒/例程/Example/5-UART Demo/user/src/isr.c:131
    {
        if(wireless_type == WIRELESS_UART)
    1890:	8401a703          	lw	a4,-1984(gp) # 20000260 <wireless_type>
    1894:	4785                	li	a5,1
    1896:	00f70963          	beq	a4,a5,18a8 <UART7_IRQHandler+0x32>
E:/沁恒/例程/Example/5-UART Demo/user/src/isr.c:135
        {

        }
        else if(wireless_type == BLUETOOTH_CH9141)
    189a:	8401a703          	lw	a4,-1984(gp) # 20000260 <wireless_type>
    189e:	4789                	li	a5,2
    18a0:	00f71463          	bne	a4,a5,18a8 <UART7_IRQHandler+0x32>
E:/沁恒/例程/Example/5-UART Demo/user/src/isr.c:137
        {
            bluetooth_ch9141_uart_callback_ch1();
    18a4:	c54ff0ef          	jal	ra,cf8 <bluetooth_ch9141_uart_callback_ch1>
E:/沁恒/例程/Example/5-UART Demo/user/src/isr.c:139
        }
        USART_ClearITPendingBit(UART7, USART_IT_RXNE);
    18a8:	52500593          	li	a1,1317
    18ac:	400027b7          	lui	a5,0x40002
    18b0:	c0078513          	addi	a0,a5,-1024 # 40001c00 <_eusrstack+0x1fff1c00>
    18b4:	528010ef          	jal	ra,2ddc <USART_ClearITPendingBit>
E:/沁恒/例程/Example/5-UART Demo/user/src/isr.c:141
    }
}
    18b8:	0001                	nop
    18ba:	4432                	lw	s0,12(sp)
    18bc:	0141                	addi	sp,sp,16
    18be:	30200073          	mret

000018c2 <UART8_IRQHandler>:
UART8_IRQHandler():
E:/沁恒/例程/Example/5-UART Demo/user/src/isr.c:143
void UART8_IRQHandler (void)
{
    18c2:	1141                	addi	sp,sp,-16
    18c4:	c622                	sw	s0,12(sp)
    18c6:	0800                	addi	s0,sp,16
E:/沁恒/例程/Example/5-UART Demo/user/src/isr.c:144
    if(USART_GetITStatus(UART8, USART_IT_RXNE) != RESET)
    18c8:	52500593          	li	a1,1317
    18cc:	40002537          	lui	a0,0x40002
    18d0:	40a010ef          	jal	ra,2cda <USART_GetITStatus>
    18d4:	87aa                	mv	a5,a0
    18d6:	c799                	beqz	a5,18e4 <UART8_IRQHandler+0x22>
E:/沁恒/例程/Example/5-UART Demo/user/src/isr.c:148
    {
//        extern void uart_handler (void);
//        uart_handler();
        USART_ClearITPendingBit(UART8, USART_IT_RXNE);
    18d8:	52500593          	li	a1,1317
    18dc:	40002537          	lui	a0,0x40002
    18e0:	4fc010ef          	jal	ra,2ddc <USART_ClearITPendingBit>
E:/沁恒/例程/Example/5-UART Demo/user/src/isr.c:150
    }
}
    18e4:	0001                	nop
    18e6:	4432                	lw	s0,12(sp)
    18e8:	0141                	addi	sp,sp,16
    18ea:	30200073          	mret

000018ee <DVP_IRQHandler>:
DVP_IRQHandler():
E:/沁恒/例程/Example/5-UART Demo/user/src/isr.c:155



void DVP_IRQHandler(void)
{
    18ee:	1141                	addi	sp,sp,-16
    18f0:	c622                	sw	s0,12(sp)
    18f2:	0800                	addi	s0,sp,16
E:/沁恒/例程/Example/5-UART Demo/user/src/isr.c:156
    if (DVP->IFR & RB_DVP_IF_FRM_DONE)
    18f4:	500507b7          	lui	a5,0x50050
    18f8:	0107c783          	lbu	a5,16(a5) # 50050010 <_eusrstack+0x30040010>
    18fc:	0ff7f793          	andi	a5,a5,255
    1900:	8b91                	andi	a5,a5,4
    1902:	c385                	beqz	a5,1922 <DVP_IRQHandler+0x34>
E:/沁恒/例程/Example/5-UART Demo/user/src/isr.c:158
    {
        camera_dvp_handler();
    1904:	c76ff0ef          	jal	ra,d7a <camera_dvp_handler>
E:/沁恒/例程/Example/5-UART Demo/user/src/isr.c:159
        DVP->IFR &= ~RB_DVP_IF_FRM_DONE;
    1908:	500507b7          	lui	a5,0x50050
    190c:	0107c783          	lbu	a5,16(a5) # 50050010 <_eusrstack+0x30040010>
    1910:	0ff7f713          	andi	a4,a5,255
    1914:	500507b7          	lui	a5,0x50050
    1918:	9b6d                	andi	a4,a4,-5
    191a:	0ff77713          	andi	a4,a4,255
    191e:	00e78823          	sb	a4,16(a5) # 50050010 <_eusrstack+0x30040010>
E:/沁恒/例程/Example/5-UART Demo/user/src/isr.c:161
    }
}
    1922:	0001                	nop
    1924:	4432                	lw	s0,12(sp)
    1926:	0141                	addi	sp,sp,16
    1928:	30200073          	mret

0000192c <EXTI0_IRQHandler>:
EXTI0_IRQHandler():
E:/沁恒/例程/Example/5-UART Demo/user/src/isr.c:163
void EXTI0_IRQHandler(void)
{
    192c:	1141                	addi	sp,sp,-16
    192e:	c622                	sw	s0,12(sp)
    1930:	0800                	addi	s0,sp,16
E:/沁恒/例程/Example/5-UART Demo/user/src/isr.c:164
    if(SET == EXTI_GetITStatus(EXTI_Line0))
    1932:	4505                	li	a0,1
    1934:	7d2000ef          	jal	ra,2106 <EXTI_GetITStatus>
    1938:	872a                	mv	a4,a0
    193a:	4785                	li	a5,1
    193c:	00f71563          	bne	a4,a5,1946 <EXTI0_IRQHandler+0x1a>
E:/沁恒/例程/Example/5-UART Demo/user/src/isr.c:166
    {
        EXTI_ClearITPendingBit(EXTI_Line0);
    1940:	4505                	li	a0,1
    1942:	01b000ef          	jal	ra,215c <EXTI_ClearITPendingBit>
E:/沁恒/例程/Example/5-UART Demo/user/src/isr.c:169

    }
}
    1946:	0001                	nop
    1948:	4432                	lw	s0,12(sp)
    194a:	0141                	addi	sp,sp,16
    194c:	30200073          	mret

00001950 <EXTI1_IRQHandler>:
EXTI1_IRQHandler():
E:/沁恒/例程/Example/5-UART Demo/user/src/isr.c:172

void EXTI1_IRQHandler(void)
{
    1950:	1141                	addi	sp,sp,-16
    1952:	c622                	sw	s0,12(sp)
    1954:	0800                	addi	s0,sp,16
E:/沁恒/例程/Example/5-UART Demo/user/src/isr.c:173
    if(SET == EXTI_GetITStatus(EXTI_Line1))
    1956:	4509                	li	a0,2
    1958:	7ae000ef          	jal	ra,2106 <EXTI_GetITStatus>
    195c:	872a                	mv	a4,a0
    195e:	4785                	li	a5,1
    1960:	00f71563          	bne	a4,a5,196a <EXTI1_IRQHandler+0x1a>
E:/沁恒/例程/Example/5-UART Demo/user/src/isr.c:175
    {
        EXTI_ClearITPendingBit(EXTI_Line1);
    1964:	4509                	li	a0,2
    1966:	7f6000ef          	jal	ra,215c <EXTI_ClearITPendingBit>
E:/沁恒/例程/Example/5-UART Demo/user/src/isr.c:178

    }
}
    196a:	0001                	nop
    196c:	4432                	lw	s0,12(sp)
    196e:	0141                	addi	sp,sp,16
    1970:	30200073          	mret

00001974 <EXTI2_IRQHandler>:
EXTI2_IRQHandler():
E:/沁恒/例程/Example/5-UART Demo/user/src/isr.c:181

void EXTI2_IRQHandler(void)
{
    1974:	1141                	addi	sp,sp,-16
    1976:	c622                	sw	s0,12(sp)
    1978:	0800                	addi	s0,sp,16
E:/沁恒/例程/Example/5-UART Demo/user/src/isr.c:182
    if(SET == EXTI_GetITStatus(EXTI_Line2))
    197a:	4511                	li	a0,4
    197c:	78a000ef          	jal	ra,2106 <EXTI_GetITStatus>
    1980:	872a                	mv	a4,a0
    1982:	4785                	li	a5,1
    1984:	00f71563          	bne	a4,a5,198e <EXTI2_IRQHandler+0x1a>
E:/沁恒/例程/Example/5-UART Demo/user/src/isr.c:184
    {
        EXTI_ClearITPendingBit(EXTI_Line2);
    1988:	4511                	li	a0,4
    198a:	7d2000ef          	jal	ra,215c <EXTI_ClearITPendingBit>
E:/沁恒/例程/Example/5-UART Demo/user/src/isr.c:187

    }
}
    198e:	0001                	nop
    1990:	4432                	lw	s0,12(sp)
    1992:	0141                	addi	sp,sp,16
    1994:	30200073          	mret

00001998 <EXTI3_IRQHandler>:
EXTI3_IRQHandler():
E:/沁恒/例程/Example/5-UART Demo/user/src/isr.c:190

void EXTI3_IRQHandler(void)
{
    1998:	1141                	addi	sp,sp,-16
    199a:	c622                	sw	s0,12(sp)
    199c:	0800                	addi	s0,sp,16
E:/沁恒/例程/Example/5-UART Demo/user/src/isr.c:191
    if(SET == EXTI_GetITStatus(EXTI_Line3))
    199e:	4521                	li	a0,8
    19a0:	766000ef          	jal	ra,2106 <EXTI_GetITStatus>
    19a4:	872a                	mv	a4,a0
    19a6:	4785                	li	a5,1
    19a8:	00f71563          	bne	a4,a5,19b2 <EXTI3_IRQHandler+0x1a>
E:/沁恒/例程/Example/5-UART Demo/user/src/isr.c:193
    {
        EXTI_ClearITPendingBit(EXTI_Line3);
    19ac:	4521                	li	a0,8
    19ae:	7ae000ef          	jal	ra,215c <EXTI_ClearITPendingBit>
E:/沁恒/例程/Example/5-UART Demo/user/src/isr.c:196

    }
}
    19b2:	0001                	nop
    19b4:	4432                	lw	s0,12(sp)
    19b6:	0141                	addi	sp,sp,16
    19b8:	30200073          	mret

000019bc <EXTI4_IRQHandler>:
EXTI4_IRQHandler():
E:/沁恒/例程/Example/5-UART Demo/user/src/isr.c:199

void EXTI4_IRQHandler(void)
{
    19bc:	1141                	addi	sp,sp,-16
    19be:	c622                	sw	s0,12(sp)
    19c0:	0800                	addi	s0,sp,16
E:/沁恒/例程/Example/5-UART Demo/user/src/isr.c:200
    if(SET == EXTI_GetITStatus(EXTI_Line4))
    19c2:	4541                	li	a0,16
    19c4:	742000ef          	jal	ra,2106 <EXTI_GetITStatus>
    19c8:	872a                	mv	a4,a0
    19ca:	4785                	li	a5,1
    19cc:	00f71563          	bne	a4,a5,19d6 <EXTI4_IRQHandler+0x1a>
E:/沁恒/例程/Example/5-UART Demo/user/src/isr.c:202
    {
        EXTI_ClearITPendingBit(EXTI_Line4);
    19d0:	4541                	li	a0,16
    19d2:	78a000ef          	jal	ra,215c <EXTI_ClearITPendingBit>
E:/沁恒/例程/Example/5-UART Demo/user/src/isr.c:205

    }
}
    19d6:	0001                	nop
    19d8:	4432                	lw	s0,12(sp)
    19da:	0141                	addi	sp,sp,16
    19dc:	30200073          	mret

000019e0 <EXTI9_5_IRQHandler>:
EXTI9_5_IRQHandler():
E:/沁恒/例程/Example/5-UART Demo/user/src/isr.c:207
void EXTI9_5_IRQHandler(void)
{
    19e0:	1141                	addi	sp,sp,-16
    19e2:	c622                	sw	s0,12(sp)
    19e4:	0800                	addi	s0,sp,16
E:/沁恒/例程/Example/5-UART Demo/user/src/isr.c:208
    if(SET == EXTI_GetITStatus(EXTI_Line5))
    19e6:	02000513          	li	a0,32
    19ea:	71c000ef          	jal	ra,2106 <EXTI_GetITStatus>
    19ee:	872a                	mv	a4,a0
    19f0:	4785                	li	a5,1
    19f2:	00f71663          	bne	a4,a5,19fe <EXTI9_5_IRQHandler+0x1e>
E:/沁恒/例程/Example/5-UART Demo/user/src/isr.c:210
    {
        EXTI_ClearITPendingBit(EXTI_Line5);
    19f6:	02000513          	li	a0,32
    19fa:	762000ef          	jal	ra,215c <EXTI_ClearITPendingBit>
E:/沁恒/例程/Example/5-UART Demo/user/src/isr.c:213

    }
    if(SET == EXTI_GetITStatus(EXTI_Line6))
    19fe:	04000513          	li	a0,64
    1a02:	704000ef          	jal	ra,2106 <EXTI_GetITStatus>
    1a06:	872a                	mv	a4,a0
    1a08:	4785                	li	a5,1
    1a0a:	00f71663          	bne	a4,a5,1a16 <EXTI9_5_IRQHandler+0x36>
E:/沁恒/例程/Example/5-UART Demo/user/src/isr.c:215
    {
        EXTI_ClearITPendingBit(EXTI_Line6);
    1a0e:	04000513          	li	a0,64
    1a12:	74a000ef          	jal	ra,215c <EXTI_ClearITPendingBit>
E:/沁恒/例程/Example/5-UART Demo/user/src/isr.c:218

    }
    if(SET == EXTI_GetITStatus(EXTI_Line7))
    1a16:	08000513          	li	a0,128
    1a1a:	6ec000ef          	jal	ra,2106 <EXTI_GetITStatus>
    1a1e:	872a                	mv	a4,a0
    1a20:	4785                	li	a5,1
    1a22:	00f71663          	bne	a4,a5,1a2e <EXTI9_5_IRQHandler+0x4e>
E:/沁恒/例程/Example/5-UART Demo/user/src/isr.c:220
    {
        EXTI_ClearITPendingBit(EXTI_Line7);
    1a26:	08000513          	li	a0,128
    1a2a:	732000ef          	jal	ra,215c <EXTI_ClearITPendingBit>
E:/沁恒/例程/Example/5-UART Demo/user/src/isr.c:223

    }
    if(SET == EXTI_GetITStatus(EXTI_Line8))
    1a2e:	10000513          	li	a0,256
    1a32:	6d4000ef          	jal	ra,2106 <EXTI_GetITStatus>
    1a36:	872a                	mv	a4,a0
    1a38:	4785                	li	a5,1
    1a3a:	00f71663          	bne	a4,a5,1a46 <EXTI9_5_IRQHandler+0x66>
E:/沁恒/例程/Example/5-UART Demo/user/src/isr.c:225
    {
        EXTI_ClearITPendingBit(EXTI_Line8);
    1a3e:	10000513          	li	a0,256
    1a42:	71a000ef          	jal	ra,215c <EXTI_ClearITPendingBit>
E:/沁恒/例程/Example/5-UART Demo/user/src/isr.c:228

    }
    if(SET == EXTI_GetITStatus(EXTI_Line9))
    1a46:	20000513          	li	a0,512
    1a4a:	6bc000ef          	jal	ra,2106 <EXTI_GetITStatus>
    1a4e:	872a                	mv	a4,a0
    1a50:	4785                	li	a5,1
    1a52:	00f71663          	bne	a4,a5,1a5e <EXTI9_5_IRQHandler+0x7e>
E:/沁恒/例程/Example/5-UART Demo/user/src/isr.c:230
    {
        EXTI_ClearITPendingBit(EXTI_Line9);
    1a56:	20000513          	li	a0,512
    1a5a:	702000ef          	jal	ra,215c <EXTI_ClearITPendingBit>
E:/沁恒/例程/Example/5-UART Demo/user/src/isr.c:234

    }

}
    1a5e:	0001                	nop
    1a60:	4432                	lw	s0,12(sp)
    1a62:	0141                	addi	sp,sp,16
    1a64:	30200073          	mret

00001a68 <EXTI15_10_IRQHandler>:
EXTI15_10_IRQHandler():
E:/沁恒/例程/Example/5-UART Demo/user/src/isr.c:237

void EXTI15_10_IRQHandler(void)
{
    1a68:	1141                	addi	sp,sp,-16
    1a6a:	c622                	sw	s0,12(sp)
    1a6c:	0800                	addi	s0,sp,16
E:/沁恒/例程/Example/5-UART Demo/user/src/isr.c:238
    if(SET == EXTI_GetITStatus(EXTI_Line10))
    1a6e:	40000513          	li	a0,1024
    1a72:	2d51                	jal	2106 <EXTI_GetITStatus>
    1a74:	872a                	mv	a4,a0
    1a76:	4785                	li	a5,1
    1a78:	00f71663          	bne	a4,a5,1a84 <EXTI15_10_IRQHandler+0x1c>
E:/沁恒/例程/Example/5-UART Demo/user/src/isr.c:240
    {
        EXTI_ClearITPendingBit(EXTI_Line10);
    1a7c:	40000513          	li	a0,1024
    1a80:	6dc000ef          	jal	ra,215c <EXTI_ClearITPendingBit>
E:/沁恒/例程/Example/5-UART Demo/user/src/isr.c:243

    }
    if(SET == EXTI_GetITStatus(EXTI_Line11))
    1a84:	6785                	lui	a5,0x1
    1a86:	80078513          	addi	a0,a5,-2048 # 800 <__stack_size>
    1a8a:	2db5                	jal	2106 <EXTI_GetITStatus>
    1a8c:	872a                	mv	a4,a0
    1a8e:	4785                	li	a5,1
    1a90:	00f71663          	bne	a4,a5,1a9c <EXTI15_10_IRQHandler+0x34>
E:/沁恒/例程/Example/5-UART Demo/user/src/isr.c:245
    {
        EXTI_ClearITPendingBit(EXTI_Line11);
    1a94:	6785                	lui	a5,0x1
    1a96:	80078513          	addi	a0,a5,-2048 # 800 <__stack_size>
    1a9a:	25c9                	jal	215c <EXTI_ClearITPendingBit>
E:/沁恒/例程/Example/5-UART Demo/user/src/isr.c:248

    }
    if(SET == EXTI_GetITStatus(EXTI_Line12))
    1a9c:	6505                	lui	a0,0x1
    1a9e:	25a5                	jal	2106 <EXTI_GetITStatus>
    1aa0:	872a                	mv	a4,a0
    1aa2:	4785                	li	a5,1
    1aa4:	00f71463          	bne	a4,a5,1aac <EXTI15_10_IRQHandler+0x44>
E:/沁恒/例程/Example/5-UART Demo/user/src/isr.c:250
    {
        EXTI_ClearITPendingBit(EXTI_Line12);
    1aa8:	6505                	lui	a0,0x1
    1aaa:	2d4d                	jal	215c <EXTI_ClearITPendingBit>
E:/沁恒/例程/Example/5-UART Demo/user/src/isr.c:253

    }
    if(SET == EXTI_GetITStatus(EXTI_Line13))
    1aac:	6509                	lui	a0,0x2
    1aae:	2da1                	jal	2106 <EXTI_GetITStatus>
    1ab0:	872a                	mv	a4,a0
    1ab2:	4785                	li	a5,1
    1ab4:	00f71463          	bne	a4,a5,1abc <EXTI15_10_IRQHandler+0x54>
E:/沁恒/例程/Example/5-UART Demo/user/src/isr.c:255
    {
        EXTI_ClearITPendingBit(EXTI_Line13);
    1ab8:	6509                	lui	a0,0x2
    1aba:	254d                	jal	215c <EXTI_ClearITPendingBit>
E:/沁恒/例程/Example/5-UART Demo/user/src/isr.c:258

    }
    if(SET == EXTI_GetITStatus(EXTI_Line14))
    1abc:	6511                	lui	a0,0x4
    1abe:	25a1                	jal	2106 <EXTI_GetITStatus>
    1ac0:	872a                	mv	a4,a0
    1ac2:	4785                	li	a5,1
    1ac4:	00f71463          	bne	a4,a5,1acc <EXTI15_10_IRQHandler+0x64>
E:/沁恒/例程/Example/5-UART Demo/user/src/isr.c:260
    {
        EXTI_ClearITPendingBit(EXTI_Line14);
    1ac8:	6511                	lui	a0,0x4
    1aca:	2d49                	jal	215c <EXTI_ClearITPendingBit>
E:/沁恒/例程/Example/5-UART Demo/user/src/isr.c:263

    }
    if(SET == EXTI_GetITStatus(EXTI_Line15))
    1acc:	6521                	lui	a0,0x8
    1ace:	2d25                	jal	2106 <EXTI_GetITStatus>
    1ad0:	872a                	mv	a4,a0
    1ad2:	4785                	li	a5,1
    1ad4:	00f71463          	bne	a4,a5,1adc <EXTI15_10_IRQHandler+0x74>
E:/沁恒/例程/Example/5-UART Demo/user/src/isr.c:265
    {
        EXTI_ClearITPendingBit(EXTI_Line15);
    1ad8:	6521                	lui	a0,0x8
    1ada:	2549                	jal	215c <EXTI_ClearITPendingBit>
E:/沁恒/例程/Example/5-UART Demo/user/src/isr.c:268

    }
}
    1adc:	0001                	nop
    1ade:	4432                	lw	s0,12(sp)
    1ae0:	0141                	addi	sp,sp,16
    1ae2:	30200073          	mret

00001ae6 <TIM1_UP_IRQHandler>:
TIM1_UP_IRQHandler():
E:/沁恒/例程/Example/5-UART Demo/user/src/isr.c:271

void TIM1_UP_IRQHandler(void)
{
    1ae6:	1141                	addi	sp,sp,-16
    1ae8:	c622                	sw	s0,12(sp)
    1aea:	0800                	addi	s0,sp,16
E:/沁恒/例程/Example/5-UART Demo/user/src/isr.c:272
    if(TIM_GetITStatus(TIM1, TIM_IT_Update) != RESET)
    1aec:	4585                	li	a1,1
    1aee:	400137b7          	lui	a5,0x40013
    1af2:	c0078513          	addi	a0,a5,-1024 # 40012c00 <_eusrstack+0x20002c00>
    1af6:	57b000ef          	jal	ra,2870 <TIM_GetITStatus>
    1afa:	87aa                	mv	a5,a0
    1afc:	cb81                	beqz	a5,1b0c <TIM1_UP_IRQHandler+0x26>
E:/沁恒/例程/Example/5-UART Demo/user/src/isr.c:274
    {
        TIM_ClearITPendingBit(TIM1, TIM_IT_Update);
    1afe:	4585                	li	a1,1
    1b00:	400137b7          	lui	a5,0x40013
    1b04:	c0078513          	addi	a0,a5,-1024 # 40012c00 <_eusrstack+0x20002c00>
    1b08:	5d9000ef          	jal	ra,28e0 <TIM_ClearITPendingBit>
E:/沁恒/例程/Example/5-UART Demo/user/src/isr.c:277

    }
}
    1b0c:	0001                	nop
    1b0e:	4432                	lw	s0,12(sp)
    1b10:	0141                	addi	sp,sp,16
    1b12:	30200073          	mret

00001b16 <TIM2_IRQHandler>:
TIM2_IRQHandler():
E:/沁恒/例程/Example/5-UART Demo/user/src/isr.c:281


void TIM2_IRQHandler(void)
{
    1b16:	1141                	addi	sp,sp,-16
    1b18:	c622                	sw	s0,12(sp)
    1b1a:	0800                	addi	s0,sp,16
E:/沁恒/例程/Example/5-UART Demo/user/src/isr.c:282
    if(TIM_GetITStatus(TIM2, TIM_IT_Update) != RESET)
    1b1c:	4585                	li	a1,1
    1b1e:	40000537          	lui	a0,0x40000
    1b22:	54f000ef          	jal	ra,2870 <TIM_GetITStatus>
    1b26:	87aa                	mv	a5,a0
    1b28:	c791                	beqz	a5,1b34 <TIM2_IRQHandler+0x1e>
E:/沁恒/例程/Example/5-UART Demo/user/src/isr.c:284
    {
       TIM_ClearITPendingBit(TIM2, TIM_IT_Update );
    1b2a:	4585                	li	a1,1
    1b2c:	40000537          	lui	a0,0x40000
    1b30:	5b1000ef          	jal	ra,28e0 <TIM_ClearITPendingBit>
E:/沁恒/例程/Example/5-UART Demo/user/src/isr.c:288


    }
}
    1b34:	0001                	nop
    1b36:	4432                	lw	s0,12(sp)
    1b38:	0141                	addi	sp,sp,16
    1b3a:	30200073          	mret

00001b3e <TIM3_IRQHandler>:
TIM3_IRQHandler():
E:/沁恒/例程/Example/5-UART Demo/user/src/isr.c:291

void TIM3_IRQHandler(void)
{
    1b3e:	1141                	addi	sp,sp,-16
    1b40:	c622                	sw	s0,12(sp)
    1b42:	0800                	addi	s0,sp,16
E:/沁恒/例程/Example/5-UART Demo/user/src/isr.c:292
    if(TIM_GetITStatus(TIM3, TIM_IT_Update) != RESET)
    1b44:	4585                	li	a1,1
    1b46:	400007b7          	lui	a5,0x40000
    1b4a:	40078513          	addi	a0,a5,1024 # 40000400 <_eusrstack+0x1fff0400>
    1b4e:	523000ef          	jal	ra,2870 <TIM_GetITStatus>
    1b52:	87aa                	mv	a5,a0
    1b54:	cb81                	beqz	a5,1b64 <TIM3_IRQHandler+0x26>
E:/沁恒/例程/Example/5-UART Demo/user/src/isr.c:294
    {
       TIM_ClearITPendingBit(TIM3, TIM_IT_Update );
    1b56:	4585                	li	a1,1
    1b58:	400007b7          	lui	a5,0x40000
    1b5c:	40078513          	addi	a0,a5,1024 # 40000400 <_eusrstack+0x1fff0400>
    1b60:	581000ef          	jal	ra,28e0 <TIM_ClearITPendingBit>
E:/沁恒/例程/Example/5-UART Demo/user/src/isr.c:298


    }
}
    1b64:	0001                	nop
    1b66:	4432                	lw	s0,12(sp)
    1b68:	0141                	addi	sp,sp,16
    1b6a:	30200073          	mret

00001b6e <TIM4_IRQHandler>:
TIM4_IRQHandler():
E:/沁恒/例程/Example/5-UART Demo/user/src/isr.c:301

void TIM4_IRQHandler(void)
{
    1b6e:	1141                	addi	sp,sp,-16
    1b70:	c622                	sw	s0,12(sp)
    1b72:	0800                	addi	s0,sp,16
E:/沁恒/例程/Example/5-UART Demo/user/src/isr.c:302
    if(TIM_GetITStatus(TIM4, TIM_IT_Update) != RESET)
    1b74:	4585                	li	a1,1
    1b76:	400017b7          	lui	a5,0x40001
    1b7a:	80078513          	addi	a0,a5,-2048 # 40000800 <_eusrstack+0x1fff0800>
    1b7e:	4f3000ef          	jal	ra,2870 <TIM_GetITStatus>
    1b82:	87aa                	mv	a5,a0
    1b84:	cb81                	beqz	a5,1b94 <TIM4_IRQHandler+0x26>
E:/沁恒/例程/Example/5-UART Demo/user/src/isr.c:304
    {
       TIM_ClearITPendingBit(TIM4, TIM_IT_Update );
    1b86:	4585                	li	a1,1
    1b88:	400017b7          	lui	a5,0x40001
    1b8c:	80078513          	addi	a0,a5,-2048 # 40000800 <_eusrstack+0x1fff0800>
    1b90:	551000ef          	jal	ra,28e0 <TIM_ClearITPendingBit>
E:/沁恒/例程/Example/5-UART Demo/user/src/isr.c:308


    }
}
    1b94:	0001                	nop
    1b96:	4432                	lw	s0,12(sp)
    1b98:	0141                	addi	sp,sp,16
    1b9a:	30200073          	mret

00001b9e <TIM5_IRQHandler>:
TIM5_IRQHandler():
E:/沁恒/例程/Example/5-UART Demo/user/src/isr.c:311

void TIM5_IRQHandler(void)
{
    1b9e:	1141                	addi	sp,sp,-16
    1ba0:	c622                	sw	s0,12(sp)
    1ba2:	0800                	addi	s0,sp,16
E:/沁恒/例程/Example/5-UART Demo/user/src/isr.c:312
    if(TIM_GetITStatus(TIM5, TIM_IT_Update) != RESET)
    1ba4:	4585                	li	a1,1
    1ba6:	400017b7          	lui	a5,0x40001
    1baa:	c0078513          	addi	a0,a5,-1024 # 40000c00 <_eusrstack+0x1fff0c00>
    1bae:	4c3000ef          	jal	ra,2870 <TIM_GetITStatus>
    1bb2:	87aa                	mv	a5,a0
    1bb4:	cb81                	beqz	a5,1bc4 <TIM5_IRQHandler+0x26>
E:/沁恒/例程/Example/5-UART Demo/user/src/isr.c:314
    {
       TIM_ClearITPendingBit(TIM5, TIM_IT_Update );
    1bb6:	4585                	li	a1,1
    1bb8:	400017b7          	lui	a5,0x40001
    1bbc:	c0078513          	addi	a0,a5,-1024 # 40000c00 <_eusrstack+0x1fff0c00>
    1bc0:	521000ef          	jal	ra,28e0 <TIM_ClearITPendingBit>
E:/沁恒/例程/Example/5-UART Demo/user/src/isr.c:318


    }
}
    1bc4:	0001                	nop
    1bc6:	4432                	lw	s0,12(sp)
    1bc8:	0141                	addi	sp,sp,16
    1bca:	30200073          	mret

00001bce <TIM6_IRQHandler>:
TIM6_IRQHandler():
E:/沁恒/例程/Example/5-UART Demo/user/src/isr.c:321

void TIM6_IRQHandler(void)
{
    1bce:	1141                	addi	sp,sp,-16
    1bd0:	c622                	sw	s0,12(sp)
    1bd2:	0800                	addi	s0,sp,16
E:/沁恒/例程/Example/5-UART Demo/user/src/isr.c:322
    if(TIM_GetITStatus(TIM6, TIM_IT_Update) != RESET)
    1bd4:	4585                	li	a1,1
    1bd6:	40001537          	lui	a0,0x40001
    1bda:	497000ef          	jal	ra,2870 <TIM_GetITStatus>
    1bde:	87aa                	mv	a5,a0
    1be0:	c791                	beqz	a5,1bec <TIM6_IRQHandler+0x1e>
E:/沁恒/例程/Example/5-UART Demo/user/src/isr.c:324
    {
       TIM_ClearITPendingBit(TIM6, TIM_IT_Update );
    1be2:	4585                	li	a1,1
    1be4:	40001537          	lui	a0,0x40001
    1be8:	4f9000ef          	jal	ra,28e0 <TIM_ClearITPendingBit>
E:/沁恒/例程/Example/5-UART Demo/user/src/isr.c:328


    }
}
    1bec:	0001                	nop
    1bee:	4432                	lw	s0,12(sp)
    1bf0:	0141                	addi	sp,sp,16
    1bf2:	30200073          	mret

00001bf6 <TIM7_IRQHandler>:
TIM7_IRQHandler():
E:/沁恒/例程/Example/5-UART Demo/user/src/isr.c:331

void TIM7_IRQHandler(void)
{
    1bf6:	1141                	addi	sp,sp,-16
    1bf8:	c622                	sw	s0,12(sp)
    1bfa:	0800                	addi	s0,sp,16
E:/沁恒/例程/Example/5-UART Demo/user/src/isr.c:332
    if(TIM_GetITStatus(TIM7, TIM_IT_Update) != RESET)
    1bfc:	4585                	li	a1,1
    1bfe:	400017b7          	lui	a5,0x40001
    1c02:	40078513          	addi	a0,a5,1024 # 40001400 <_eusrstack+0x1fff1400>
    1c06:	46b000ef          	jal	ra,2870 <TIM_GetITStatus>
    1c0a:	87aa                	mv	a5,a0
    1c0c:	cb81                	beqz	a5,1c1c <TIM7_IRQHandler+0x26>
E:/沁恒/例程/Example/5-UART Demo/user/src/isr.c:334
    {
       TIM_ClearITPendingBit(TIM7, TIM_IT_Update );
    1c0e:	4585                	li	a1,1
    1c10:	400017b7          	lui	a5,0x40001
    1c14:	40078513          	addi	a0,a5,1024 # 40001400 <_eusrstack+0x1fff1400>
    1c18:	4c9000ef          	jal	ra,28e0 <TIM_ClearITPendingBit>
E:/沁恒/例程/Example/5-UART Demo/user/src/isr.c:338


    }
}
    1c1c:	0001                	nop
    1c1e:	4432                	lw	s0,12(sp)
    1c20:	0141                	addi	sp,sp,16
    1c22:	30200073          	mret

00001c26 <TIM8_UP_IRQHandler>:
TIM8_UP_IRQHandler():
E:/沁恒/例程/Example/5-UART Demo/user/src/isr.c:342


void TIM8_UP_IRQHandler(void)
{
    1c26:	1141                	addi	sp,sp,-16
    1c28:	c622                	sw	s0,12(sp)
    1c2a:	0800                	addi	s0,sp,16
E:/沁恒/例程/Example/5-UART Demo/user/src/isr.c:343
    if(TIM_GetITStatus(TIM8, TIM_IT_Update) != RESET)
    1c2c:	4585                	li	a1,1
    1c2e:	400137b7          	lui	a5,0x40013
    1c32:	40078513          	addi	a0,a5,1024 # 40013400 <_eusrstack+0x20003400>
    1c36:	43b000ef          	jal	ra,2870 <TIM_GetITStatus>
    1c3a:	87aa                	mv	a5,a0
    1c3c:	cb81                	beqz	a5,1c4c <TIM8_UP_IRQHandler+0x26>
E:/沁恒/例程/Example/5-UART Demo/user/src/isr.c:345
    {
        TIM_ClearITPendingBit(TIM8, TIM_IT_Update);
    1c3e:	4585                	li	a1,1
    1c40:	400137b7          	lui	a5,0x40013
    1c44:	40078513          	addi	a0,a5,1024 # 40013400 <_eusrstack+0x20003400>
    1c48:	499000ef          	jal	ra,28e0 <TIM_ClearITPendingBit>
E:/沁恒/例程/Example/5-UART Demo/user/src/isr.c:348

    }
}
    1c4c:	0001                	nop
    1c4e:	4432                	lw	s0,12(sp)
    1c50:	0141                	addi	sp,sp,16
    1c52:	30200073          	mret

00001c56 <TIM9_UP_IRQHandler>:
TIM9_UP_IRQHandler():
E:/沁恒/例程/Example/5-UART Demo/user/src/isr.c:352


void TIM9_UP_IRQHandler(void)
{
    1c56:	1141                	addi	sp,sp,-16
    1c58:	c622                	sw	s0,12(sp)
    1c5a:	0800                	addi	s0,sp,16
E:/沁恒/例程/Example/5-UART Demo/user/src/isr.c:353
    if(TIM_GetITStatus(TIM9, TIM_IT_Update) != RESET)
    1c5c:	4585                	li	a1,1
    1c5e:	400157b7          	lui	a5,0x40015
    1c62:	c0078513          	addi	a0,a5,-1024 # 40014c00 <_eusrstack+0x20004c00>
    1c66:	40b000ef          	jal	ra,2870 <TIM_GetITStatus>
    1c6a:	87aa                	mv	a5,a0
    1c6c:	cb81                	beqz	a5,1c7c <TIM9_UP_IRQHandler+0x26>
E:/沁恒/例程/Example/5-UART Demo/user/src/isr.c:355
    {
        TIM_ClearITPendingBit(TIM9, TIM_IT_Update);
    1c6e:	4585                	li	a1,1
    1c70:	400157b7          	lui	a5,0x40015
    1c74:	c0078513          	addi	a0,a5,-1024 # 40014c00 <_eusrstack+0x20004c00>
    1c78:	469000ef          	jal	ra,28e0 <TIM_ClearITPendingBit>
E:/沁恒/例程/Example/5-UART Demo/user/src/isr.c:358

    }
}
    1c7c:	0001                	nop
    1c7e:	4432                	lw	s0,12(sp)
    1c80:	0141                	addi	sp,sp,16
    1c82:	30200073          	mret

00001c86 <TIM10_UP_IRQHandler>:
TIM10_UP_IRQHandler():
E:/沁恒/例程/Example/5-UART Demo/user/src/isr.c:362


void TIM10_UP_IRQHandler(void)
{
    1c86:	1141                	addi	sp,sp,-16
    1c88:	c622                	sw	s0,12(sp)
    1c8a:	0800                	addi	s0,sp,16
E:/沁恒/例程/Example/5-UART Demo/user/src/isr.c:363
    if(TIM_GetITStatus(TIM10, TIM_IT_Update) != RESET)
    1c8c:	4585                	li	a1,1
    1c8e:	40015537          	lui	a0,0x40015
    1c92:	3df000ef          	jal	ra,2870 <TIM_GetITStatus>
    1c96:	87aa                	mv	a5,a0
    1c98:	c791                	beqz	a5,1ca4 <TIM10_UP_IRQHandler+0x1e>
E:/沁恒/例程/Example/5-UART Demo/user/src/isr.c:365
    {
        TIM_ClearITPendingBit(TIM10, TIM_IT_Update);
    1c9a:	4585                	li	a1,1
    1c9c:	40015537          	lui	a0,0x40015
    1ca0:	441000ef          	jal	ra,28e0 <TIM_ClearITPendingBit>
E:/沁恒/例程/Example/5-UART Demo/user/src/isr.c:368

    }
}
    1ca4:	0001                	nop
    1ca6:	4432                	lw	s0,12(sp)
    1ca8:	0141                	addi	sp,sp,16
    1caa:	30200073          	mret

00001cae <NMI_Handler>:
NMI_Handler():
E:/沁恒/例程/Example/5-UART Demo/user/src/isr.c:464
* Description    : This function handles NMI exception.
* Input          : None
* Return         : None
*******************************************************************************/
void NMI_Handler(void)
{
    1cae:	1141                	addi	sp,sp,-16
    1cb0:	c622                	sw	s0,12(sp)
    1cb2:	0800                	addi	s0,sp,16
E:/沁恒/例程/Example/5-UART Demo/user/src/isr.c:465
}
    1cb4:	0001                	nop
    1cb6:	4432                	lw	s0,12(sp)
    1cb8:	0141                	addi	sp,sp,16
    1cba:	30200073          	mret

00001cbe <HardFault_Handler>:
HardFault_Handler():
E:/沁恒/例程/Example/5-UART Demo/user/src/isr.c:474
* Description    : This function handles Hard Fault exception.
* Input          : None
* Return         : None
*******************************************************************************/
void HardFault_Handler(void)
{
    1cbe:	1141                	addi	sp,sp,-16
    1cc0:	c622                	sw	s0,12(sp)
    1cc2:	0800                	addi	s0,sp,16
E:/沁恒/例程/Example/5-UART Demo/user/src/isr.c:475 (discriminator 1)
  while (1)
    1cc4:	a001                	j	1cc4 <HardFault_Handler+0x6>

00001cc6 <main>:
main():
E:/沁恒/例程/Example/5-UART Demo/user/src/main.c:60

fifo_struct uart_data_fifo;

int16_t encoder_data;
int main(void)
{
    1cc6:	1141                	addi	sp,sp,-16
    1cc8:	c606                	sw	ra,12(sp)
    1cca:	c422                	sw	s0,8(sp)
    1ccc:	c24a                	sw	s2,4(sp)
    1cce:	c04e                	sw	s3,0(sp)
    1cd0:	0800                	addi	s0,sp,16
E:/沁恒/例程/Example/5-UART Demo/user/src/main.c:61
    interrupt_global_disable();            // 关闭总中断
    1cd2:	a17ff0ef          	jal	ra,16e8 <interrupt_global_disable>
E:/沁恒/例程/Example/5-UART Demo/user/src/main.c:62
    clock_init(SYSTEM_CLOCK_144M);      // 务必保留，设置系统时钟。
    1cd6:	089547b7          	lui	a5,0x8954
    1cda:	40078513          	addi	a0,a5,1024 # 8954400 <_data_lma+0x894b53c>
    1cde:	a04ff0ef          	jal	ra,ee2 <clock_init>
E:/沁恒/例程/Example/5-UART Demo/user/src/main.c:63
    debug_init();                       // 务必保留，本函数用于初始化MPU 时钟 调试串口
    1ce2:	d00ff0ef          	jal	ra,11e2 <debug_init>
E:/沁恒/例程/Example/5-UART Demo/user/src/main.c:66


    fifo_init(&uart_data_fifo, uart_get_data, 64);                              // 初始化 fifo 挂载缓冲区
    1ce6:	04000613          	li	a2,64
    1cea:	8d818593          	addi	a1,gp,-1832 # 200002f8 <uart_get_data>
    1cee:	95818513          	addi	a0,gp,-1704 # 20000378 <uart_data_fifo>
    1cf2:	d98ff0ef          	jal	ra,128a <fifo_init>
E:/沁恒/例程/Example/5-UART Demo/user/src/main.c:68

    uart_init(UART_INDEX, UART_BAUDRATE, UART_TX_PIN, UART_RX_PIN);             // 初始化编码器模块与引脚 正交解码编码器模式
    1cf6:	4685                	li	a3,1
    1cf8:	4601                	li	a2,0
    1cfa:	67f1                	lui	a5,0x1c
    1cfc:	20078593          	addi	a1,a5,512 # 1c200 <_data_lma+0x1333c>
    1d00:	4501                	li	a0,0
    1d02:	d37fe0ef          	jal	ra,a38 <uart_init>
E:/沁恒/例程/Example/5-UART Demo/user/src/main.c:69
    uart_rx_interrupt(UART_INDEX, ENABLE);                                      // 开启 UART_INDEX 的接收中断
    1d06:	4585                	li	a1,1
    1d08:	4501                	li	a0,0
    1d0a:	c4dfe0ef          	jal	ra,956 <uart_rx_interrupt>
E:/沁恒/例程/Example/5-UART Demo/user/src/main.c:70
    interrupt_set_priority(UART_PRIORITY, 0);                                   // 设置对应 UART_INDEX 的中断优先级为 0
    1d0e:	4581                	li	a1,0
    1d10:	03500513          	li	a0,53
    1d14:	971ff0ef          	jal	ra,1684 <interrupt_set_priority>
E:/沁恒/例程/Example/5-UART Demo/user/src/main.c:72

    uart_write_string(UART_INDEX, (const uint8 *)"UART Text.");                 // 输出测试信息
    1d18:	67a5                	lui	a5,0x9
    1d1a:	81c78593          	addi	a1,a5,-2020 # 881c <_sbrk+0x22>
    1d1e:	4501                	li	a0,0
    1d20:	bf9fe0ef          	jal	ra,918 <uart_write_string>
E:/沁恒/例程/Example/5-UART Demo/user/src/main.c:73
    uart_write_byte(UART_INDEX, '\r');                                          // 输出回车
    1d24:	45b5                	li	a1,13
    1d26:	4501                	li	a0,0
    1d28:	b55fe0ef          	jal	ra,87c <uart_write_byte>
E:/沁恒/例程/Example/5-UART Demo/user/src/main.c:74
    uart_write_byte(UART_INDEX, '\n');                                          // 输出换行
    1d2c:	45a9                	li	a1,10
    1d2e:	4501                	li	a0,0
    1d30:	b4dfe0ef          	jal	ra,87c <uart_write_byte>
E:/沁恒/例程/Example/5-UART Demo/user/src/main.c:76

    interrupt_global_enable();            // 总中断最后开启
    1d34:	987ff0ef          	jal	ra,16ba <interrupt_global_enable>
E:/沁恒/例程/Example/5-UART Demo/user/src/main.c:80
    while(1)
    {
        // 此处编写需要循环执行的代码
        fifo_data_count = fifo_used(&uart_data_fifo);                           // 查看 fifo 是否有数据
    1d38:	95818513          	addi	a0,gp,-1704 # 20000378 <uart_data_fifo>
    1d3c:	e3eff0ef          	jal	ra,137a <fifo_used>
    1d40:	872a                	mv	a4,a0
    1d42:	84e1ac23          	sw	a4,-1960(gp) # 20000278 <fifo_data_count>
E:/沁恒/例程/Example/5-UART Demo/user/src/main.c:81
        if(fifo_data_count != 0)                                                // 读取到数据了
    1d46:	8581a783          	lw	a5,-1960(gp) # 20000278 <fifo_data_count>
    1d4a:	cb85                	beqz	a5,1d7a <main+0xb4>
E:/沁恒/例程/Example/5-UART Demo/user/src/main.c:83
        {
            fifo_read_buffer(&uart_data_fifo, fifo_get_data, &fifo_data_count, FIFO_READ_AND_CLEAN);    // 将 fifo 中数据读出并清空 fifo 挂载的缓冲
    1d4c:	4681                	li	a3,0
    1d4e:	85818613          	addi	a2,gp,-1960 # 20000278 <fifo_data_count>
    1d52:	91818593          	addi	a1,gp,-1768 # 20000338 <fifo_get_data>
    1d56:	95818513          	addi	a0,gp,-1704 # 20000378 <uart_data_fifo>
    1d5a:	f42ff0ef          	jal	ra,149c <fifo_read_buffer>
E:/沁恒/例程/Example/5-UART Demo/user/src/main.c:84
            uart_write_string(UART_INDEX, (const uint8 *)"\r\nUART get data:");                // 输出测试信息
    1d5e:	67a5                	lui	a5,0x9
    1d60:	82878593          	addi	a1,a5,-2008 # 8828 <_sbrk+0x2e>
    1d64:	4501                	li	a0,0
    1d66:	bb3fe0ef          	jal	ra,918 <uart_write_string>
E:/沁恒/例程/Example/5-UART Demo/user/src/main.c:85
            uart_write_buffer(UART_INDEX, fifo_get_data, fifo_data_count);      // 将读取到的数据发送出去
    1d6a:	8581a783          	lw	a5,-1960(gp) # 20000278 <fifo_data_count>
    1d6e:	863e                	mv	a2,a5
    1d70:	91818593          	addi	a1,gp,-1768 # 20000338 <fifo_get_data>
    1d74:	4501                	li	a0,0
    1d76:	b5dfe0ef          	jal	ra,8d2 <uart_write_buffer>
E:/沁恒/例程/Example/5-UART Demo/user/src/main.c:87
        }
       delay_ms(10);
    1d7a:	8481a703          	lw	a4,-1976(gp) # 20000268 <system_clock>
    1d7e:	6789                	lui	a5,0x2
    1d80:	f4078793          	addi	a5,a5,-192 # 1f40 <SystemInit+0x2c>
    1d84:	02f75733          	divu	a4,a4,a5
    1d88:	87ba                	mv	a5,a4
    1d8a:	078a                	slli	a5,a5,0x2
    1d8c:	97ba                	add	a5,a5,a4
    1d8e:	0786                	slli	a5,a5,0x1
    1d90:	893e                	mv	s2,a5
    1d92:	4981                	li	s3,0
    1d94:	854a                	mv	a0,s2
    1d96:	85ce                	mv	a1,s3
    1d98:	d24fe0ef          	jal	ra,2bc <system_delay>
E:/沁恒/例程/Example/5-UART Demo/user/src/main.c:80
        fifo_data_count = fifo_used(&uart_data_fifo);                           // 查看 fifo 是否有数据
    1d9c:	bf71                	j	1d38 <main+0x72>

00001d9e <uart_rx_interrupt_handler>:
uart_rx_interrupt_handler():
E:/沁恒/例程/Example/5-UART Demo/user/src/main.c:98
// @param       void
// @return      void
// Sample usage:                uart_rx_interrupt_handler();
//-------------------------------------------------------------------------------------------------------------------
void uart_rx_interrupt_handler (void)
{
    1d9e:	1141                	addi	sp,sp,-16
    1da0:	c606                	sw	ra,12(sp)
    1da2:	c422                	sw	s0,8(sp)
    1da4:	0800                	addi	s0,sp,16
E:/沁恒/例程/Example/5-UART Demo/user/src/main.c:100
//    get_data = uart_read_byte(UART_INDEX);                                      // 接收数据 while 等待式 不建议在中断使用
    uart_query_byte(UART_INDEX, &get_data);                                     // 接收数据 查询式 有数据会返回 TRUE 没有数据会返回 FALSE
    1da6:	85418593          	addi	a1,gp,-1964 # 20000274 <get_data>
    1daa:	4501                	li	a0,0
    1dac:	c2ffe0ef          	jal	ra,9da <uart_query_byte>
E:/沁恒/例程/Example/5-UART Demo/user/src/main.c:101
    fifo_write_buffer(&uart_data_fifo, &get_data, 1);                           // 将数据写入 fifo 中
    1db0:	4605                	li	a2,1
    1db2:	85418593          	addi	a1,gp,-1964 # 20000274 <get_data>
    1db6:	95818513          	addi	a0,gp,-1704 # 20000378 <uart_data_fifo>
    1dba:	de2ff0ef          	jal	ra,139c <fifo_write_buffer>
E:/沁恒/例程/Example/5-UART Demo/user/src/main.c:102
}
    1dbe:	0001                	nop
    1dc0:	40b2                	lw	ra,12(sp)
    1dc2:	4422                	lw	s0,8(sp)
    1dc4:	0141                	addi	sp,sp,16
    1dc6:	8082                	ret
E:/沁恒/例程/Example/libraries/sdk/Startup/startup_ch32v30x.S:236
    .weak   DMA2_Channel8_IRQHandler   /* DMA2 Channel 8 */
    .weak   DMA2_Channel9_IRQHandler   /* DMA2 Channel 9 */
    .weak   DMA2_Channel10_IRQHandler  /* DMA2 Channel 10 */
    .weak   DMA2_Channel11_IRQHandler  /* DMA2 Channel 11 */

NMI_Handler:  1:  j 1b
    1dc8:	a001                	j	1dc8 <uart_rx_interrupt_handler+0x2a>
E:/沁恒/例程/Example/libraries/sdk/Startup/startup_ch32v30x.S:237
HardFault_Handler:  1:  j 1b
    1dca:	a001                	j	1dca <uart_rx_interrupt_handler+0x2c>

00001dcc <Ecall_M_Mode_Handler>:
Ecall_M_Mode_Handler():
E:/沁恒/例程/Example/libraries/sdk/Startup/startup_ch32v30x.S:238
Ecall_M_Mode_Handler:  1:  j 1b
    1dcc:	a001                	j	1dcc <Ecall_M_Mode_Handler>

00001dce <Ecall_U_Mode_Handler>:
Ecall_U_Mode_Handler():
E:/沁恒/例程/Example/libraries/sdk/Startup/startup_ch32v30x.S:239
Ecall_U_Mode_Handler:  1:  j 1b
    1dce:	a001                	j	1dce <Ecall_U_Mode_Handler>

00001dd0 <Break_Point_Handler>:
Break_Point_Handler():
E:/沁恒/例程/Example/libraries/sdk/Startup/startup_ch32v30x.S:240
Break_Point_Handler:  1:  j 1b
    1dd0:	a001                	j	1dd0 <Break_Point_Handler>

00001dd2 <SysTick_Handler>:
SysTick_Handler():
E:/沁恒/例程/Example/libraries/sdk/Startup/startup_ch32v30x.S:241
SysTick_Handler:  1:  j 1b
    1dd2:	a001                	j	1dd2 <SysTick_Handler>

00001dd4 <SW_handler>:
SW_handler():
E:/沁恒/例程/Example/libraries/sdk/Startup/startup_ch32v30x.S:242
SW_handler:  1:  j 1b
    1dd4:	a001                	j	1dd4 <SW_handler>

00001dd6 <WWDG_IRQHandler>:
WWDG_IRQHandler():
E:/沁恒/例程/Example/libraries/sdk/Startup/startup_ch32v30x.S:243
WWDG_IRQHandler:  1:  j 1b
    1dd6:	a001                	j	1dd6 <WWDG_IRQHandler>

00001dd8 <PVD_IRQHandler>:
PVD_IRQHandler():
E:/沁恒/例程/Example/libraries/sdk/Startup/startup_ch32v30x.S:244
PVD_IRQHandler:  1:  j 1b
    1dd8:	a001                	j	1dd8 <PVD_IRQHandler>

00001dda <TAMPER_IRQHandler>:
TAMPER_IRQHandler():
E:/沁恒/例程/Example/libraries/sdk/Startup/startup_ch32v30x.S:245
TAMPER_IRQHandler:  1:  j 1b
    1dda:	a001                	j	1dda <TAMPER_IRQHandler>

00001ddc <RTC_IRQHandler>:
RTC_IRQHandler():
E:/沁恒/例程/Example/libraries/sdk/Startup/startup_ch32v30x.S:246
RTC_IRQHandler:  1:  j 1b
    1ddc:	a001                	j	1ddc <RTC_IRQHandler>

00001dde <FLASH_IRQHandler>:
FLASH_IRQHandler():
E:/沁恒/例程/Example/libraries/sdk/Startup/startup_ch32v30x.S:247
FLASH_IRQHandler:  1:  j 1b
    1dde:	a001                	j	1dde <FLASH_IRQHandler>

00001de0 <RCC_IRQHandler>:
RCC_IRQHandler():
E:/沁恒/例程/Example/libraries/sdk/Startup/startup_ch32v30x.S:248
RCC_IRQHandler:  1:  j 1b
    1de0:	a001                	j	1de0 <RCC_IRQHandler>
E:/沁恒/例程/Example/libraries/sdk/Startup/startup_ch32v30x.S:249
EXTI0_IRQHandler:  1:  j 1b
    1de2:	a001                	j	1de2 <RCC_IRQHandler+0x2>
E:/沁恒/例程/Example/libraries/sdk/Startup/startup_ch32v30x.S:250
EXTI1_IRQHandler:  1:  j 1b
    1de4:	a001                	j	1de4 <RCC_IRQHandler+0x4>
E:/沁恒/例程/Example/libraries/sdk/Startup/startup_ch32v30x.S:251
EXTI2_IRQHandler:  1:  j 1b
    1de6:	a001                	j	1de6 <RCC_IRQHandler+0x6>
E:/沁恒/例程/Example/libraries/sdk/Startup/startup_ch32v30x.S:252
EXTI3_IRQHandler:  1:  j 1b
    1de8:	a001                	j	1de8 <RCC_IRQHandler+0x8>
E:/沁恒/例程/Example/libraries/sdk/Startup/startup_ch32v30x.S:253
EXTI4_IRQHandler:  1:  j 1b
    1dea:	a001                	j	1dea <RCC_IRQHandler+0xa>

00001dec <DMA1_Channel1_IRQHandler>:
DMA1_Channel1_IRQHandler():
E:/沁恒/例程/Example/libraries/sdk/Startup/startup_ch32v30x.S:254
DMA1_Channel1_IRQHandler:  1:  j 1b
    1dec:	a001                	j	1dec <DMA1_Channel1_IRQHandler>

00001dee <DMA1_Channel2_IRQHandler>:
DMA1_Channel2_IRQHandler():
E:/沁恒/例程/Example/libraries/sdk/Startup/startup_ch32v30x.S:255
DMA1_Channel2_IRQHandler:  1:  j 1b
    1dee:	a001                	j	1dee <DMA1_Channel2_IRQHandler>

00001df0 <DMA1_Channel3_IRQHandler>:
DMA1_Channel3_IRQHandler():
E:/沁恒/例程/Example/libraries/sdk/Startup/startup_ch32v30x.S:256
DMA1_Channel3_IRQHandler:  1:  j 1b
    1df0:	a001                	j	1df0 <DMA1_Channel3_IRQHandler>

00001df2 <DMA1_Channel4_IRQHandler>:
DMA1_Channel4_IRQHandler():
E:/沁恒/例程/Example/libraries/sdk/Startup/startup_ch32v30x.S:257
DMA1_Channel4_IRQHandler:  1:  j 1b
    1df2:	a001                	j	1df2 <DMA1_Channel4_IRQHandler>

00001df4 <DMA1_Channel5_IRQHandler>:
DMA1_Channel5_IRQHandler():
E:/沁恒/例程/Example/libraries/sdk/Startup/startup_ch32v30x.S:258
DMA1_Channel5_IRQHandler:  1:  j 1b
    1df4:	a001                	j	1df4 <DMA1_Channel5_IRQHandler>

00001df6 <DMA1_Channel6_IRQHandler>:
DMA1_Channel6_IRQHandler():
E:/沁恒/例程/Example/libraries/sdk/Startup/startup_ch32v30x.S:259
DMA1_Channel6_IRQHandler:  1:  j 1b
    1df6:	a001                	j	1df6 <DMA1_Channel6_IRQHandler>

00001df8 <DMA1_Channel7_IRQHandler>:
DMA1_Channel7_IRQHandler():
E:/沁恒/例程/Example/libraries/sdk/Startup/startup_ch32v30x.S:260
DMA1_Channel7_IRQHandler:  1:  j 1b
    1df8:	a001                	j	1df8 <DMA1_Channel7_IRQHandler>

00001dfa <ADC1_2_IRQHandler>:
ADC1_2_IRQHandler():
E:/沁恒/例程/Example/libraries/sdk/Startup/startup_ch32v30x.S:261
ADC1_2_IRQHandler:  1:  j 1b
    1dfa:	a001                	j	1dfa <ADC1_2_IRQHandler>

00001dfc <USB_HP_CAN1_TX_IRQHandler>:
USB_HP_CAN1_TX_IRQHandler():
E:/沁恒/例程/Example/libraries/sdk/Startup/startup_ch32v30x.S:262
USB_HP_CAN1_TX_IRQHandler:  1:  j 1b
    1dfc:	a001                	j	1dfc <USB_HP_CAN1_TX_IRQHandler>

00001dfe <USB_LP_CAN1_RX0_IRQHandler>:
USB_LP_CAN1_RX0_IRQHandler():
E:/沁恒/例程/Example/libraries/sdk/Startup/startup_ch32v30x.S:263
USB_LP_CAN1_RX0_IRQHandler:  1:  j 1b
    1dfe:	a001                	j	1dfe <USB_LP_CAN1_RX0_IRQHandler>

00001e00 <CAN1_RX1_IRQHandler>:
CAN1_RX1_IRQHandler():
E:/沁恒/例程/Example/libraries/sdk/Startup/startup_ch32v30x.S:264
CAN1_RX1_IRQHandler:  1:  j 1b
    1e00:	a001                	j	1e00 <CAN1_RX1_IRQHandler>

00001e02 <CAN1_SCE_IRQHandler>:
CAN1_SCE_IRQHandler():
E:/沁恒/例程/Example/libraries/sdk/Startup/startup_ch32v30x.S:265
CAN1_SCE_IRQHandler:  1:  j 1b
    1e02:	a001                	j	1e02 <CAN1_SCE_IRQHandler>
E:/沁恒/例程/Example/libraries/sdk/Startup/startup_ch32v30x.S:266
EXTI9_5_IRQHandler:  1:  j 1b
    1e04:	a001                	j	1e04 <CAN1_SCE_IRQHandler+0x2>

00001e06 <TIM1_BRK_IRQHandler>:
TIM1_BRK_IRQHandler():
E:/沁恒/例程/Example/libraries/sdk/Startup/startup_ch32v30x.S:267
TIM1_BRK_IRQHandler:  1:  j 1b
    1e06:	a001                	j	1e06 <TIM1_BRK_IRQHandler>
E:/沁恒/例程/Example/libraries/sdk/Startup/startup_ch32v30x.S:268
TIM1_UP_IRQHandler:  1:  j 1b
    1e08:	a001                	j	1e08 <TIM1_BRK_IRQHandler+0x2>

00001e0a <TIM1_TRG_COM_IRQHandler>:
TIM1_TRG_COM_IRQHandler():
E:/沁恒/例程/Example/libraries/sdk/Startup/startup_ch32v30x.S:269
TIM1_TRG_COM_IRQHandler:  1:  j 1b
    1e0a:	a001                	j	1e0a <TIM1_TRG_COM_IRQHandler>

00001e0c <TIM1_CC_IRQHandler>:
TIM1_CC_IRQHandler():
E:/沁恒/例程/Example/libraries/sdk/Startup/startup_ch32v30x.S:270
TIM1_CC_IRQHandler:  1:  j 1b
    1e0c:	a001                	j	1e0c <TIM1_CC_IRQHandler>
E:/沁恒/例程/Example/libraries/sdk/Startup/startup_ch32v30x.S:271
TIM2_IRQHandler:  1:  j 1b
    1e0e:	a001                	j	1e0e <TIM1_CC_IRQHandler+0x2>
E:/沁恒/例程/Example/libraries/sdk/Startup/startup_ch32v30x.S:272
TIM3_IRQHandler:  1:  j 1b
    1e10:	a001                	j	1e10 <TIM1_CC_IRQHandler+0x4>
E:/沁恒/例程/Example/libraries/sdk/Startup/startup_ch32v30x.S:273
TIM4_IRQHandler:  1:  j 1b
    1e12:	a001                	j	1e12 <TIM1_CC_IRQHandler+0x6>

00001e14 <I2C1_EV_IRQHandler>:
I2C1_EV_IRQHandler():
E:/沁恒/例程/Example/libraries/sdk/Startup/startup_ch32v30x.S:274
I2C1_EV_IRQHandler:  1:  j 1b
    1e14:	a001                	j	1e14 <I2C1_EV_IRQHandler>

00001e16 <I2C1_ER_IRQHandler>:
I2C1_ER_IRQHandler():
E:/沁恒/例程/Example/libraries/sdk/Startup/startup_ch32v30x.S:275
I2C1_ER_IRQHandler:  1:  j 1b
    1e16:	a001                	j	1e16 <I2C1_ER_IRQHandler>

00001e18 <I2C2_EV_IRQHandler>:
I2C2_EV_IRQHandler():
E:/沁恒/例程/Example/libraries/sdk/Startup/startup_ch32v30x.S:276
I2C2_EV_IRQHandler:  1:  j 1b
    1e18:	a001                	j	1e18 <I2C2_EV_IRQHandler>

00001e1a <I2C2_ER_IRQHandler>:
I2C2_ER_IRQHandler():
E:/沁恒/例程/Example/libraries/sdk/Startup/startup_ch32v30x.S:277
I2C2_ER_IRQHandler:  1:  j 1b
    1e1a:	a001                	j	1e1a <I2C2_ER_IRQHandler>

00001e1c <SPI1_IRQHandler>:
SPI1_IRQHandler():
E:/沁恒/例程/Example/libraries/sdk/Startup/startup_ch32v30x.S:278
SPI1_IRQHandler:  1:  j 1b
    1e1c:	a001                	j	1e1c <SPI1_IRQHandler>

00001e1e <SPI2_IRQHandler>:
SPI2_IRQHandler():
E:/沁恒/例程/Example/libraries/sdk/Startup/startup_ch32v30x.S:279
SPI2_IRQHandler:  1:  j 1b
    1e1e:	a001                	j	1e1e <SPI2_IRQHandler>
E:/沁恒/例程/Example/libraries/sdk/Startup/startup_ch32v30x.S:280
USART1_IRQHandler:  1:  j 1b
    1e20:	a001                	j	1e20 <SPI2_IRQHandler+0x2>
E:/沁恒/例程/Example/libraries/sdk/Startup/startup_ch32v30x.S:281
USART2_IRQHandler:  1:  j 1b
    1e22:	a001                	j	1e22 <SPI2_IRQHandler+0x4>
E:/沁恒/例程/Example/libraries/sdk/Startup/startup_ch32v30x.S:282
USART3_IRQHandler:  1:  j 1b
    1e24:	a001                	j	1e24 <SPI2_IRQHandler+0x6>
E:/沁恒/例程/Example/libraries/sdk/Startup/startup_ch32v30x.S:283
EXTI15_10_IRQHandler:  1:  j 1b
    1e26:	a001                	j	1e26 <SPI2_IRQHandler+0x8>

00001e28 <RTCAlarm_IRQHandler>:
RTCAlarm_IRQHandler():
E:/沁恒/例程/Example/libraries/sdk/Startup/startup_ch32v30x.S:284
RTCAlarm_IRQHandler:  1:  j 1b
    1e28:	a001                	j	1e28 <RTCAlarm_IRQHandler>

00001e2a <USBWakeUp_IRQHandler>:
USBWakeUp_IRQHandler():
E:/沁恒/例程/Example/libraries/sdk/Startup/startup_ch32v30x.S:285
USBWakeUp_IRQHandler:  1:  j 1b
    1e2a:	a001                	j	1e2a <USBWakeUp_IRQHandler>

00001e2c <TIM8_BRK_IRQHandler>:
TIM8_BRK_IRQHandler():
E:/沁恒/例程/Example/libraries/sdk/Startup/startup_ch32v30x.S:286
TIM8_BRK_IRQHandler:  1:  j 1b
    1e2c:	a001                	j	1e2c <TIM8_BRK_IRQHandler>
E:/沁恒/例程/Example/libraries/sdk/Startup/startup_ch32v30x.S:287
TIM8_UP_IRQHandler:  1:  j 1b
    1e2e:	a001                	j	1e2e <TIM8_BRK_IRQHandler+0x2>

00001e30 <TIM8_TRG_COM_IRQHandler>:
TIM8_TRG_COM_IRQHandler():
E:/沁恒/例程/Example/libraries/sdk/Startup/startup_ch32v30x.S:288
TIM8_TRG_COM_IRQHandler:  1:  j 1b
    1e30:	a001                	j	1e30 <TIM8_TRG_COM_IRQHandler>

00001e32 <TIM8_CC_IRQHandler>:
TIM8_CC_IRQHandler():
E:/沁恒/例程/Example/libraries/sdk/Startup/startup_ch32v30x.S:289
TIM8_CC_IRQHandler:  1:  j 1b
    1e32:	a001                	j	1e32 <TIM8_CC_IRQHandler>

00001e34 <RNG_IRQHandler>:
RNG_IRQHandler():
E:/沁恒/例程/Example/libraries/sdk/Startup/startup_ch32v30x.S:290
RNG_IRQHandler:  1:  j 1b
    1e34:	a001                	j	1e34 <RNG_IRQHandler>

00001e36 <FSMC_IRQHandler>:
FSMC_IRQHandler():
E:/沁恒/例程/Example/libraries/sdk/Startup/startup_ch32v30x.S:291
FSMC_IRQHandler:  1:  j 1b
    1e36:	a001                	j	1e36 <FSMC_IRQHandler>

00001e38 <SDIO_IRQHandler>:
SDIO_IRQHandler():
E:/沁恒/例程/Example/libraries/sdk/Startup/startup_ch32v30x.S:292
SDIO_IRQHandler:  1:  j 1b
    1e38:	a001                	j	1e38 <SDIO_IRQHandler>
E:/沁恒/例程/Example/libraries/sdk/Startup/startup_ch32v30x.S:293
TIM5_IRQHandler:  1:  j 1b
    1e3a:	a001                	j	1e3a <SDIO_IRQHandler+0x2>

00001e3c <SPI3_IRQHandler>:
SPI3_IRQHandler():
E:/沁恒/例程/Example/libraries/sdk/Startup/startup_ch32v30x.S:294
SPI3_IRQHandler:  1:  j 1b
    1e3c:	a001                	j	1e3c <SPI3_IRQHandler>
E:/沁恒/例程/Example/libraries/sdk/Startup/startup_ch32v30x.S:295
UART4_IRQHandler:  1:  j 1b
    1e3e:	a001                	j	1e3e <SPI3_IRQHandler+0x2>
E:/沁恒/例程/Example/libraries/sdk/Startup/startup_ch32v30x.S:296
UART5_IRQHandler:  1:  j 1b
    1e40:	a001                	j	1e40 <SPI3_IRQHandler+0x4>
E:/沁恒/例程/Example/libraries/sdk/Startup/startup_ch32v30x.S:297
TIM6_IRQHandler:  1:  j 1b
    1e42:	a001                	j	1e42 <SPI3_IRQHandler+0x6>
E:/沁恒/例程/Example/libraries/sdk/Startup/startup_ch32v30x.S:298
TIM7_IRQHandler:  1:  j 1b
    1e44:	a001                	j	1e44 <SPI3_IRQHandler+0x8>

00001e46 <DMA2_Channel1_IRQHandler>:
DMA2_Channel1_IRQHandler():
E:/沁恒/例程/Example/libraries/sdk/Startup/startup_ch32v30x.S:299
DMA2_Channel1_IRQHandler:  1:  j 1b
    1e46:	a001                	j	1e46 <DMA2_Channel1_IRQHandler>

00001e48 <DMA2_Channel2_IRQHandler>:
DMA2_Channel2_IRQHandler():
E:/沁恒/例程/Example/libraries/sdk/Startup/startup_ch32v30x.S:300
DMA2_Channel2_IRQHandler:  1:  j 1b
    1e48:	a001                	j	1e48 <DMA2_Channel2_IRQHandler>

00001e4a <DMA2_Channel3_IRQHandler>:
DMA2_Channel3_IRQHandler():
E:/沁恒/例程/Example/libraries/sdk/Startup/startup_ch32v30x.S:301
DMA2_Channel3_IRQHandler:  1:  j 1b
    1e4a:	a001                	j	1e4a <DMA2_Channel3_IRQHandler>

00001e4c <DMA2_Channel4_IRQHandler>:
DMA2_Channel4_IRQHandler():
E:/沁恒/例程/Example/libraries/sdk/Startup/startup_ch32v30x.S:302
DMA2_Channel4_IRQHandler:  1:  j 1b
    1e4c:	a001                	j	1e4c <DMA2_Channel4_IRQHandler>

00001e4e <DMA2_Channel5_IRQHandler>:
DMA2_Channel5_IRQHandler():
E:/沁恒/例程/Example/libraries/sdk/Startup/startup_ch32v30x.S:303
DMA2_Channel5_IRQHandler:  1:  j 1b
    1e4e:	a001                	j	1e4e <DMA2_Channel5_IRQHandler>

00001e50 <ETH_IRQHandler>:
ETH_IRQHandler():
E:/沁恒/例程/Example/libraries/sdk/Startup/startup_ch32v30x.S:304
ETH_IRQHandler:  1:  j 1b
    1e50:	a001                	j	1e50 <ETH_IRQHandler>

00001e52 <ETH_WKUP_IRQHandler>:
ETH_WKUP_IRQHandler():
E:/沁恒/例程/Example/libraries/sdk/Startup/startup_ch32v30x.S:305
ETH_WKUP_IRQHandler:  1:  j 1b
    1e52:	a001                	j	1e52 <ETH_WKUP_IRQHandler>

00001e54 <CAN2_TX_IRQHandler>:
CAN2_TX_IRQHandler():
E:/沁恒/例程/Example/libraries/sdk/Startup/startup_ch32v30x.S:306
CAN2_TX_IRQHandler:  1:  j 1b
    1e54:	a001                	j	1e54 <CAN2_TX_IRQHandler>

00001e56 <CAN2_RX0_IRQHandler>:
CAN2_RX0_IRQHandler():
E:/沁恒/例程/Example/libraries/sdk/Startup/startup_ch32v30x.S:307
CAN2_RX0_IRQHandler:  1:  j 1b
    1e56:	a001                	j	1e56 <CAN2_RX0_IRQHandler>

00001e58 <CAN2_RX1_IRQHandler>:
CAN2_RX1_IRQHandler():
E:/沁恒/例程/Example/libraries/sdk/Startup/startup_ch32v30x.S:308
CAN2_RX1_IRQHandler:  1:  j 1b
    1e58:	a001                	j	1e58 <CAN2_RX1_IRQHandler>

00001e5a <CAN2_SCE_IRQHandler>:
CAN2_SCE_IRQHandler():
E:/沁恒/例程/Example/libraries/sdk/Startup/startup_ch32v30x.S:309
CAN2_SCE_IRQHandler:  1:  j 1b
    1e5a:	a001                	j	1e5a <CAN2_SCE_IRQHandler>
E:/沁恒/例程/Example/libraries/sdk/Startup/startup_ch32v30x.S:310
OTG_FS_IRQHandler:  1:  j 1b
    1e5c:	a001                	j	1e5c <CAN2_SCE_IRQHandler+0x2>

00001e5e <USBHSWakeup_IRQHandler>:
USBHSWakeup_IRQHandler():
E:/沁恒/例程/Example/libraries/sdk/Startup/startup_ch32v30x.S:311
USBHSWakeup_IRQHandler:  1:  j 1b
    1e5e:	a001                	j	1e5e <USBHSWakeup_IRQHandler>

00001e60 <USBHS_IRQHandler>:
USBHS_IRQHandler():
E:/沁恒/例程/Example/libraries/sdk/Startup/startup_ch32v30x.S:312
USBHS_IRQHandler:  1:  j 1b
    1e60:	a001                	j	1e60 <USBHS_IRQHandler>
E:/沁恒/例程/Example/libraries/sdk/Startup/startup_ch32v30x.S:313
DVP_IRQHandler:  1:  j 1b
    1e62:	a001                	j	1e62 <USBHS_IRQHandler+0x2>
E:/沁恒/例程/Example/libraries/sdk/Startup/startup_ch32v30x.S:314
UART6_IRQHandler:  1:  j 1b
    1e64:	a001                	j	1e64 <USBHS_IRQHandler+0x4>
E:/沁恒/例程/Example/libraries/sdk/Startup/startup_ch32v30x.S:315
UART7_IRQHandler:  1:  j 1b
    1e66:	a001                	j	1e66 <USBHS_IRQHandler+0x6>
E:/沁恒/例程/Example/libraries/sdk/Startup/startup_ch32v30x.S:316
UART8_IRQHandler:  1:  j 1b
    1e68:	a001                	j	1e68 <USBHS_IRQHandler+0x8>

00001e6a <TIM9_BRK_IRQHandler>:
TIM9_BRK_IRQHandler():
E:/沁恒/例程/Example/libraries/sdk/Startup/startup_ch32v30x.S:317
TIM9_BRK_IRQHandler:  1:  j 1b
    1e6a:	a001                	j	1e6a <TIM9_BRK_IRQHandler>
E:/沁恒/例程/Example/libraries/sdk/Startup/startup_ch32v30x.S:318
TIM9_UP_IRQHandler:  1:  j 1b
    1e6c:	a001                	j	1e6c <TIM9_BRK_IRQHandler+0x2>

00001e6e <TIM9_TRG_COM_IRQHandler>:
TIM9_TRG_COM_IRQHandler():
E:/沁恒/例程/Example/libraries/sdk/Startup/startup_ch32v30x.S:319
TIM9_TRG_COM_IRQHandler:  1:  j 1b
    1e6e:	a001                	j	1e6e <TIM9_TRG_COM_IRQHandler>

00001e70 <TIM9_CC_IRQHandler>:
TIM9_CC_IRQHandler():
E:/沁恒/例程/Example/libraries/sdk/Startup/startup_ch32v30x.S:320
TIM9_CC_IRQHandler:  1:  j 1b
    1e70:	a001                	j	1e70 <TIM9_CC_IRQHandler>

00001e72 <TIM10_BRK_IRQHandler>:
TIM10_BRK_IRQHandler():
E:/沁恒/例程/Example/libraries/sdk/Startup/startup_ch32v30x.S:321
TIM10_BRK_IRQHandler:  1:  j 1b
    1e72:	a001                	j	1e72 <TIM10_BRK_IRQHandler>
E:/沁恒/例程/Example/libraries/sdk/Startup/startup_ch32v30x.S:322
TIM10_UP_IRQHandler:  1:  j 1b
    1e74:	a001                	j	1e74 <TIM10_BRK_IRQHandler+0x2>

00001e76 <TIM10_TRG_COM_IRQHandler>:
TIM10_TRG_COM_IRQHandler():
E:/沁恒/例程/Example/libraries/sdk/Startup/startup_ch32v30x.S:323
TIM10_TRG_COM_IRQHandler:  1:  j 1b
    1e76:	a001                	j	1e76 <TIM10_TRG_COM_IRQHandler>

00001e78 <TIM10_CC_IRQHandler>:
TIM10_CC_IRQHandler():
E:/沁恒/例程/Example/libraries/sdk/Startup/startup_ch32v30x.S:324
TIM10_CC_IRQHandler:  1:  j 1b
    1e78:	a001                	j	1e78 <TIM10_CC_IRQHandler>

00001e7a <DMA2_Channel6_IRQHandler>:
DMA2_Channel6_IRQHandler():
E:/沁恒/例程/Example/libraries/sdk/Startup/startup_ch32v30x.S:325
DMA2_Channel6_IRQHandler:  1:  j 1b
    1e7a:	a001                	j	1e7a <DMA2_Channel6_IRQHandler>

00001e7c <DMA2_Channel7_IRQHandler>:
DMA2_Channel7_IRQHandler():
E:/沁恒/例程/Example/libraries/sdk/Startup/startup_ch32v30x.S:326
DMA2_Channel7_IRQHandler:  1:  j 1b
    1e7c:	a001                	j	1e7c <DMA2_Channel7_IRQHandler>

00001e7e <DMA2_Channel8_IRQHandler>:
DMA2_Channel8_IRQHandler():
E:/沁恒/例程/Example/libraries/sdk/Startup/startup_ch32v30x.S:327
DMA2_Channel8_IRQHandler:  1:  j 1b
    1e7e:	a001                	j	1e7e <DMA2_Channel8_IRQHandler>

00001e80 <DMA2_Channel9_IRQHandler>:
DMA2_Channel9_IRQHandler():
E:/沁恒/例程/Example/libraries/sdk/Startup/startup_ch32v30x.S:328
DMA2_Channel9_IRQHandler:  1:  j 1b
    1e80:	a001                	j	1e80 <DMA2_Channel9_IRQHandler>

00001e82 <DMA2_Channel10_IRQHandler>:
DMA2_Channel10_IRQHandler():
E:/沁恒/例程/Example/libraries/sdk/Startup/startup_ch32v30x.S:329
DMA2_Channel10_IRQHandler:  1:  j 1b
    1e82:	a001                	j	1e82 <DMA2_Channel10_IRQHandler>

00001e84 <DMA2_Channel11_IRQHandler>:
DMA2_Channel11_IRQHandler():
E:/沁恒/例程/Example/libraries/sdk/Startup/startup_ch32v30x.S:330
DMA2_Channel11_IRQHandler:  1:  j 1b
    1e84:	a001                	j	1e84 <DMA2_Channel11_IRQHandler>

00001e86 <handle_reset>:
handle_reset():
E:/沁恒/例程/Example/libraries/sdk/Startup/startup_ch32v30x.S:340
	.align	1
handle_reset:
.option push 
.option	norelax 

    csrw mepc, t0
    1e86:	34129073          	csrw	mepc,t0
E:/沁恒/例程/Example/libraries/sdk/Startup/startup_ch32v30x.S:341
	la gp, __global_pointer$
    1e8a:	1ffff197          	auipc	gp,0x1ffff
    1e8e:	b9618193          	addi	gp,gp,-1130 # 20000a20 <__global_pointer$>
E:/沁恒/例程/Example/libraries/sdk/Startup/startup_ch32v30x.S:344
.option	pop 
1:
	la sp, _eusrstack 
    1e92:	2000e117          	auipc	sp,0x2000e
    1e96:	16e10113          	addi	sp,sp,366 # 20010000 <_eusrstack>
E:/沁恒/例程/Example/libraries/sdk/Startup/startup_ch32v30x.S:347
2:
	/* Load data section from flash to RAM */
	la a0, _data_lma
    1e9a:	00007517          	auipc	a0,0x7
    1e9e:	02a50513          	addi	a0,a0,42 # 8ec4 <_data_lma>
E:/沁恒/例程/Example/libraries/sdk/Startup/startup_ch32v30x.S:348
	la a1, _data_vma
    1ea2:	1fffe597          	auipc	a1,0x1fffe
    1ea6:	15e58593          	addi	a1,a1,350 # 20000000 <_data_vma>
E:/沁恒/例程/Example/libraries/sdk/Startup/startup_ch32v30x.S:349
	la a2, _edata
    1eaa:	82818613          	addi	a2,gp,-2008 # 20000248 <_edata>
E:/沁恒/例程/Example/libraries/sdk/Startup/startup_ch32v30x.S:350
	bgeu a1, a2, 2f
    1eae:	00c5fa63          	bgeu	a1,a2,1ec2 <handle_reset+0x3c>
E:/沁恒/例程/Example/libraries/sdk/Startup/startup_ch32v30x.S:352
1:
	lw t0, (a0)
    1eb2:	00052283          	lw	t0,0(a0)
E:/沁恒/例程/Example/libraries/sdk/Startup/startup_ch32v30x.S:353
	sw t0, (a1)
    1eb6:	0055a023          	sw	t0,0(a1)
E:/沁恒/例程/Example/libraries/sdk/Startup/startup_ch32v30x.S:354
	addi a0, a0, 4
    1eba:	0511                	addi	a0,a0,4
E:/沁恒/例程/Example/libraries/sdk/Startup/startup_ch32v30x.S:355
	addi a1, a1, 4
    1ebc:	0591                	addi	a1,a1,4
E:/沁恒/例程/Example/libraries/sdk/Startup/startup_ch32v30x.S:356
	bltu a1, a2, 1b
    1ebe:	fec5eae3          	bltu	a1,a2,1eb2 <handle_reset+0x2c>
E:/沁恒/例程/Example/libraries/sdk/Startup/startup_ch32v30x.S:359
2:
	/* Clear bss section */
	la a0, _sbss
    1ec2:	82818513          	addi	a0,gp,-2008 # 20000248 <_edata>
E:/沁恒/例程/Example/libraries/sdk/Startup/startup_ch32v30x.S:360
	la a1, _ebss
    1ec6:	97018593          	addi	a1,gp,-1680 # 20000390 <_ebss>
E:/沁恒/例程/Example/libraries/sdk/Startup/startup_ch32v30x.S:361
	bgeu a0, a1, 2f
    1eca:	00b57763          	bgeu	a0,a1,1ed8 <handle_reset+0x52>
E:/沁恒/例程/Example/libraries/sdk/Startup/startup_ch32v30x.S:363
1:
	sw zero, (a0)
    1ece:	00052023          	sw	zero,0(a0)
E:/沁恒/例程/Example/libraries/sdk/Startup/startup_ch32v30x.S:364
	addi a0, a0, 4
    1ed2:	0511                	addi	a0,a0,4
E:/沁恒/例程/Example/libraries/sdk/Startup/startup_ch32v30x.S:365
	bltu a0, a1, 1b
    1ed4:	feb56de3          	bltu	a0,a1,1ece <handle_reset+0x48>
E:/沁恒/例程/Example/libraries/sdk/Startup/startup_ch32v30x.S:367
2:
    li t0, 0x1f
    1ed8:	42fd                	li	t0,31
E:/沁恒/例程/Example/libraries/sdk/Startup/startup_ch32v30x.S:368
    csrw 0xbc0, t0
    1eda:	bc029073          	csrw	0xbc0,t0
E:/沁恒/例程/Example/libraries/sdk/Startup/startup_ch32v30x.S:371

    /* Enable nested and hardware stack */
	li t0, 0x1f
    1ede:	42fd                	li	t0,31
E:/沁恒/例程/Example/libraries/sdk/Startup/startup_ch32v30x.S:372
	csrw 0x804, t0
    1ee0:	80429073          	csrw	0x804,t0
E:/沁恒/例程/Example/libraries/sdk/Startup/startup_ch32v30x.S:376

    /* Enable floating point and interrupt */

   	li t0, 0x7888
    1ee4:	000082b7          	lui	t0,0x8
    1ee8:	88828293          	addi	t0,t0,-1912 # 7888 <__i2b+0x4>
E:/沁恒/例程/Example/libraries/sdk/Startup/startup_ch32v30x.S:377
   	csrs mstatus, t0
    1eec:	3002a073          	csrs	mstatus,t0
E:/沁恒/例程/Example/libraries/sdk/Startup/startup_ch32v30x.S:379

 	la t0, _vector_base
    1ef0:	ffffe297          	auipc	t0,0xffffe
    1ef4:	14828293          	addi	t0,t0,328 # 38 <_einit>
E:/沁恒/例程/Example/libraries/sdk/Startup/startup_ch32v30x.S:380
    ori t0, t0, 3           
    1ef8:	0032e293          	ori	t0,t0,3
E:/沁恒/例程/Example/libraries/sdk/Startup/startup_ch32v30x.S:381
	csrw mtvec, t0
    1efc:	30529073          	csrw	mtvec,t0
E:/沁恒/例程/Example/libraries/sdk/Startup/startup_ch32v30x.S:383

    jal  SystemInit
    1f00:	014000ef          	jal	ra,1f14 <SystemInit>
E:/沁恒/例程/Example/libraries/sdk/Startup/startup_ch32v30x.S:384
	la t0, main
    1f04:	00000297          	auipc	t0,0x0
    1f08:	dc228293          	addi	t0,t0,-574 # 1cc6 <main>
E:/沁恒/例程/Example/libraries/sdk/Startup/startup_ch32v30x.S:385
	csrw mepc, t0
    1f0c:	34129073          	csrw	mepc,t0
E:/沁恒/例程/Example/libraries/sdk/Startup/startup_ch32v30x.S:386
	mret
    1f10:	30200073          	mret

00001f14 <SystemInit>:
SystemInit():
E:/沁恒/例程/Example/libraries/sdk/Startup/system_ch32v30x.c:83
*                  the PLL and update the SystemCoreClock variable.
* Input          : None
* Return         : None
*******************************************************************************************/
void SystemInit (void)
{
    1f14:	1141                	addi	sp,sp,-16
    1f16:	c606                	sw	ra,12(sp)
    1f18:	c422                	sw	s0,8(sp)
    1f1a:	0800                	addi	s0,sp,16
E:/沁恒/例程/Example/libraries/sdk/Startup/system_ch32v30x.c:84
  RCC->CTLR |= (uint32_t)0x00000001;
    1f1c:	400217b7          	lui	a5,0x40021
    1f20:	4398                	lw	a4,0(a5)
    1f22:	400217b7          	lui	a5,0x40021
    1f26:	00176713          	ori	a4,a4,1
    1f2a:	c398                	sw	a4,0(a5)
E:/沁恒/例程/Example/libraries/sdk/Startup/system_ch32v30x.c:85
  RCC->CFGR0 &= (uint32_t)0xF8FF0000;
    1f2c:	400217b7          	lui	a5,0x40021
    1f30:	43d4                	lw	a3,4(a5)
    1f32:	400217b7          	lui	a5,0x40021
    1f36:	f8ff0737          	lui	a4,0xf8ff0
    1f3a:	8f75                	and	a4,a4,a3
    1f3c:	c3d8                	sw	a4,4(a5)
E:/沁恒/例程/Example/libraries/sdk/Startup/system_ch32v30x.c:86
  RCC->CTLR &= (uint32_t)0xFEF6FFFF;
    1f3e:	400217b7          	lui	a5,0x40021
    1f42:	4394                	lw	a3,0(a5)
    1f44:	400217b7          	lui	a5,0x40021
    1f48:	fef70737          	lui	a4,0xfef70
    1f4c:	177d                	addi	a4,a4,-1
    1f4e:	8f75                	and	a4,a4,a3
    1f50:	c398                	sw	a4,0(a5)
E:/沁恒/例程/Example/libraries/sdk/Startup/system_ch32v30x.c:87
  RCC->CTLR &= (uint32_t)0xFFFBFFFF;
    1f52:	400217b7          	lui	a5,0x40021
    1f56:	4394                	lw	a3,0(a5)
    1f58:	400217b7          	lui	a5,0x40021
    1f5c:	fffc0737          	lui	a4,0xfffc0
    1f60:	177d                	addi	a4,a4,-1
    1f62:	8f75                	and	a4,a4,a3
    1f64:	c398                	sw	a4,0(a5)
E:/沁恒/例程/Example/libraries/sdk/Startup/system_ch32v30x.c:88
  RCC->CFGR0 &= (uint32_t)0xFF80FFFF;
    1f66:	400217b7          	lui	a5,0x40021
    1f6a:	43d4                	lw	a3,4(a5)
    1f6c:	400217b7          	lui	a5,0x40021
    1f70:	ff810737          	lui	a4,0xff810
    1f74:	177d                	addi	a4,a4,-1
    1f76:	8f75                	and	a4,a4,a3
    1f78:	c3d8                	sw	a4,4(a5)
E:/沁恒/例程/Example/libraries/sdk/Startup/system_ch32v30x.c:89
  RCC->INTR = 0x009F0000;    
    1f7a:	400217b7          	lui	a5,0x40021
    1f7e:	009f0737          	lui	a4,0x9f0
    1f82:	c798                	sw	a4,8(a5)
E:/沁恒/例程/Example/libraries/sdk/Startup/system_ch32v30x.c:90
  SetSysClock();
    1f84:	2031                	jal	1f90 <SetSysClock>
E:/沁恒/例程/Example/libraries/sdk/Startup/system_ch32v30x.c:91
}
    1f86:	0001                	nop
    1f88:	40b2                	lw	ra,12(sp)
    1f8a:	4422                	lw	s0,8(sp)
    1f8c:	0141                	addi	sp,sp,16
    1f8e:	8082                	ret

00001f90 <SetSysClock>:
SetSysClock():
E:/沁恒/例程/Example/libraries/sdk/Startup/system_ch32v30x.c:168
* Description    : Configures the System clock frequency, HCLK, PCLK2 and PCLK1 prescalers. 
* Input          : None
* Return         : None
*******************************************************************************************/
static void SetSysClock(void)
{
    1f90:	1141                	addi	sp,sp,-16
    1f92:	c606                	sw	ra,12(sp)
    1f94:	c422                	sw	s0,8(sp)
    1f96:	0800                	addi	s0,sp,16
E:/沁恒/例程/Example/libraries/sdk/Startup/system_ch32v30x.c:185
#elif defined SYSCLK_FREQ_96MHz
  SetSysClockTo96();
#elif defined SYSCLK_FREQ_120MHz
  SetSysClockTo120();
#elif defined SYSCLK_FREQ_144MHz
  SetSysClockTo144();
    1f98:	2031                	jal	1fa4 <SetSysClockTo144>
E:/沁恒/例程/Example/libraries/sdk/Startup/system_ch32v30x.c:193
#endif
 
 /* If none of the define above is enabled, the HSI is used as System clock
  * source (default after reset) 
	*/ 
}
    1f9a:	0001                	nop
    1f9c:	40b2                	lw	ra,12(sp)
    1f9e:	4422                	lw	s0,8(sp)
    1fa0:	0141                	addi	sp,sp,16
    1fa2:	8082                	ret

00001fa4 <SetSysClockTo144>:
SetSysClockTo144():
E:/沁恒/例程/Example/libraries/sdk/Startup/system_ch32v30x.c:745
* Description    : Sets System clock frequency to 144MHz and configure HCLK, PCLK2 and PCLK1 prescalers.
* Input          : None
* Return         : None
*******************************************************************************************/
static void SetSysClockTo144(void)
{
    1fa4:	1101                	addi	sp,sp,-32
    1fa6:	ce22                	sw	s0,28(sp)
    1fa8:	1000                	addi	s0,sp,32
E:/沁恒/例程/Example/libraries/sdk/Startup/system_ch32v30x.c:746
  __IO uint32_t StartUpCounter = 0, HSEStatus = 0;
    1faa:	fe042623          	sw	zero,-20(s0)
    1fae:	fe042423          	sw	zero,-24(s0)
E:/沁恒/例程/Example/libraries/sdk/Startup/system_ch32v30x.c:748

  RCC->CTLR |= ((uint32_t)RCC_HSEON);
    1fb2:	400217b7          	lui	a5,0x40021
    1fb6:	4394                	lw	a3,0(a5)
    1fb8:	400217b7          	lui	a5,0x40021
    1fbc:	6741                	lui	a4,0x10
    1fbe:	8f55                	or	a4,a4,a3
    1fc0:	c398                	sw	a4,0(a5)
E:/沁恒/例程/Example/libraries/sdk/Startup/system_ch32v30x.c:753 (discriminator 2)

  /* Wait till HSE is ready and if Time out is reached exit */
  do
  {
    HSEStatus = RCC->CTLR & RCC_HSERDY;
    1fc2:	400217b7          	lui	a5,0x40021
    1fc6:	4398                	lw	a4,0(a5)
    1fc8:	000207b7          	lui	a5,0x20
    1fcc:	8ff9                	and	a5,a5,a4
    1fce:	fef42423          	sw	a5,-24(s0)
E:/沁恒/例程/Example/libraries/sdk/Startup/system_ch32v30x.c:754 (discriminator 2)
    StartUpCounter++;
    1fd2:	fec42783          	lw	a5,-20(s0)
    1fd6:	0785                	addi	a5,a5,1
    1fd8:	fef42623          	sw	a5,-20(s0)
E:/沁恒/例程/Example/libraries/sdk/Startup/system_ch32v30x.c:755 (discriminator 2)
  } while((HSEStatus == 0) && (StartUpCounter != HSE_STARTUP_TIMEOUT));
    1fdc:	fe842783          	lw	a5,-24(s0)
    1fe0:	e799                	bnez	a5,1fee <SetSysClockTo144+0x4a>
E:/沁恒/例程/Example/libraries/sdk/Startup/system_ch32v30x.c:755 (discriminator 1)
    1fe2:	fec42703          	lw	a4,-20(s0)
    1fe6:	50000793          	li	a5,1280
    1fea:	fcf71ce3          	bne	a4,a5,1fc2 <SetSysClockTo144+0x1e>
E:/沁恒/例程/Example/libraries/sdk/Startup/system_ch32v30x.c:757

  if ((RCC->CTLR & RCC_HSERDY) != RESET)
    1fee:	400217b7          	lui	a5,0x40021
    1ff2:	4398                	lw	a4,0(a5)
    1ff4:	000207b7          	lui	a5,0x20
    1ff8:	8ff9                	and	a5,a5,a4
    1ffa:	c789                	beqz	a5,2004 <SetSysClockTo144+0x60>
E:/沁恒/例程/Example/libraries/sdk/Startup/system_ch32v30x.c:759
  {
    HSEStatus = (uint32_t)0x01;
    1ffc:	4785                	li	a5,1
    1ffe:	fef42423          	sw	a5,-24(s0)
    2002:	a019                	j	2008 <SetSysClockTo144+0x64>
E:/沁恒/例程/Example/libraries/sdk/Startup/system_ch32v30x.c:763
  }
  else
  {
    HSEStatus = (uint32_t)0x00;
    2004:	fe042423          	sw	zero,-24(s0)
E:/沁恒/例程/Example/libraries/sdk/Startup/system_ch32v30x.c:766
  }

  if (HSEStatus == (uint32_t)0x01)
    2008:	fe842703          	lw	a4,-24(s0)
    200c:	4785                	li	a5,1
    200e:	0ef71863          	bne	a4,a5,20fe <SetSysClockTo144+0x15a>
E:/沁恒/例程/Example/libraries/sdk/Startup/system_ch32v30x.c:769
  {
    /* Enable Prefetch Buffer */
    FLASH->ACTLR |= FLASH_ACTLR_PRFTBE;
    2012:	400227b7          	lui	a5,0x40022
    2016:	4398                	lw	a4,0(a5)
    2018:	400227b7          	lui	a5,0x40022
    201c:	01076713          	ori	a4,a4,16
    2020:	c398                	sw	a4,0(a5)
E:/沁恒/例程/Example/libraries/sdk/Startup/system_ch32v30x.c:772

    /* Flash 2 wait state */
    FLASH->ACTLR &= (uint32_t)((uint32_t)~FLASH_ACTLR_LATENCY);
    2022:	400227b7          	lui	a5,0x40022
    2026:	4398                	lw	a4,0(a5)
    2028:	400227b7          	lui	a5,0x40022
    202c:	9b71                	andi	a4,a4,-4
    202e:	c398                	sw	a4,0(a5)
E:/沁恒/例程/Example/libraries/sdk/Startup/system_ch32v30x.c:773
    FLASH->ACTLR |= (uint32_t)FLASH_ACTLR_LATENCY_2;
    2030:	400227b7          	lui	a5,0x40022
    2034:	4398                	lw	a4,0(a5)
    2036:	400227b7          	lui	a5,0x40022
    203a:	00276713          	ori	a4,a4,2
    203e:	c398                	sw	a4,0(a5)
E:/沁恒/例程/Example/libraries/sdk/Startup/system_ch32v30x.c:776

    /* HCLK = SYSCLK */
    RCC->CFGR0 |= (uint32_t)RCC_HPRE_DIV1;
    2040:	40021737          	lui	a4,0x40021
    2044:	400217b7          	lui	a5,0x40021
    2048:	4358                	lw	a4,4(a4)
    204a:	c3d8                	sw	a4,4(a5)
E:/沁恒/例程/Example/libraries/sdk/Startup/system_ch32v30x.c:778
    /* PCLK2 = HCLK */
    RCC->CFGR0 |= (uint32_t)RCC_PPRE2_DIV1;
    204c:	40021737          	lui	a4,0x40021
    2050:	400217b7          	lui	a5,0x40021
    2054:	4358                	lw	a4,4(a4)
    2056:	c3d8                	sw	a4,4(a5)
E:/沁恒/例程/Example/libraries/sdk/Startup/system_ch32v30x.c:780
    /* PCLK1 = HCLK */
    RCC->CFGR0 |= (uint32_t)RCC_PPRE1_DIV1;
    2058:	40021737          	lui	a4,0x40021
    205c:	400217b7          	lui	a5,0x40021
    2060:	4358                	lw	a4,4(a4)
    2062:	c3d8                	sw	a4,4(a5)
E:/沁恒/例程/Example/libraries/sdk/Startup/system_ch32v30x.c:783

    /*  PLL configuration: PLLCLK = HSE * 18 = 144 MHz */
    RCC->CFGR0 &= (uint32_t)((uint32_t)~(RCC_PLLSRC | RCC_PLLXTPRE |
    2064:	400217b7          	lui	a5,0x40021
    2068:	43d4                	lw	a3,4(a5)
    206a:	400217b7          	lui	a5,0x40021
    206e:	ffc10737          	lui	a4,0xffc10
    2072:	177d                	addi	a4,a4,-1
    2074:	8f75                	and	a4,a4,a3
    2076:	c3d8                	sw	a4,4(a5)
E:/沁恒/例程/Example/libraries/sdk/Startup/system_ch32v30x.c:786
                                        RCC_PLLMULL));

    if(((*(uint32_t*)0x1FFFF70C) & (1<<14)) != (1<<14)){
    2078:	1ffff7b7          	lui	a5,0x1ffff
    207c:	70c78793          	addi	a5,a5,1804 # 1ffff70c <_data_lma+0x1fff6848>
    2080:	4398                	lw	a4,0(a5)
    2082:	6791                	lui	a5,0x4
    2084:	8ff9                	and	a5,a5,a4
    2086:	eb99                	bnez	a5,209c <SetSysClockTo144+0xf8>
E:/沁恒/例程/Example/libraries/sdk/Startup/system_ch32v30x.c:787
        RCC->CFGR0 |= (uint32_t)(RCC_PLLSRC_HSE | RCC_PLLXTPRE_HSE | RCC_PLLMULL18);
    2088:	400217b7          	lui	a5,0x40021
    208c:	43d4                	lw	a3,4(a5)
    208e:	400217b7          	lui	a5,0x40021
    2092:	003d0737          	lui	a4,0x3d0
    2096:	8f55                	or	a4,a4,a3
    2098:	c3d8                	sw	a4,4(a5)
    209a:	a809                	j	20ac <SetSysClockTo144+0x108>
E:/沁恒/例程/Example/libraries/sdk/Startup/system_ch32v30x.c:790
    }
    else{
        RCC->CFGR0 |= (uint32_t)(RCC_PLLSRC_HSE | RCC_PLLXTPRE_HSE | RCC_PLLMULL18_EXTEN);
    209c:	400217b7          	lui	a5,0x40021
    20a0:	43d4                	lw	a3,4(a5)
    20a2:	400217b7          	lui	a5,0x40021
    20a6:	6741                	lui	a4,0x10
    20a8:	8f55                	or	a4,a4,a3
    20aa:	c3d8                	sw	a4,4(a5)
E:/沁恒/例程/Example/libraries/sdk/Startup/system_ch32v30x.c:794
    }

    /* Enable PLL */
    RCC->CTLR |= RCC_PLLON;
    20ac:	400217b7          	lui	a5,0x40021
    20b0:	4394                	lw	a3,0(a5)
    20b2:	400217b7          	lui	a5,0x40021
    20b6:	01000737          	lui	a4,0x1000
    20ba:	8f55                	or	a4,a4,a3
    20bc:	c398                	sw	a4,0(a5)
E:/沁恒/例程/Example/libraries/sdk/Startup/system_ch32v30x.c:796
    /* Wait till PLL is ready */
    while((RCC->CTLR & RCC_PLLRDY) == 0)
    20be:	0001                	nop
E:/沁恒/例程/Example/libraries/sdk/Startup/system_ch32v30x.c:796 (discriminator 1)
    20c0:	400217b7          	lui	a5,0x40021
    20c4:	4398                	lw	a4,0(a5)
    20c6:	020007b7          	lui	a5,0x2000
    20ca:	8ff9                	and	a5,a5,a4
    20cc:	dbf5                	beqz	a5,20c0 <SetSysClockTo144+0x11c>
E:/沁恒/例程/Example/libraries/sdk/Startup/system_ch32v30x.c:800
    {
    }
    /* Select PLL as system clock source */
    RCC->CFGR0 &= (uint32_t)((uint32_t)~(RCC_SW));
    20ce:	400217b7          	lui	a5,0x40021
    20d2:	43d8                	lw	a4,4(a5)
    20d4:	400217b7          	lui	a5,0x40021
    20d8:	9b71                	andi	a4,a4,-4
    20da:	c3d8                	sw	a4,4(a5)
E:/沁恒/例程/Example/libraries/sdk/Startup/system_ch32v30x.c:801
    RCC->CFGR0 |= (uint32_t)RCC_SW_PLL;
    20dc:	400217b7          	lui	a5,0x40021
    20e0:	43d8                	lw	a4,4(a5)
    20e2:	400217b7          	lui	a5,0x40021
    20e6:	00276713          	ori	a4,a4,2
    20ea:	c3d8                	sw	a4,4(a5)
E:/沁恒/例程/Example/libraries/sdk/Startup/system_ch32v30x.c:803
    /* Wait till PLL is used as system clock source */
    while ((RCC->CFGR0 & (uint32_t)RCC_SWS) != (uint32_t)0x08)
    20ec:	0001                	nop
E:/沁恒/例程/Example/libraries/sdk/Startup/system_ch32v30x.c:803 (discriminator 1)
    20ee:	400217b7          	lui	a5,0x40021
    20f2:	43dc                	lw	a5,4(a5)
    20f4:	00c7f713          	andi	a4,a5,12
    20f8:	47a1                	li	a5,8
    20fa:	fef71ae3          	bne	a4,a5,20ee <SetSysClockTo144+0x14a>
E:/沁恒/例程/Example/libraries/sdk/Startup/system_ch32v30x.c:814
        /*
         * If HSE fails to start-up, the application will have wrong clock
     * configuration. User can add here some code to deal with this error
         */
  }
}
    20fe:	0001                	nop
    2100:	4472                	lw	s0,28(sp)
    2102:	6105                	addi	sp,sp,32
    2104:	8082                	ret

00002106 <EXTI_GetITStatus>:
EXTI_GetITStatus():
E:/沁恒/例程/Example/libraries/sdk/Peripheral/ch32v30x_exti.c:131
* Description    : Checks whether the specified EXTI line is asserted or not.
* Input          : EXTI_Line: specifies the EXTI lines to be enabled or disabled.
* Return         : The new state of EXTI_Line (SET or RESET).
*********************************************************************************/	
ITStatus EXTI_GetITStatus(uint32_t EXTI_Line)
{
    2106:	7179                	addi	sp,sp,-48
    2108:	d622                	sw	s0,44(sp)
    210a:	1800                	addi	s0,sp,48
    210c:	fca42e23          	sw	a0,-36(s0)
E:/沁恒/例程/Example/libraries/sdk/Peripheral/ch32v30x_exti.c:132
  ITStatus bitstatus = RESET;
    2110:	fe042623          	sw	zero,-20(s0)
E:/沁恒/例程/Example/libraries/sdk/Peripheral/ch32v30x_exti.c:133
  uint32_t enablestatus = 0;
    2114:	fe042423          	sw	zero,-24(s0)
E:/沁恒/例程/Example/libraries/sdk/Peripheral/ch32v30x_exti.c:135
  
  enablestatus =  EXTI->INTENR & EXTI_Line;
    2118:	400107b7          	lui	a5,0x40010
    211c:	40078793          	addi	a5,a5,1024 # 40010400 <_eusrstack+0x20000400>
    2120:	439c                	lw	a5,0(a5)
    2122:	fdc42703          	lw	a4,-36(s0)
    2126:	8ff9                	and	a5,a5,a4
    2128:	fef42423          	sw	a5,-24(s0)
E:/沁恒/例程/Example/libraries/sdk/Peripheral/ch32v30x_exti.c:136
  if (((EXTI->INTFR & EXTI_Line) != (uint32_t)RESET) && (enablestatus != (uint32_t)RESET))
    212c:	400107b7          	lui	a5,0x40010
    2130:	40078793          	addi	a5,a5,1024 # 40010400 <_eusrstack+0x20000400>
    2134:	4bd8                	lw	a4,20(a5)
    2136:	fdc42783          	lw	a5,-36(s0)
    213a:	8ff9                	and	a5,a5,a4
    213c:	cb81                	beqz	a5,214c <EXTI_GetITStatus+0x46>
E:/沁恒/例程/Example/libraries/sdk/Peripheral/ch32v30x_exti.c:136 (discriminator 1)
    213e:	fe842783          	lw	a5,-24(s0)
    2142:	c789                	beqz	a5,214c <EXTI_GetITStatus+0x46>
E:/沁恒/例程/Example/libraries/sdk/Peripheral/ch32v30x_exti.c:138
  {
    bitstatus = SET;
    2144:	4785                	li	a5,1
    2146:	fef42623          	sw	a5,-20(s0)
    214a:	a019                	j	2150 <EXTI_GetITStatus+0x4a>
E:/沁恒/例程/Example/libraries/sdk/Peripheral/ch32v30x_exti.c:142
  }
  else
  {
    bitstatus = RESET;
    214c:	fe042623          	sw	zero,-20(s0)
E:/沁恒/例程/Example/libraries/sdk/Peripheral/ch32v30x_exti.c:144
  }
  return bitstatus;
    2150:	fec42783          	lw	a5,-20(s0)
E:/沁恒/例程/Example/libraries/sdk/Peripheral/ch32v30x_exti.c:145
}
    2154:	853e                	mv	a0,a5
    2156:	5432                	lw	s0,44(sp)
    2158:	6145                	addi	sp,sp,48
    215a:	8082                	ret

0000215c <EXTI_ClearITPendingBit>:
EXTI_ClearITPendingBit():
E:/沁恒/例程/Example/libraries/sdk/Peripheral/ch32v30x_exti.c:154
* Description    : Clears the EXTI's line pending bits.
* Input          : EXTI_Line: specifies the EXTI lines to be enabled or disabled.
* Return         : None
*********************************************************************************/
void EXTI_ClearITPendingBit(uint32_t EXTI_Line)
{  
    215c:	1101                	addi	sp,sp,-32
    215e:	ce22                	sw	s0,28(sp)
    2160:	1000                	addi	s0,sp,32
    2162:	fea42623          	sw	a0,-20(s0)
E:/沁恒/例程/Example/libraries/sdk/Peripheral/ch32v30x_exti.c:155
  EXTI->INTFR = EXTI_Line;
    2166:	400107b7          	lui	a5,0x40010
    216a:	40078793          	addi	a5,a5,1024 # 40010400 <_eusrstack+0x20000400>
    216e:	fec42703          	lw	a4,-20(s0)
    2172:	cbd8                	sw	a4,20(a5)
E:/沁恒/例程/Example/libraries/sdk/Peripheral/ch32v30x_exti.c:156
}
    2174:	0001                	nop
    2176:	4472                	lw	s0,28(sp)
    2178:	6105                	addi	sp,sp,32
    217a:	8082                	ret

0000217c <GPIO_Init>:
GPIO_Init():
E:/沁恒/例程/Example/libraries/sdk/Peripheral/ch32v30x_gpio.c:88
* Input          : GPIO_InitStruct: pointer to a GPIO_InitTypeDef structure that
*      contains the configuration information for the specified GPIO peripheral.
* Return         : None
*******************************************************************************/
void GPIO_Init(GPIO_TypeDef* GPIOx, GPIO_InitTypeDef* GPIO_InitStruct)
{
    217c:	7139                	addi	sp,sp,-64
    217e:	de22                	sw	s0,60(sp)
    2180:	0080                	addi	s0,sp,64
    2182:	fca42623          	sw	a0,-52(s0)
    2186:	fcb42423          	sw	a1,-56(s0)
E:/沁恒/例程/Example/libraries/sdk/Peripheral/ch32v30x_gpio.c:89
  uint32_t currentmode = 0x00, currentpin = 0x00, pinpos = 0x00, pos = 0x00;
    218a:	fe042623          	sw	zero,-20(s0)
    218e:	fe042023          	sw	zero,-32(s0)
    2192:	fe042423          	sw	zero,-24(s0)
    2196:	fc042e23          	sw	zero,-36(s0)
E:/沁恒/例程/Example/libraries/sdk/Peripheral/ch32v30x_gpio.c:90
  uint32_t tmpreg = 0x00, pinmask = 0x00;
    219a:	fe042223          	sw	zero,-28(s0)
    219e:	fc042c23          	sw	zero,-40(s0)
E:/沁恒/例程/Example/libraries/sdk/Peripheral/ch32v30x_gpio.c:92

  currentmode = ((uint32_t)GPIO_InitStruct->GPIO_Mode) & ((uint32_t)0x0F);
    21a2:	fc842783          	lw	a5,-56(s0)
    21a6:	479c                	lw	a5,8(a5)
    21a8:	8bbd                	andi	a5,a5,15
    21aa:	fef42623          	sw	a5,-20(s0)
E:/沁恒/例程/Example/libraries/sdk/Peripheral/ch32v30x_gpio.c:94
	
  if ((((uint32_t)GPIO_InitStruct->GPIO_Mode) & ((uint32_t)0x10)) != 0x00)
    21ae:	fc842783          	lw	a5,-56(s0)
    21b2:	479c                	lw	a5,8(a5)
    21b4:	8bc1                	andi	a5,a5,16
    21b6:	cb89                	beqz	a5,21c8 <GPIO_Init+0x4c>
E:/沁恒/例程/Example/libraries/sdk/Peripheral/ch32v30x_gpio.c:96
  { 
    currentmode |= (uint32_t)GPIO_InitStruct->GPIO_Speed;
    21b8:	fc842783          	lw	a5,-56(s0)
    21bc:	43dc                	lw	a5,4(a5)
    21be:	fec42703          	lw	a4,-20(s0)
    21c2:	8fd9                	or	a5,a5,a4
    21c4:	fef42623          	sw	a5,-20(s0)
E:/沁恒/例程/Example/libraries/sdk/Peripheral/ch32v30x_gpio.c:99
  }

  if (((uint32_t)GPIO_InitStruct->GPIO_Pin & ((uint32_t)0x00FF)) != 0x00)
    21c8:	fc842783          	lw	a5,-56(s0)
    21cc:	0007d783          	lhu	a5,0(a5)
    21d0:	0ff7f793          	andi	a5,a5,255
    21d4:	cff1                	beqz	a5,22b0 <GPIO_Init+0x134>
E:/沁恒/例程/Example/libraries/sdk/Peripheral/ch32v30x_gpio.c:101
  {
    tmpreg = GPIOx->CFGLR;
    21d6:	fcc42783          	lw	a5,-52(s0)
    21da:	439c                	lw	a5,0(a5)
    21dc:	fef42223          	sw	a5,-28(s0)
E:/沁恒/例程/Example/libraries/sdk/Peripheral/ch32v30x_gpio.c:103
		
    for (pinpos = 0x00; pinpos < 0x08; pinpos++)
    21e0:	fe042423          	sw	zero,-24(s0)
    21e4:	a865                	j	229c <GPIO_Init+0x120>
E:/沁恒/例程/Example/libraries/sdk/Peripheral/ch32v30x_gpio.c:105
    {
      pos = ((uint32_t)0x01) << pinpos;
    21e6:	fe842783          	lw	a5,-24(s0)
    21ea:	4705                	li	a4,1
    21ec:	00f717b3          	sll	a5,a4,a5
    21f0:	fcf42e23          	sw	a5,-36(s0)
E:/沁恒/例程/Example/libraries/sdk/Peripheral/ch32v30x_gpio.c:106
      currentpin = (GPIO_InitStruct->GPIO_Pin) & pos;
    21f4:	fc842783          	lw	a5,-56(s0)
    21f8:	0007d783          	lhu	a5,0(a5)
    21fc:	873e                	mv	a4,a5
    21fe:	fdc42783          	lw	a5,-36(s0)
    2202:	8ff9                	and	a5,a5,a4
    2204:	fef42023          	sw	a5,-32(s0)
E:/沁恒/例程/Example/libraries/sdk/Peripheral/ch32v30x_gpio.c:108
			
      if (currentpin == pos)
    2208:	fe042703          	lw	a4,-32(s0)
    220c:	fdc42783          	lw	a5,-36(s0)
    2210:	08f71163          	bne	a4,a5,2292 <GPIO_Init+0x116>
E:/沁恒/例程/Example/libraries/sdk/Peripheral/ch32v30x_gpio.c:110
      {
        pos = pinpos << 2;
    2214:	fe842783          	lw	a5,-24(s0)
    2218:	078a                	slli	a5,a5,0x2
    221a:	fcf42e23          	sw	a5,-36(s0)
E:/沁恒/例程/Example/libraries/sdk/Peripheral/ch32v30x_gpio.c:111
        pinmask = ((uint32_t)0x0F) << pos;
    221e:	fdc42783          	lw	a5,-36(s0)
    2222:	473d                	li	a4,15
    2224:	00f717b3          	sll	a5,a4,a5
    2228:	fcf42c23          	sw	a5,-40(s0)
E:/沁恒/例程/Example/libraries/sdk/Peripheral/ch32v30x_gpio.c:112
        tmpreg &= ~pinmask;
    222c:	fd842783          	lw	a5,-40(s0)
    2230:	fff7c793          	not	a5,a5
    2234:	fe442703          	lw	a4,-28(s0)
    2238:	8ff9                	and	a5,a5,a4
    223a:	fef42223          	sw	a5,-28(s0)
E:/沁恒/例程/Example/libraries/sdk/Peripheral/ch32v30x_gpio.c:113
        tmpreg |= (currentmode << pos);
    223e:	fdc42783          	lw	a5,-36(s0)
    2242:	fec42703          	lw	a4,-20(s0)
    2246:	00f717b3          	sll	a5,a4,a5
    224a:	fe442703          	lw	a4,-28(s0)
    224e:	8fd9                	or	a5,a5,a4
    2250:	fef42223          	sw	a5,-28(s0)
E:/沁恒/例程/Example/libraries/sdk/Peripheral/ch32v30x_gpio.c:115

        if (GPIO_InitStruct->GPIO_Mode == GPIO_Mode_IPD)
    2254:	fc842783          	lw	a5,-56(s0)
    2258:	4798                	lw	a4,8(a5)
    225a:	02800793          	li	a5,40
    225e:	00f71b63          	bne	a4,a5,2274 <GPIO_Init+0xf8>
E:/沁恒/例程/Example/libraries/sdk/Peripheral/ch32v30x_gpio.c:117
        {
          GPIOx->BCR = (((uint32_t)0x01) << pinpos);
    2262:	fe842783          	lw	a5,-24(s0)
    2266:	4705                	li	a4,1
    2268:	00f71733          	sll	a4,a4,a5
    226c:	fcc42783          	lw	a5,-52(s0)
    2270:	cbd8                	sw	a4,20(a5)
    2272:	a005                	j	2292 <GPIO_Init+0x116>
E:/沁恒/例程/Example/libraries/sdk/Peripheral/ch32v30x_gpio.c:121
        }
        else
        {
          if (GPIO_InitStruct->GPIO_Mode == GPIO_Mode_IPU)
    2274:	fc842783          	lw	a5,-56(s0)
    2278:	4798                	lw	a4,8(a5)
    227a:	04800793          	li	a5,72
    227e:	00f71a63          	bne	a4,a5,2292 <GPIO_Init+0x116>
E:/沁恒/例程/Example/libraries/sdk/Peripheral/ch32v30x_gpio.c:123
          {
            GPIOx->BSHR = (((uint32_t)0x01) << pinpos);
    2282:	fe842783          	lw	a5,-24(s0)
    2286:	4705                	li	a4,1
    2288:	00f71733          	sll	a4,a4,a5
    228c:	fcc42783          	lw	a5,-52(s0)
    2290:	cb98                	sw	a4,16(a5)
E:/沁恒/例程/Example/libraries/sdk/Peripheral/ch32v30x_gpio.c:103 (discriminator 2)
    for (pinpos = 0x00; pinpos < 0x08; pinpos++)
    2292:	fe842783          	lw	a5,-24(s0)
    2296:	0785                	addi	a5,a5,1
    2298:	fef42423          	sw	a5,-24(s0)
E:/沁恒/例程/Example/libraries/sdk/Peripheral/ch32v30x_gpio.c:103 (discriminator 1)
    229c:	fe842703          	lw	a4,-24(s0)
    22a0:	479d                	li	a5,7
    22a2:	f4e7f2e3          	bgeu	a5,a4,21e6 <GPIO_Init+0x6a>
E:/沁恒/例程/Example/libraries/sdk/Peripheral/ch32v30x_gpio.c:128
          }
        }
      }
    }
    GPIOx->CFGLR = tmpreg;
    22a6:	fcc42783          	lw	a5,-52(s0)
    22aa:	fe442703          	lw	a4,-28(s0)
    22ae:	c398                	sw	a4,0(a5)
E:/沁恒/例程/Example/libraries/sdk/Peripheral/ch32v30x_gpio.c:131
  }

  if (GPIO_InitStruct->GPIO_Pin > 0x00FF)
    22b0:	fc842783          	lw	a5,-56(s0)
    22b4:	0007d703          	lhu	a4,0(a5)
    22b8:	0ff00793          	li	a5,255
    22bc:	0ee7f163          	bgeu	a5,a4,239e <GPIO_Init+0x222>
E:/沁恒/例程/Example/libraries/sdk/Peripheral/ch32v30x_gpio.c:133
  {
    tmpreg = GPIOx->CFGHR;
    22c0:	fcc42783          	lw	a5,-52(s0)
    22c4:	43dc                	lw	a5,4(a5)
    22c6:	fef42223          	sw	a5,-28(s0)
E:/沁恒/例程/Example/libraries/sdk/Peripheral/ch32v30x_gpio.c:135
		
    for (pinpos = 0x00; pinpos < 0x08; pinpos++)
    22ca:	fe042423          	sw	zero,-24(s0)
    22ce:	a875                	j	238a <GPIO_Init+0x20e>
E:/沁恒/例程/Example/libraries/sdk/Peripheral/ch32v30x_gpio.c:137
    {
      pos = (((uint32_t)0x01) << (pinpos + 0x08));
    22d0:	fe842783          	lw	a5,-24(s0)
    22d4:	07a1                	addi	a5,a5,8
    22d6:	4705                	li	a4,1
    22d8:	00f717b3          	sll	a5,a4,a5
    22dc:	fcf42e23          	sw	a5,-36(s0)
E:/沁恒/例程/Example/libraries/sdk/Peripheral/ch32v30x_gpio.c:138
      currentpin = ((GPIO_InitStruct->GPIO_Pin) & pos);
    22e0:	fc842783          	lw	a5,-56(s0)
    22e4:	0007d783          	lhu	a5,0(a5)
    22e8:	873e                	mv	a4,a5
    22ea:	fdc42783          	lw	a5,-36(s0)
    22ee:	8ff9                	and	a5,a5,a4
    22f0:	fef42023          	sw	a5,-32(s0)
E:/沁恒/例程/Example/libraries/sdk/Peripheral/ch32v30x_gpio.c:140
			
      if (currentpin == pos)
    22f4:	fe042703          	lw	a4,-32(s0)
    22f8:	fdc42783          	lw	a5,-36(s0)
    22fc:	08f71263          	bne	a4,a5,2380 <GPIO_Init+0x204>
E:/沁恒/例程/Example/libraries/sdk/Peripheral/ch32v30x_gpio.c:142
      {
        pos = pinpos << 2;
    2300:	fe842783          	lw	a5,-24(s0)
    2304:	078a                	slli	a5,a5,0x2
    2306:	fcf42e23          	sw	a5,-36(s0)
E:/沁恒/例程/Example/libraries/sdk/Peripheral/ch32v30x_gpio.c:143
        pinmask = ((uint32_t)0x0F) << pos;
    230a:	fdc42783          	lw	a5,-36(s0)
    230e:	473d                	li	a4,15
    2310:	00f717b3          	sll	a5,a4,a5
    2314:	fcf42c23          	sw	a5,-40(s0)
E:/沁恒/例程/Example/libraries/sdk/Peripheral/ch32v30x_gpio.c:144
        tmpreg &= ~pinmask;
    2318:	fd842783          	lw	a5,-40(s0)
    231c:	fff7c793          	not	a5,a5
    2320:	fe442703          	lw	a4,-28(s0)
    2324:	8ff9                	and	a5,a5,a4
    2326:	fef42223          	sw	a5,-28(s0)
E:/沁恒/例程/Example/libraries/sdk/Peripheral/ch32v30x_gpio.c:145
        tmpreg |= (currentmode << pos);
    232a:	fdc42783          	lw	a5,-36(s0)
    232e:	fec42703          	lw	a4,-20(s0)
    2332:	00f717b3          	sll	a5,a4,a5
    2336:	fe442703          	lw	a4,-28(s0)
    233a:	8fd9                	or	a5,a5,a4
    233c:	fef42223          	sw	a5,-28(s0)
E:/沁恒/例程/Example/libraries/sdk/Peripheral/ch32v30x_gpio.c:147

        if (GPIO_InitStruct->GPIO_Mode == GPIO_Mode_IPD)
    2340:	fc842783          	lw	a5,-56(s0)
    2344:	4798                	lw	a4,8(a5)
    2346:	02800793          	li	a5,40
    234a:	00f71b63          	bne	a4,a5,2360 <GPIO_Init+0x1e4>
E:/沁恒/例程/Example/libraries/sdk/Peripheral/ch32v30x_gpio.c:149
        {
          GPIOx->BCR = (((uint32_t)0x01) << (pinpos + 0x08));
    234e:	fe842783          	lw	a5,-24(s0)
    2352:	07a1                	addi	a5,a5,8
    2354:	4705                	li	a4,1
    2356:	00f71733          	sll	a4,a4,a5
    235a:	fcc42783          	lw	a5,-52(s0)
    235e:	cbd8                	sw	a4,20(a5)
E:/沁恒/例程/Example/libraries/sdk/Peripheral/ch32v30x_gpio.c:152
        }

        if (GPIO_InitStruct->GPIO_Mode == GPIO_Mode_IPU)
    2360:	fc842783          	lw	a5,-56(s0)
    2364:	4798                	lw	a4,8(a5)
    2366:	04800793          	li	a5,72
    236a:	00f71b63          	bne	a4,a5,2380 <GPIO_Init+0x204>
E:/沁恒/例程/Example/libraries/sdk/Peripheral/ch32v30x_gpio.c:154
        {
          GPIOx->BSHR = (((uint32_t)0x01) << (pinpos + 0x08));
    236e:	fe842783          	lw	a5,-24(s0)
    2372:	07a1                	addi	a5,a5,8
    2374:	4705                	li	a4,1
    2376:	00f71733          	sll	a4,a4,a5
    237a:	fcc42783          	lw	a5,-52(s0)
    237e:	cb98                	sw	a4,16(a5)
E:/沁恒/例程/Example/libraries/sdk/Peripheral/ch32v30x_gpio.c:135 (discriminator 2)
    for (pinpos = 0x00; pinpos < 0x08; pinpos++)
    2380:	fe842783          	lw	a5,-24(s0)
    2384:	0785                	addi	a5,a5,1
    2386:	fef42423          	sw	a5,-24(s0)
E:/沁恒/例程/Example/libraries/sdk/Peripheral/ch32v30x_gpio.c:135 (discriminator 1)
    238a:	fe842703          	lw	a4,-24(s0)
    238e:	479d                	li	a5,7
    2390:	f4e7f0e3          	bgeu	a5,a4,22d0 <GPIO_Init+0x154>
E:/沁恒/例程/Example/libraries/sdk/Peripheral/ch32v30x_gpio.c:158
        }
      }
    }
    GPIOx->CFGHR = tmpreg;
    2394:	fcc42783          	lw	a5,-52(s0)
    2398:	fe442703          	lw	a4,-28(s0)
    239c:	c3d8                	sw	a4,4(a5)
E:/沁恒/例程/Example/libraries/sdk/Peripheral/ch32v30x_gpio.c:160
  }
}
    239e:	0001                	nop
    23a0:	5472                	lw	s0,60(sp)
    23a2:	6121                	addi	sp,sp,64
    23a4:	8082                	ret

000023a6 <GPIO_WriteBit>:
GPIO_WriteBit():
E:/沁恒/例程/Example/libraries/sdk/Peripheral/ch32v30x_gpio.c:282
*                    Bit_SetL: to clear the port pin.
*                    Bit_SetH: to set the port pin.                  
* Return         : None
*******************************************************************************/
void GPIO_WriteBit(GPIO_TypeDef* GPIOx, uint16_t GPIO_Pin, BitAction BitVal)
{
    23a6:	1101                	addi	sp,sp,-32
    23a8:	ce22                	sw	s0,28(sp)
    23aa:	1000                	addi	s0,sp,32
    23ac:	fea42623          	sw	a0,-20(s0)
    23b0:	87ae                	mv	a5,a1
    23b2:	fec42223          	sw	a2,-28(s0)
    23b6:	fef41523          	sh	a5,-22(s0)
E:/沁恒/例程/Example/libraries/sdk/Peripheral/ch32v30x_gpio.c:283
  if (BitVal != Bit_RESET)
    23ba:	fe442783          	lw	a5,-28(s0)
    23be:	c799                	beqz	a5,23cc <GPIO_WriteBit+0x26>
E:/沁恒/例程/Example/libraries/sdk/Peripheral/ch32v30x_gpio.c:285
  {
    GPIOx->BSHR = GPIO_Pin;
    23c0:	fea45703          	lhu	a4,-22(s0)
    23c4:	fec42783          	lw	a5,-20(s0)
    23c8:	cb98                	sw	a4,16(a5)
E:/沁恒/例程/Example/libraries/sdk/Peripheral/ch32v30x_gpio.c:291
  }
  else
  {
    GPIOx->BCR = GPIO_Pin;
  }
}
    23ca:	a031                	j	23d6 <GPIO_WriteBit+0x30>
E:/沁恒/例程/Example/libraries/sdk/Peripheral/ch32v30x_gpio.c:289
    GPIOx->BCR = GPIO_Pin;
    23cc:	fea45703          	lhu	a4,-22(s0)
    23d0:	fec42783          	lw	a5,-20(s0)
    23d4:	cbd8                	sw	a4,20(a5)
E:/沁恒/例程/Example/libraries/sdk/Peripheral/ch32v30x_gpio.c:291
}
    23d6:	0001                	nop
    23d8:	4472                	lw	s0,28(sp)
    23da:	6105                	addi	sp,sp,32
    23dc:	8082                	ret

000023de <GPIO_PinRemapConfig>:
GPIO_PinRemapConfig():
E:/沁恒/例程/Example/libraries/sdk/Peripheral/ch32v30x_gpio.c:402
*      only for High density Value line devices)     
*                  NewState: ENABLE or DISABLE.             
* Return         : None
*******************************************************************************/
void GPIO_PinRemapConfig(uint32_t GPIO_Remap, FunctionalState NewState)
{
    23de:	7179                	addi	sp,sp,-48
    23e0:	d622                	sw	s0,44(sp)
    23e2:	1800                	addi	s0,sp,48
    23e4:	fca42e23          	sw	a0,-36(s0)
    23e8:	fcb42c23          	sw	a1,-40(s0)
E:/沁恒/例程/Example/libraries/sdk/Peripheral/ch32v30x_gpio.c:403
  uint32_t tmp = 0x00, tmp1 = 0x00, tmpreg = 0x00, tmpmask = 0x00;
    23ec:	fe042423          	sw	zero,-24(s0)
    23f0:	fe042223          	sw	zero,-28(s0)
    23f4:	fe042623          	sw	zero,-20(s0)
    23f8:	fe042023          	sw	zero,-32(s0)
E:/沁恒/例程/Example/libraries/sdk/Peripheral/ch32v30x_gpio.c:405

  if((GPIO_Remap & 0x80000000) == 0x80000000)
    23fc:	fdc42783          	lw	a5,-36(s0)
    2400:	0007d863          	bgez	a5,2410 <GPIO_PinRemapConfig+0x32>
E:/沁恒/例程/Example/libraries/sdk/Peripheral/ch32v30x_gpio.c:407
  {
    tmpreg = AFIO->PCFR2;
    2404:	400107b7          	lui	a5,0x40010
    2408:	4fdc                	lw	a5,28(a5)
    240a:	fef42623          	sw	a5,-20(s0)
    240e:	a031                	j	241a <GPIO_PinRemapConfig+0x3c>
E:/沁恒/例程/Example/libraries/sdk/Peripheral/ch32v30x_gpio.c:411
  }
  else
  {
    tmpreg = AFIO->PCFR1;
    2410:	400107b7          	lui	a5,0x40010
    2414:	43dc                	lw	a5,4(a5)
    2416:	fef42623          	sw	a5,-20(s0)
E:/沁恒/例程/Example/libraries/sdk/Peripheral/ch32v30x_gpio.c:414
  }

  tmpmask = (GPIO_Remap & DBGAFR_POSITION_MASK) >> 0x10;
    241a:	fdc42783          	lw	a5,-36(s0)
    241e:	83c1                	srli	a5,a5,0x10
    2420:	8bbd                	andi	a5,a5,15
    2422:	fef42023          	sw	a5,-32(s0)
E:/沁恒/例程/Example/libraries/sdk/Peripheral/ch32v30x_gpio.c:415
  tmp = GPIO_Remap & LSB_MASK;
    2426:	fdc42703          	lw	a4,-36(s0)
    242a:	67c1                	lui	a5,0x10
    242c:	17fd                	addi	a5,a5,-1
    242e:	8ff9                	and	a5,a5,a4
    2430:	fef42423          	sw	a5,-24(s0)
E:/沁恒/例程/Example/libraries/sdk/Peripheral/ch32v30x_gpio.c:417

  if ((GPIO_Remap & (DBGAFR_LOCATION_MASK | DBGAFR_NUMBITS_MASK)) == (DBGAFR_LOCATION_MASK | DBGAFR_NUMBITS_MASK))
    2434:	fdc42703          	lw	a4,-36(s0)
    2438:	003007b7          	lui	a5,0x300
    243c:	8f7d                	and	a4,a4,a5
    243e:	003007b7          	lui	a5,0x300
    2442:	02f71563          	bne	a4,a5,246c <GPIO_PinRemapConfig+0x8e>
E:/沁恒/例程/Example/libraries/sdk/Peripheral/ch32v30x_gpio.c:419
  {
    tmpreg &= DBGAFR_SWJCFG_MASK;
    2446:	fec42703          	lw	a4,-20(s0)
    244a:	f10007b7          	lui	a5,0xf1000
    244e:	17fd                	addi	a5,a5,-1
    2450:	8ff9                	and	a5,a5,a4
    2452:	fef42623          	sw	a5,-20(s0)
E:/沁恒/例程/Example/libraries/sdk/Peripheral/ch32v30x_gpio.c:420
    AFIO->PCFR1 &= DBGAFR_SWJCFG_MASK;
    2456:	400107b7          	lui	a5,0x40010
    245a:	43d4                	lw	a3,4(a5)
    245c:	400107b7          	lui	a5,0x40010
    2460:	f1000737          	lui	a4,0xf1000
    2464:	177d                	addi	a4,a4,-1
    2466:	8f75                	and	a4,a4,a3
    2468:	c3d8                	sw	a4,4(a5)
    246a:	a0ad                	j	24d4 <GPIO_PinRemapConfig+0xf6>
E:/沁恒/例程/Example/libraries/sdk/Peripheral/ch32v30x_gpio.c:422
  }
  else if ((GPIO_Remap & DBGAFR_NUMBITS_MASK) == DBGAFR_NUMBITS_MASK)
    246c:	fdc42703          	lw	a4,-36(s0)
    2470:	001007b7          	lui	a5,0x100
    2474:	8ff9                	and	a5,a5,a4
    2476:	cb8d                	beqz	a5,24a8 <GPIO_PinRemapConfig+0xca>
E:/沁恒/例程/Example/libraries/sdk/Peripheral/ch32v30x_gpio.c:424
  {
    tmp1 = ((uint32_t)0x03) << tmpmask;
    2478:	fe042783          	lw	a5,-32(s0)
    247c:	470d                	li	a4,3
    247e:	00f717b3          	sll	a5,a4,a5
    2482:	fef42223          	sw	a5,-28(s0)
E:/沁恒/例程/Example/libraries/sdk/Peripheral/ch32v30x_gpio.c:425
    tmpreg &= ~tmp1;
    2486:	fe442783          	lw	a5,-28(s0)
    248a:	fff7c793          	not	a5,a5
    248e:	fec42703          	lw	a4,-20(s0)
    2492:	8ff9                	and	a5,a5,a4
    2494:	fef42623          	sw	a5,-20(s0)
E:/沁恒/例程/Example/libraries/sdk/Peripheral/ch32v30x_gpio.c:426
    tmpreg |= ~DBGAFR_SWJCFG_MASK;
    2498:	fec42703          	lw	a4,-20(s0)
    249c:	0f0007b7          	lui	a5,0xf000
    24a0:	8fd9                	or	a5,a5,a4
    24a2:	fef42623          	sw	a5,-20(s0)
    24a6:	a03d                	j	24d4 <GPIO_PinRemapConfig+0xf6>
E:/沁恒/例程/Example/libraries/sdk/Peripheral/ch32v30x_gpio.c:430
  }
  else
  {
    tmpreg &= ~(tmp << ((GPIO_Remap >> 0x15)*0x10));
    24a8:	fdc42783          	lw	a5,-36(s0)
    24ac:	83d5                	srli	a5,a5,0x15
    24ae:	0792                	slli	a5,a5,0x4
    24b0:	fe842703          	lw	a4,-24(s0)
    24b4:	00f717b3          	sll	a5,a4,a5
    24b8:	fff7c793          	not	a5,a5
    24bc:	fec42703          	lw	a4,-20(s0)
    24c0:	8ff9                	and	a5,a5,a4
    24c2:	fef42623          	sw	a5,-20(s0)
E:/沁恒/例程/Example/libraries/sdk/Peripheral/ch32v30x_gpio.c:431
    tmpreg |= ~DBGAFR_SWJCFG_MASK;
    24c6:	fec42703          	lw	a4,-20(s0)
    24ca:	0f0007b7          	lui	a5,0xf000
    24ce:	8fd9                	or	a5,a5,a4
    24d0:	fef42623          	sw	a5,-20(s0)
E:/沁恒/例程/Example/libraries/sdk/Peripheral/ch32v30x_gpio.c:434
  }

  if (NewState != DISABLE)
    24d4:	fd842783          	lw	a5,-40(s0)
    24d8:	cf91                	beqz	a5,24f4 <GPIO_PinRemapConfig+0x116>
E:/沁恒/例程/Example/libraries/sdk/Peripheral/ch32v30x_gpio.c:436
  {
    tmpreg |= (tmp << ((GPIO_Remap >> 0x15)*0x10));
    24da:	fdc42783          	lw	a5,-36(s0)
    24de:	83d5                	srli	a5,a5,0x15
    24e0:	0792                	slli	a5,a5,0x4
    24e2:	fe842703          	lw	a4,-24(s0)
    24e6:	00f717b3          	sll	a5,a4,a5
    24ea:	fec42703          	lw	a4,-20(s0)
    24ee:	8fd9                	or	a5,a5,a4
    24f0:	fef42623          	sw	a5,-20(s0)
E:/沁恒/例程/Example/libraries/sdk/Peripheral/ch32v30x_gpio.c:439
  }

  if((GPIO_Remap & 0x80000000) == 0x80000000)
    24f4:	fdc42783          	lw	a5,-36(s0)
    24f8:	0007d863          	bgez	a5,2508 <GPIO_PinRemapConfig+0x12a>
E:/沁恒/例程/Example/libraries/sdk/Peripheral/ch32v30x_gpio.c:441
  {
    AFIO->PCFR2 = tmpreg;
    24fc:	400107b7          	lui	a5,0x40010
    2500:	fec42703          	lw	a4,-20(s0)
    2504:	cfd8                	sw	a4,28(a5)
E:/沁恒/例程/Example/libraries/sdk/Peripheral/ch32v30x_gpio.c:447
  }
  else
  {
    AFIO->PCFR1 = tmpreg;
  }  
}
    2506:	a031                	j	2512 <GPIO_PinRemapConfig+0x134>
E:/沁恒/例程/Example/libraries/sdk/Peripheral/ch32v30x_gpio.c:445
    AFIO->PCFR1 = tmpreg;
    2508:	400107b7          	lui	a5,0x40010
    250c:	fec42703          	lw	a4,-20(s0)
    2510:	c3d8                	sw	a4,4(a5)
E:/沁恒/例程/Example/libraries/sdk/Peripheral/ch32v30x_gpio.c:447
}
    2512:	0001                	nop
    2514:	5432                	lw	s0,44(sp)
    2516:	6145                	addi	sp,sp,48
    2518:	8082                	ret

0000251a <RCC_GetClocksFreq>:
RCC_GetClocksFreq():
E:/沁恒/例程/Example/libraries/sdk/Peripheral/ch32v30x_rcc.c:489
* Input          : RCC_Clocks: pointer to a RCC_ClocksTypeDef structure which will hold
*      the clocks frequencies.
* Return         : None
********************************************************************************/
void RCC_GetClocksFreq(RCC_ClocksTypeDef* RCC_Clocks)
{
    251a:	7139                	addi	sp,sp,-64
    251c:	de22                	sw	s0,60(sp)
    251e:	0080                	addi	s0,sp,64
    2520:	fca42623          	sw	a0,-52(s0)
E:/沁恒/例程/Example/libraries/sdk/Peripheral/ch32v30x_rcc.c:490
    uint32_t tmp = 0, pllmull = 0, pllsource = 0, presc = 0, Pll_6_5 = 0;
    2524:	fe042223          	sw	zero,-28(s0)
    2528:	fe042623          	sw	zero,-20(s0)
    252c:	fe042023          	sw	zero,-32(s0)
    2530:	fc042e23          	sw	zero,-36(s0)
    2534:	fe042423          	sw	zero,-24(s0)
E:/沁恒/例程/Example/libraries/sdk/Peripheral/ch32v30x_rcc.c:492

    tmp = RCC->CFGR0 & CFGR0_SWS_Mask;
    2538:	400217b7          	lui	a5,0x40021
    253c:	43dc                	lw	a5,4(a5)
    253e:	8bb1                	andi	a5,a5,12
    2540:	fef42223          	sw	a5,-28(s0)
    2544:	fe442703          	lw	a4,-28(s0)
    2548:	4791                	li	a5,4
    254a:	02f70363          	beq	a4,a5,2570 <RCC_GetClocksFreq+0x56>
    254e:	fe442703          	lw	a4,-28(s0)
    2552:	47a1                	li	a5,8
    2554:	02f70663          	beq	a4,a5,2580 <RCC_GetClocksFreq+0x66>
    2558:	fe442783          	lw	a5,-28(s0)
    255c:	14079963          	bnez	a5,26ae <RCC_GetClocksFreq+0x194>
E:/沁恒/例程/Example/libraries/sdk/Peripheral/ch32v30x_rcc.c:497

    switch (tmp)
    {
      case 0x00:
        RCC_Clocks->SYSCLK_Frequency = HSI_VALUE;
    2560:	fcc42783          	lw	a5,-52(s0)
    2564:	007a1737          	lui	a4,0x7a1
    2568:	20070713          	addi	a4,a4,512 # 7a1200 <_data_lma+0x79833c>
    256c:	c398                	sw	a4,0(a5)
E:/沁恒/例程/Example/libraries/sdk/Peripheral/ch32v30x_rcc.c:498
        break;
    256e:	aa89                	j	26c0 <RCC_GetClocksFreq+0x1a6>
E:/沁恒/例程/Example/libraries/sdk/Peripheral/ch32v30x_rcc.c:501

      case 0x04:
        RCC_Clocks->SYSCLK_Frequency = HSE_VALUE;
    2570:	fcc42783          	lw	a5,-52(s0)
    2574:	007a1737          	lui	a4,0x7a1
    2578:	20070713          	addi	a4,a4,512 # 7a1200 <_data_lma+0x79833c>
    257c:	c398                	sw	a4,0(a5)
E:/沁恒/例程/Example/libraries/sdk/Peripheral/ch32v30x_rcc.c:502
        break;
    257e:	a289                	j	26c0 <RCC_GetClocksFreq+0x1a6>
E:/沁恒/例程/Example/libraries/sdk/Peripheral/ch32v30x_rcc.c:505

      case 0x08:
        pllmull = RCC->CFGR0 & CFGR0_PLLMull_Mask;
    2580:	400217b7          	lui	a5,0x40021
    2584:	43d8                	lw	a4,4(a5)
    2586:	003c07b7          	lui	a5,0x3c0
    258a:	8ff9                	and	a5,a5,a4
    258c:	fef42623          	sw	a5,-20(s0)
E:/沁恒/例程/Example/libraries/sdk/Peripheral/ch32v30x_rcc.c:506
        pllsource = RCC->CFGR0 & CFGR0_PLLSRC_Mask;
    2590:	400217b7          	lui	a5,0x40021
    2594:	43d8                	lw	a4,4(a5)
    2596:	67c1                	lui	a5,0x10
    2598:	8ff9                	and	a5,a5,a4
    259a:	fef42023          	sw	a5,-32(s0)
E:/沁恒/例程/Example/libraries/sdk/Peripheral/ch32v30x_rcc.c:508

        pllmull = ( pllmull >> 18) + 2;
    259e:	fec42783          	lw	a5,-20(s0)
    25a2:	83c9                	srli	a5,a5,0x12
    25a4:	0789                	addi	a5,a5,2
    25a6:	fef42623          	sw	a5,-20(s0)
E:/沁恒/例程/Example/libraries/sdk/Peripheral/ch32v30x_rcc.c:510

        if(((*(uint32_t*)0x1FFFF70C) & (1<<14)) != (1<<14)){ /* for other CH32V30x */
    25aa:	1ffff7b7          	lui	a5,0x1ffff
    25ae:	70c78793          	addi	a5,a5,1804 # 1ffff70c <_data_lma+0x1fff6848>
    25b2:	4398                	lw	a4,0(a5)
    25b4:	6791                	lui	a5,0x4
    25b6:	8ff9                	and	a5,a5,a4
    25b8:	eb91                	bnez	a5,25cc <RCC_GetClocksFreq+0xb2>
E:/沁恒/例程/Example/libraries/sdk/Peripheral/ch32v30x_rcc.c:511
            if(pllmull == 17) pllmull = 18;
    25ba:	fec42703          	lw	a4,-20(s0)
    25be:	47c5                	li	a5,17
    25c0:	04f71963          	bne	a4,a5,2612 <RCC_GetClocksFreq+0xf8>
E:/沁恒/例程/Example/libraries/sdk/Peripheral/ch32v30x_rcc.c:511 (discriminator 1)
    25c4:	47c9                	li	a5,18
    25c6:	fef42623          	sw	a5,-20(s0)
    25ca:	a0a1                	j	2612 <RCC_GetClocksFreq+0xf8>
E:/沁恒/例程/Example/libraries/sdk/Peripheral/ch32v30x_rcc.c:514
        }
        else{  /* for CH32V307 */
            if(pllmull == 2) pllmull = 18;
    25cc:	fec42703          	lw	a4,-20(s0)
    25d0:	4789                	li	a5,2
    25d2:	00f71563          	bne	a4,a5,25dc <RCC_GetClocksFreq+0xc2>
E:/沁恒/例程/Example/libraries/sdk/Peripheral/ch32v30x_rcc.c:514 (discriminator 1)
    25d6:	47c9                	li	a5,18
    25d8:	fef42623          	sw	a5,-20(s0)
E:/沁恒/例程/Example/libraries/sdk/Peripheral/ch32v30x_rcc.c:515
            if(pllmull == 15){
    25dc:	fec42703          	lw	a4,-20(s0)
    25e0:	47bd                	li	a5,15
    25e2:	00f71863          	bne	a4,a5,25f2 <RCC_GetClocksFreq+0xd8>
E:/沁恒/例程/Example/libraries/sdk/Peripheral/ch32v30x_rcc.c:516
                pllmull = 13;  /* *6.5 */
    25e6:	47b5                	li	a5,13
    25e8:	fef42623          	sw	a5,-20(s0)
E:/沁恒/例程/Example/libraries/sdk/Peripheral/ch32v30x_rcc.c:517
                Pll_6_5 = 1;
    25ec:	4785                	li	a5,1
    25ee:	fef42423          	sw	a5,-24(s0)
E:/沁恒/例程/Example/libraries/sdk/Peripheral/ch32v30x_rcc.c:519
            }
            if(pllmull == 16) pllmull = 15;
    25f2:	fec42703          	lw	a4,-20(s0)
    25f6:	47c1                	li	a5,16
    25f8:	00f71563          	bne	a4,a5,2602 <RCC_GetClocksFreq+0xe8>
E:/沁恒/例程/Example/libraries/sdk/Peripheral/ch32v30x_rcc.c:519 (discriminator 1)
    25fc:	47bd                	li	a5,15
    25fe:	fef42623          	sw	a5,-20(s0)
E:/沁恒/例程/Example/libraries/sdk/Peripheral/ch32v30x_rcc.c:520
            if(pllmull == 17) pllmull = 16;
    2602:	fec42703          	lw	a4,-20(s0)
    2606:	47c5                	li	a5,17
    2608:	00f71563          	bne	a4,a5,2612 <RCC_GetClocksFreq+0xf8>
E:/沁恒/例程/Example/libraries/sdk/Peripheral/ch32v30x_rcc.c:520 (discriminator 1)
    260c:	47c1                	li	a5,16
    260e:	fef42623          	sw	a5,-20(s0)
E:/沁恒/例程/Example/libraries/sdk/Peripheral/ch32v30x_rcc.c:524
        }


        if (pllsource == 0x00)
    2612:	fe042783          	lw	a5,-32(s0)
    2616:	e3a1                	bnez	a5,2656 <RCC_GetClocksFreq+0x13c>
E:/沁恒/例程/Example/libraries/sdk/Peripheral/ch32v30x_rcc.c:526
        {
                  if(EXTEN->EXTEN_CTR & EXTEN_PLL_HSI_PRE){
    2618:	400247b7          	lui	a5,0x40024
    261c:	80078793          	addi	a5,a5,-2048 # 40023800 <_eusrstack+0x20013800>
    2620:	439c                	lw	a5,0(a5)
    2622:	8bc1                	andi	a5,a5,16
    2624:	cf89                	beqz	a5,263e <RCC_GetClocksFreq+0x124>
E:/沁恒/例程/Example/libraries/sdk/Peripheral/ch32v30x_rcc.c:527
                   RCC_Clocks->SYSCLK_Frequency = (HSI_VALUE) * pllmull;
    2626:	fec42703          	lw	a4,-20(s0)
    262a:	007a17b7          	lui	a5,0x7a1
    262e:	20078793          	addi	a5,a5,512 # 7a1200 <_data_lma+0x79833c>
    2632:	02f70733          	mul	a4,a4,a5
    2636:	fcc42783          	lw	a5,-52(s0)
    263a:	c398                	sw	a4,0(a5)
    263c:	a899                	j	2692 <RCC_GetClocksFreq+0x178>
E:/沁恒/例程/Example/libraries/sdk/Peripheral/ch32v30x_rcc.c:530
                  }
                  else{
                   RCC_Clocks->SYSCLK_Frequency = (HSI_VALUE >>1) * pllmull;
    263e:	fec42703          	lw	a4,-20(s0)
    2642:	003d17b7          	lui	a5,0x3d1
    2646:	90078793          	addi	a5,a5,-1792 # 3d0900 <_data_lma+0x3c7a3c>
    264a:	02f70733          	mul	a4,a4,a5
    264e:	fcc42783          	lw	a5,-52(s0)
    2652:	c398                	sw	a4,0(a5)
    2654:	a83d                	j	2692 <RCC_GetClocksFreq+0x178>
E:/沁恒/例程/Example/libraries/sdk/Peripheral/ch32v30x_rcc.c:535
                  }
        }
        else
        {
          if ((RCC->CFGR0 & CFGR0_PLLXTPRE_Mask) != (uint32_t)RESET)
    2656:	400217b7          	lui	a5,0x40021
    265a:	43d8                	lw	a4,4(a5)
    265c:	000207b7          	lui	a5,0x20
    2660:	8ff9                	and	a5,a5,a4
    2662:	cf89                	beqz	a5,267c <RCC_GetClocksFreq+0x162>
E:/沁恒/例程/Example/libraries/sdk/Peripheral/ch32v30x_rcc.c:537
          {
            RCC_Clocks->SYSCLK_Frequency = (HSE_VALUE >> 1) * pllmull;
    2664:	fec42703          	lw	a4,-20(s0)
    2668:	003d17b7          	lui	a5,0x3d1
    266c:	90078793          	addi	a5,a5,-1792 # 3d0900 <_data_lma+0x3c7a3c>
    2670:	02f70733          	mul	a4,a4,a5
    2674:	fcc42783          	lw	a5,-52(s0)
    2678:	c398                	sw	a4,0(a5)
    267a:	a821                	j	2692 <RCC_GetClocksFreq+0x178>
E:/沁恒/例程/Example/libraries/sdk/Peripheral/ch32v30x_rcc.c:541
          }
          else
          {
            RCC_Clocks->SYSCLK_Frequency = HSE_VALUE * pllmull;
    267c:	fec42703          	lw	a4,-20(s0)
    2680:	007a17b7          	lui	a5,0x7a1
    2684:	20078793          	addi	a5,a5,512 # 7a1200 <_data_lma+0x79833c>
    2688:	02f70733          	mul	a4,a4,a5
    268c:	fcc42783          	lw	a5,-52(s0)
    2690:	c398                	sw	a4,0(a5)
E:/沁恒/例程/Example/libraries/sdk/Peripheral/ch32v30x_rcc.c:545
          }
        }

        if(Pll_6_5 == 1) RCC_Clocks->SYSCLK_Frequency = (RCC_Clocks->SYSCLK_Frequency / 2);
    2692:	fe842703          	lw	a4,-24(s0)
    2696:	4785                	li	a5,1
    2698:	02f71363          	bne	a4,a5,26be <RCC_GetClocksFreq+0x1a4>
E:/沁恒/例程/Example/libraries/sdk/Peripheral/ch32v30x_rcc.c:545 (discriminator 1)
    269c:	fcc42783          	lw	a5,-52(s0)
    26a0:	439c                	lw	a5,0(a5)
    26a2:	0017d713          	srli	a4,a5,0x1
    26a6:	fcc42783          	lw	a5,-52(s0)
    26aa:	c398                	sw	a4,0(a5)
E:/沁恒/例程/Example/libraries/sdk/Peripheral/ch32v30x_rcc.c:547 (discriminator 1)

        break;
    26ac:	a809                	j	26be <RCC_GetClocksFreq+0x1a4>
E:/沁恒/例程/Example/libraries/sdk/Peripheral/ch32v30x_rcc.c:550

      default:
        RCC_Clocks->SYSCLK_Frequency = HSI_VALUE;
    26ae:	fcc42783          	lw	a5,-52(s0)
    26b2:	007a1737          	lui	a4,0x7a1
    26b6:	20070713          	addi	a4,a4,512 # 7a1200 <_data_lma+0x79833c>
    26ba:	c398                	sw	a4,0(a5)
E:/沁恒/例程/Example/libraries/sdk/Peripheral/ch32v30x_rcc.c:551
        break;
    26bc:	a011                	j	26c0 <RCC_GetClocksFreq+0x1a6>
E:/沁恒/例程/Example/libraries/sdk/Peripheral/ch32v30x_rcc.c:547
        break;
    26be:	0001                	nop
E:/沁恒/例程/Example/libraries/sdk/Peripheral/ch32v30x_rcc.c:554
    }

    tmp = RCC->CFGR0 & CFGR0_HPRE_Set_Mask;
    26c0:	400217b7          	lui	a5,0x40021
    26c4:	43dc                	lw	a5,4(a5)
    26c6:	0f07f793          	andi	a5,a5,240
    26ca:	fef42223          	sw	a5,-28(s0)
E:/沁恒/例程/Example/libraries/sdk/Peripheral/ch32v30x_rcc.c:555
    tmp = tmp >> 4;
    26ce:	fe442783          	lw	a5,-28(s0)
    26d2:	8391                	srli	a5,a5,0x4
    26d4:	fef42223          	sw	a5,-28(s0)
E:/沁恒/例程/Example/libraries/sdk/Peripheral/ch32v30x_rcc.c:556
    presc = APBAHBPrescTable[tmp];
    26d8:	200007b7          	lui	a5,0x20000
    26dc:	00078713          	mv	a4,a5
    26e0:	fe442783          	lw	a5,-28(s0)
    26e4:	97ba                	add	a5,a5,a4
    26e6:	0007c783          	lbu	a5,0(a5) # 20000000 <_data_vma>
    26ea:	0ff7f793          	andi	a5,a5,255
    26ee:	fcf42e23          	sw	a5,-36(s0)
E:/沁恒/例程/Example/libraries/sdk/Peripheral/ch32v30x_rcc.c:557
    RCC_Clocks->HCLK_Frequency = RCC_Clocks->SYSCLK_Frequency >> presc;
    26f2:	fcc42783          	lw	a5,-52(s0)
    26f6:	4398                	lw	a4,0(a5)
    26f8:	fdc42783          	lw	a5,-36(s0)
    26fc:	00f75733          	srl	a4,a4,a5
    2700:	fcc42783          	lw	a5,-52(s0)
    2704:	c3d8                	sw	a4,4(a5)
E:/沁恒/例程/Example/libraries/sdk/Peripheral/ch32v30x_rcc.c:558
    tmp = RCC->CFGR0 & CFGR0_PPRE1_Set_Mask;
    2706:	400217b7          	lui	a5,0x40021
    270a:	43dc                	lw	a5,4(a5)
    270c:	7007f793          	andi	a5,a5,1792
    2710:	fef42223          	sw	a5,-28(s0)
E:/沁恒/例程/Example/libraries/sdk/Peripheral/ch32v30x_rcc.c:559
    tmp = tmp >> 8;
    2714:	fe442783          	lw	a5,-28(s0)
    2718:	83a1                	srli	a5,a5,0x8
    271a:	fef42223          	sw	a5,-28(s0)
E:/沁恒/例程/Example/libraries/sdk/Peripheral/ch32v30x_rcc.c:560
    presc = APBAHBPrescTable[tmp];
    271e:	200007b7          	lui	a5,0x20000
    2722:	00078713          	mv	a4,a5
    2726:	fe442783          	lw	a5,-28(s0)
    272a:	97ba                	add	a5,a5,a4
    272c:	0007c783          	lbu	a5,0(a5) # 20000000 <_data_vma>
    2730:	0ff7f793          	andi	a5,a5,255
    2734:	fcf42e23          	sw	a5,-36(s0)
E:/沁恒/例程/Example/libraries/sdk/Peripheral/ch32v30x_rcc.c:561
    RCC_Clocks->PCLK1_Frequency = RCC_Clocks->HCLK_Frequency >> presc;
    2738:	fcc42783          	lw	a5,-52(s0)
    273c:	43d8                	lw	a4,4(a5)
    273e:	fdc42783          	lw	a5,-36(s0)
    2742:	00f75733          	srl	a4,a4,a5
    2746:	fcc42783          	lw	a5,-52(s0)
    274a:	c798                	sw	a4,8(a5)
E:/沁恒/例程/Example/libraries/sdk/Peripheral/ch32v30x_rcc.c:562
    tmp = RCC->CFGR0 & CFGR0_PPRE2_Set_Mask;
    274c:	400217b7          	lui	a5,0x40021
    2750:	43d8                	lw	a4,4(a5)
    2752:	6791                	lui	a5,0x4
    2754:	80078793          	addi	a5,a5,-2048 # 3800 <OTG_FS_IRQHandler+0x892>
    2758:	8ff9                	and	a5,a5,a4
    275a:	fef42223          	sw	a5,-28(s0)
E:/沁恒/例程/Example/libraries/sdk/Peripheral/ch32v30x_rcc.c:563
    tmp = tmp >> 11;
    275e:	fe442783          	lw	a5,-28(s0)
    2762:	83ad                	srli	a5,a5,0xb
    2764:	fef42223          	sw	a5,-28(s0)
E:/沁恒/例程/Example/libraries/sdk/Peripheral/ch32v30x_rcc.c:564
    presc = APBAHBPrescTable[tmp];
    2768:	200007b7          	lui	a5,0x20000
    276c:	00078713          	mv	a4,a5
    2770:	fe442783          	lw	a5,-28(s0)
    2774:	97ba                	add	a5,a5,a4
    2776:	0007c783          	lbu	a5,0(a5) # 20000000 <_data_vma>
    277a:	0ff7f793          	andi	a5,a5,255
    277e:	fcf42e23          	sw	a5,-36(s0)
E:/沁恒/例程/Example/libraries/sdk/Peripheral/ch32v30x_rcc.c:565
    RCC_Clocks->PCLK2_Frequency = RCC_Clocks->HCLK_Frequency >> presc;
    2782:	fcc42783          	lw	a5,-52(s0)
    2786:	43d8                	lw	a4,4(a5)
    2788:	fdc42783          	lw	a5,-36(s0)
    278c:	00f75733          	srl	a4,a4,a5
    2790:	fcc42783          	lw	a5,-52(s0)
    2794:	c7d8                	sw	a4,12(a5)
E:/沁恒/例程/Example/libraries/sdk/Peripheral/ch32v30x_rcc.c:566
    tmp = RCC->CFGR0 & CFGR0_ADCPRE_Set_Mask;
    2796:	400217b7          	lui	a5,0x40021
    279a:	43d8                	lw	a4,4(a5)
    279c:	67b1                	lui	a5,0xc
    279e:	8ff9                	and	a5,a5,a4
    27a0:	fef42223          	sw	a5,-28(s0)
E:/沁恒/例程/Example/libraries/sdk/Peripheral/ch32v30x_rcc.c:567
    tmp = tmp >> 14;
    27a4:	fe442783          	lw	a5,-28(s0)
    27a8:	83b9                	srli	a5,a5,0xe
    27aa:	fef42223          	sw	a5,-28(s0)
E:/沁恒/例程/Example/libraries/sdk/Peripheral/ch32v30x_rcc.c:568
    presc = ADCPrescTable[tmp];
    27ae:	200007b7          	lui	a5,0x20000
    27b2:	22078713          	addi	a4,a5,544 # 20000220 <ADCPrescTable>
    27b6:	fe442783          	lw	a5,-28(s0)
    27ba:	97ba                	add	a5,a5,a4
    27bc:	0007c783          	lbu	a5,0(a5)
    27c0:	0ff7f793          	andi	a5,a5,255
    27c4:	fcf42e23          	sw	a5,-36(s0)
E:/沁恒/例程/Example/libraries/sdk/Peripheral/ch32v30x_rcc.c:569
    RCC_Clocks->ADCCLK_Frequency = RCC_Clocks->PCLK2_Frequency / presc;
    27c8:	fcc42783          	lw	a5,-52(s0)
    27cc:	47d8                	lw	a4,12(a5)
    27ce:	fdc42783          	lw	a5,-36(s0)
    27d2:	02f75733          	divu	a4,a4,a5
    27d6:	fcc42783          	lw	a5,-52(s0)
    27da:	cb98                	sw	a4,16(a5)
E:/沁恒/例程/Example/libraries/sdk/Peripheral/ch32v30x_rcc.c:570
}
    27dc:	0001                	nop
    27de:	5472                	lw	s0,60(sp)
    27e0:	6121                	addi	sp,sp,64
    27e2:	8082                	ret

000027e4 <RCC_APB2PeriphClockCmd>:
RCC_APB2PeriphClockCmd():
E:/沁恒/例程/Example/libraries/sdk/Peripheral/ch32v30x_rcc.c:627
*                    RCC_APB2Periph_USART1.
*                  NewState: ENABLE or DISABLE
* Return         : None
*******************************************************************************/	
void RCC_APB2PeriphClockCmd(uint32_t RCC_APB2Periph, FunctionalState NewState)
{
    27e4:	1101                	addi	sp,sp,-32
    27e6:	ce22                	sw	s0,28(sp)
    27e8:	1000                	addi	s0,sp,32
    27ea:	fea42623          	sw	a0,-20(s0)
    27ee:	feb42423          	sw	a1,-24(s0)
E:/沁恒/例程/Example/libraries/sdk/Peripheral/ch32v30x_rcc.c:628
  if (NewState != DISABLE)
    27f2:	fe842783          	lw	a5,-24(s0)
    27f6:	cb99                	beqz	a5,280c <RCC_APB2PeriphClockCmd+0x28>
E:/沁恒/例程/Example/libraries/sdk/Peripheral/ch32v30x_rcc.c:630
  {
    RCC->APB2PCENR |= RCC_APB2Periph;
    27f8:	400217b7          	lui	a5,0x40021
    27fc:	4f94                	lw	a3,24(a5)
    27fe:	400217b7          	lui	a5,0x40021
    2802:	fec42703          	lw	a4,-20(s0)
    2806:	8f55                	or	a4,a4,a3
    2808:	cf98                	sw	a4,24(a5)
E:/沁恒/例程/Example/libraries/sdk/Peripheral/ch32v30x_rcc.c:636
  }
  else
  {
    RCC->APB2PCENR &= ~RCC_APB2Periph;
  }
}
    280a:	a821                	j	2822 <RCC_APB2PeriphClockCmd+0x3e>
E:/沁恒/例程/Example/libraries/sdk/Peripheral/ch32v30x_rcc.c:634
    RCC->APB2PCENR &= ~RCC_APB2Periph;
    280c:	400217b7          	lui	a5,0x40021
    2810:	4f94                	lw	a3,24(a5)
    2812:	fec42783          	lw	a5,-20(s0)
    2816:	fff7c713          	not	a4,a5
    281a:	400217b7          	lui	a5,0x40021
    281e:	8f75                	and	a4,a4,a3
    2820:	cf98                	sw	a4,24(a5)
E:/沁恒/例程/Example/libraries/sdk/Peripheral/ch32v30x_rcc.c:636
}
    2822:	0001                	nop
    2824:	4472                	lw	s0,28(sp)
    2826:	6105                	addi	sp,sp,32
    2828:	8082                	ret

0000282a <RCC_APB1PeriphClockCmd>:
RCC_APB1PeriphClockCmd():
E:/沁恒/例程/Example/libraries/sdk/Peripheral/ch32v30x_rcc.c:668
*                    RCC_APB1Periph_DAC.                
*                  NewState: ENABLE or DISABLE.
* Return         : None
*******************************************************************************/	
void RCC_APB1PeriphClockCmd(uint32_t RCC_APB1Periph, FunctionalState NewState)
{
    282a:	1101                	addi	sp,sp,-32
    282c:	ce22                	sw	s0,28(sp)
    282e:	1000                	addi	s0,sp,32
    2830:	fea42623          	sw	a0,-20(s0)
    2834:	feb42423          	sw	a1,-24(s0)
E:/沁恒/例程/Example/libraries/sdk/Peripheral/ch32v30x_rcc.c:669
  if (NewState != DISABLE)
    2838:	fe842783          	lw	a5,-24(s0)
    283c:	cb99                	beqz	a5,2852 <RCC_APB1PeriphClockCmd+0x28>
E:/沁恒/例程/Example/libraries/sdk/Peripheral/ch32v30x_rcc.c:671
  {
    RCC->APB1PCENR |= RCC_APB1Periph;
    283e:	400217b7          	lui	a5,0x40021
    2842:	4fd4                	lw	a3,28(a5)
    2844:	400217b7          	lui	a5,0x40021
    2848:	fec42703          	lw	a4,-20(s0)
    284c:	8f55                	or	a4,a4,a3
    284e:	cfd8                	sw	a4,28(a5)
E:/沁恒/例程/Example/libraries/sdk/Peripheral/ch32v30x_rcc.c:677
  }
  else
  {
    RCC->APB1PCENR &= ~RCC_APB1Periph;
  }
}
    2850:	a821                	j	2868 <RCC_APB1PeriphClockCmd+0x3e>
E:/沁恒/例程/Example/libraries/sdk/Peripheral/ch32v30x_rcc.c:675
    RCC->APB1PCENR &= ~RCC_APB1Periph;
    2852:	400217b7          	lui	a5,0x40021
    2856:	4fd4                	lw	a3,28(a5)
    2858:	fec42783          	lw	a5,-20(s0)
    285c:	fff7c713          	not	a4,a5
    2860:	400217b7          	lui	a5,0x40021
    2864:	8f75                	and	a4,a4,a3
    2866:	cfd8                	sw	a4,28(a5)
E:/沁恒/例程/Example/libraries/sdk/Peripheral/ch32v30x_rcc.c:677
}
    2868:	0001                	nop
    286a:	4472                	lw	s0,28(sp)
    286c:	6105                	addi	sp,sp,32
    286e:	8082                	ret

00002870 <TIM_GetITStatus>:
TIM_GetITStatus():
E:/沁恒/例程/Example/libraries/sdk/Peripheral/ch32v30x_tim.c:1887
*                    TIM_IT_Trigger: TIM Trigger Interrupt source.
*                    TIM_IT_Break: TIM Break Interrupt source.
* Return         : bitstatus: SET or RESET.
*******************************************************************************/
ITStatus TIM_GetITStatus(TIM_TypeDef* TIMx, uint16_t TIM_IT)
{
    2870:	7179                	addi	sp,sp,-48
    2872:	d622                	sw	s0,44(sp)
    2874:	1800                	addi	s0,sp,48
    2876:	fca42e23          	sw	a0,-36(s0)
    287a:	87ae                	mv	a5,a1
    287c:	fcf41d23          	sh	a5,-38(s0)
E:/沁恒/例程/Example/libraries/sdk/Peripheral/ch32v30x_tim.c:1888
  ITStatus bitstatus = RESET;  
    2880:	fe042623          	sw	zero,-20(s0)
E:/沁恒/例程/Example/libraries/sdk/Peripheral/ch32v30x_tim.c:1889
  uint16_t itstatus = 0x0, itenable = 0x0;
    2884:	fe041523          	sh	zero,-22(s0)
    2888:	fe041423          	sh	zero,-24(s0)
E:/沁恒/例程/Example/libraries/sdk/Peripheral/ch32v30x_tim.c:1891
   
  itstatus = TIMx->INTFR & TIM_IT;
    288c:	fdc42783          	lw	a5,-36(s0)
    2890:	0107d783          	lhu	a5,16(a5) # 40021010 <_eusrstack+0x20011010>
    2894:	01079713          	slli	a4,a5,0x10
    2898:	8341                	srli	a4,a4,0x10
    289a:	fda45783          	lhu	a5,-38(s0)
    289e:	8ff9                	and	a5,a5,a4
    28a0:	fef41523          	sh	a5,-22(s0)
E:/沁恒/例程/Example/libraries/sdk/Peripheral/ch32v30x_tim.c:1893
  
  itenable = TIMx->DMAINTENR & TIM_IT;
    28a4:	fdc42783          	lw	a5,-36(s0)
    28a8:	00c7d783          	lhu	a5,12(a5)
    28ac:	01079713          	slli	a4,a5,0x10
    28b0:	8341                	srli	a4,a4,0x10
    28b2:	fda45783          	lhu	a5,-38(s0)
    28b6:	8ff9                	and	a5,a5,a4
    28b8:	fef41423          	sh	a5,-24(s0)
E:/沁恒/例程/Example/libraries/sdk/Peripheral/ch32v30x_tim.c:1894
  if ((itstatus != (uint16_t)RESET) && (itenable != (uint16_t)RESET))
    28bc:	fea45783          	lhu	a5,-22(s0)
    28c0:	cb81                	beqz	a5,28d0 <TIM_GetITStatus+0x60>
E:/沁恒/例程/Example/libraries/sdk/Peripheral/ch32v30x_tim.c:1894 (discriminator 1)
    28c2:	fe845783          	lhu	a5,-24(s0)
    28c6:	c789                	beqz	a5,28d0 <TIM_GetITStatus+0x60>
E:/沁恒/例程/Example/libraries/sdk/Peripheral/ch32v30x_tim.c:1896
  {
    bitstatus = SET;
    28c8:	4785                	li	a5,1
    28ca:	fef42623          	sw	a5,-20(s0)
    28ce:	a019                	j	28d4 <TIM_GetITStatus+0x64>
E:/沁恒/例程/Example/libraries/sdk/Peripheral/ch32v30x_tim.c:1900
  }
  else
  {
    bitstatus = RESET;
    28d0:	fe042623          	sw	zero,-20(s0)
E:/沁恒/例程/Example/libraries/sdk/Peripheral/ch32v30x_tim.c:1903
  }
	
  return bitstatus;
    28d4:	fec42783          	lw	a5,-20(s0)
E:/沁恒/例程/Example/libraries/sdk/Peripheral/ch32v30x_tim.c:1904
}
    28d8:	853e                	mv	a0,a5
    28da:	5432                	lw	s0,44(sp)
    28dc:	6145                	addi	sp,sp,48
    28de:	8082                	ret

000028e0 <TIM_ClearITPendingBit>:
TIM_ClearITPendingBit():
E:/沁恒/例程/Example/libraries/sdk/Peripheral/ch32v30x_tim.c:1922
*                    TIM_IT_Trigger: TIM Trigger Interrupt source.
*                    TIM_IT_Break: TIM Break Interrupt source.
* Return         : None
*******************************************************************************/
void TIM_ClearITPendingBit(TIM_TypeDef* TIMx, uint16_t TIM_IT)
{
    28e0:	1101                	addi	sp,sp,-32
    28e2:	ce22                	sw	s0,28(sp)
    28e4:	1000                	addi	s0,sp,32
    28e6:	fea42623          	sw	a0,-20(s0)
    28ea:	87ae                	mv	a5,a1
    28ec:	fef41523          	sh	a5,-22(s0)
E:/沁恒/例程/Example/libraries/sdk/Peripheral/ch32v30x_tim.c:1923
  TIMx->INTFR = (uint16_t)~TIM_IT;
    28f0:	fea45783          	lhu	a5,-22(s0)
    28f4:	fff7c793          	not	a5,a5
    28f8:	01079713          	slli	a4,a5,0x10
    28fc:	8341                	srli	a4,a4,0x10
    28fe:	fec42783          	lw	a5,-20(s0)
    2902:	00e79823          	sh	a4,16(a5)
E:/沁恒/例程/Example/libraries/sdk/Peripheral/ch32v30x_tim.c:1924
}
    2906:	0001                	nop
    2908:	4472                	lw	s0,28(sp)
    290a:	6105                	addi	sp,sp,32
    290c:	8082                	ret

0000290e <USART_Init>:
USART_Init():
E:/沁恒/例程/Example/libraries/sdk/Peripheral/ch32v30x_usart.c:105
*                  USART_InitStruct: pointer to a USART_InitTypeDef structure
*      that contains the configuration information for the specified USART peripheral. 
* Return         : None
*******************************************************************************/
void USART_Init(USART_TypeDef* USARTx, USART_InitTypeDef* USART_InitStruct)
{
    290e:	715d                	addi	sp,sp,-80
    2910:	c686                	sw	ra,76(sp)
    2912:	c4a2                	sw	s0,72(sp)
    2914:	0880                	addi	s0,sp,80
    2916:	faa42e23          	sw	a0,-68(s0)
    291a:	fab42c23          	sw	a1,-72(s0)
E:/沁恒/例程/Example/libraries/sdk/Peripheral/ch32v30x_usart.c:106
  uint32_t tmpreg = 0x00, apbclock = 0x00;
    291e:	fe042623          	sw	zero,-20(s0)
    2922:	fe042423          	sw	zero,-24(s0)
E:/沁恒/例程/Example/libraries/sdk/Peripheral/ch32v30x_usart.c:107
  uint32_t integerdivider = 0x00;
    2926:	fe042223          	sw	zero,-28(s0)
E:/沁恒/例程/Example/libraries/sdk/Peripheral/ch32v30x_usart.c:108
  uint32_t fractionaldivider = 0x00;
    292a:	fe042023          	sw	zero,-32(s0)
E:/沁恒/例程/Example/libraries/sdk/Peripheral/ch32v30x_usart.c:109
  uint32_t usartxbase = 0;
    292e:	fc042e23          	sw	zero,-36(s0)
E:/沁恒/例程/Example/libraries/sdk/Peripheral/ch32v30x_usart.c:116

  if (USART_InitStruct->USART_HardwareFlowControl != USART_HardwareFlowControl_None)
  {
  }

  usartxbase = (uint32_t)USARTx;
    2932:	fbc42783          	lw	a5,-68(s0)
    2936:	fcf42e23          	sw	a5,-36(s0)
E:/沁恒/例程/Example/libraries/sdk/Peripheral/ch32v30x_usart.c:117
  tmpreg = USARTx->CTLR2;
    293a:	fbc42783          	lw	a5,-68(s0)
    293e:	0107d783          	lhu	a5,16(a5)
    2942:	07c2                	slli	a5,a5,0x10
    2944:	83c1                	srli	a5,a5,0x10
    2946:	fef42623          	sw	a5,-20(s0)
E:/沁恒/例程/Example/libraries/sdk/Peripheral/ch32v30x_usart.c:118
  tmpreg &= CTLR2_STOP_CLEAR_Mask;
    294a:	fec42703          	lw	a4,-20(s0)
    294e:	67b5                	lui	a5,0xd
    2950:	17fd                	addi	a5,a5,-1
    2952:	8ff9                	and	a5,a5,a4
    2954:	fef42623          	sw	a5,-20(s0)
E:/沁恒/例程/Example/libraries/sdk/Peripheral/ch32v30x_usart.c:119
  tmpreg |= (uint32_t)USART_InitStruct->USART_StopBits;  
    2958:	fb842783          	lw	a5,-72(s0)
    295c:	0067d783          	lhu	a5,6(a5) # d006 <_data_lma+0x4142>
    2960:	873e                	mv	a4,a5
    2962:	fec42783          	lw	a5,-20(s0)
    2966:	8fd9                	or	a5,a5,a4
    2968:	fef42623          	sw	a5,-20(s0)
E:/沁恒/例程/Example/libraries/sdk/Peripheral/ch32v30x_usart.c:121
	
  USARTx->CTLR2 = (uint16_t)tmpreg;
    296c:	fec42783          	lw	a5,-20(s0)
    2970:	01079713          	slli	a4,a5,0x10
    2974:	8341                	srli	a4,a4,0x10
    2976:	fbc42783          	lw	a5,-68(s0)
    297a:	00e79823          	sh	a4,16(a5)
E:/沁恒/例程/Example/libraries/sdk/Peripheral/ch32v30x_usart.c:122
  tmpreg = USARTx->CTLR1;
    297e:	fbc42783          	lw	a5,-68(s0)
    2982:	00c7d783          	lhu	a5,12(a5)
    2986:	07c2                	slli	a5,a5,0x10
    2988:	83c1                	srli	a5,a5,0x10
    298a:	fef42623          	sw	a5,-20(s0)
E:/沁恒/例程/Example/libraries/sdk/Peripheral/ch32v30x_usart.c:123
  tmpreg &= CTLR1_CLEAR_Mask;
    298e:	fec42703          	lw	a4,-20(s0)
    2992:	67bd                	lui	a5,0xf
    2994:	9f378793          	addi	a5,a5,-1549 # e9f3 <_data_lma+0x5b2f>
    2998:	8ff9                	and	a5,a5,a4
    299a:	fef42623          	sw	a5,-20(s0)
E:/沁恒/例程/Example/libraries/sdk/Peripheral/ch32v30x_usart.c:124
  tmpreg |= (uint32_t)USART_InitStruct->USART_WordLength | USART_InitStruct->USART_Parity |
    299e:	fb842783          	lw	a5,-72(s0)
    29a2:	0047d703          	lhu	a4,4(a5)
    29a6:	fb842783          	lw	a5,-72(s0)
    29aa:	0087d783          	lhu	a5,8(a5)
    29ae:	8fd9                	or	a5,a5,a4
    29b0:	01079713          	slli	a4,a5,0x10
    29b4:	8341                	srli	a4,a4,0x10
E:/沁恒/例程/Example/libraries/sdk/Peripheral/ch32v30x_usart.c:125
            USART_InitStruct->USART_Mode;
    29b6:	fb842783          	lw	a5,-72(s0)
    29ba:	00a7d783          	lhu	a5,10(a5)
E:/沁恒/例程/Example/libraries/sdk/Peripheral/ch32v30x_usart.c:124
  tmpreg |= (uint32_t)USART_InitStruct->USART_WordLength | USART_InitStruct->USART_Parity |
    29be:	8fd9                	or	a5,a5,a4
    29c0:	07c2                	slli	a5,a5,0x10
    29c2:	83c1                	srli	a5,a5,0x10
    29c4:	873e                	mv	a4,a5
    29c6:	fec42783          	lw	a5,-20(s0)
    29ca:	8fd9                	or	a5,a5,a4
    29cc:	fef42623          	sw	a5,-20(s0)
E:/沁恒/例程/Example/libraries/sdk/Peripheral/ch32v30x_usart.c:126
  USARTx->CTLR1 = (uint16_t)tmpreg;
    29d0:	fec42783          	lw	a5,-20(s0)
    29d4:	01079713          	slli	a4,a5,0x10
    29d8:	8341                	srli	a4,a4,0x10
    29da:	fbc42783          	lw	a5,-68(s0)
    29de:	00e79623          	sh	a4,12(a5)
E:/沁恒/例程/Example/libraries/sdk/Peripheral/ch32v30x_usart.c:128
 
  tmpreg = USARTx->CTLR3;
    29e2:	fbc42783          	lw	a5,-68(s0)
    29e6:	0147d783          	lhu	a5,20(a5)
    29ea:	07c2                	slli	a5,a5,0x10
    29ec:	83c1                	srli	a5,a5,0x10
    29ee:	fef42623          	sw	a5,-20(s0)
E:/沁恒/例程/Example/libraries/sdk/Peripheral/ch32v30x_usart.c:129
  tmpreg &= CTLR3_CLEAR_Mask;
    29f2:	fec42703          	lw	a4,-20(s0)
    29f6:	67c1                	lui	a5,0x10
    29f8:	cff78793          	addi	a5,a5,-769 # fcff <_data_lma+0x6e3b>
    29fc:	8ff9                	and	a5,a5,a4
    29fe:	fef42623          	sw	a5,-20(s0)
E:/沁恒/例程/Example/libraries/sdk/Peripheral/ch32v30x_usart.c:130
  tmpreg |= USART_InitStruct->USART_HardwareFlowControl;
    2a02:	fb842783          	lw	a5,-72(s0)
    2a06:	00c7d783          	lhu	a5,12(a5)
    2a0a:	873e                	mv	a4,a5
    2a0c:	fec42783          	lw	a5,-20(s0)
    2a10:	8fd9                	or	a5,a5,a4
    2a12:	fef42623          	sw	a5,-20(s0)
E:/沁恒/例程/Example/libraries/sdk/Peripheral/ch32v30x_usart.c:131
  USARTx->CTLR3 = (uint16_t)tmpreg;
    2a16:	fec42783          	lw	a5,-20(s0)
    2a1a:	01079713          	slli	a4,a5,0x10
    2a1e:	8341                	srli	a4,a4,0x10
    2a20:	fbc42783          	lw	a5,-68(s0)
    2a24:	00e79a23          	sh	a4,20(a5)
E:/沁恒/例程/Example/libraries/sdk/Peripheral/ch32v30x_usart.c:133

  RCC_GetClocksFreq(&RCC_ClocksStatus);
    2a28:	fc840793          	addi	a5,s0,-56
    2a2c:	853e                	mv	a0,a5
    2a2e:	aedff0ef          	jal	ra,251a <RCC_GetClocksFreq>
E:/沁恒/例程/Example/libraries/sdk/Peripheral/ch32v30x_usart.c:135
	
  if (usartxbase == USART1_BASE)
    2a32:	fdc42703          	lw	a4,-36(s0)
    2a36:	400147b7          	lui	a5,0x40014
    2a3a:	80078793          	addi	a5,a5,-2048 # 40013800 <_eusrstack+0x20003800>
    2a3e:	00f71763          	bne	a4,a5,2a4c <USART_Init+0x13e>
E:/沁恒/例程/Example/libraries/sdk/Peripheral/ch32v30x_usart.c:137
  {
    apbclock = RCC_ClocksStatus.PCLK2_Frequency;
    2a42:	fd442783          	lw	a5,-44(s0)
    2a46:	fef42423          	sw	a5,-24(s0)
    2a4a:	a029                	j	2a54 <USART_Init+0x146>
E:/沁恒/例程/Example/libraries/sdk/Peripheral/ch32v30x_usart.c:141
  }
  else
  {
    apbclock = RCC_ClocksStatus.PCLK1_Frequency;
    2a4c:	fd042783          	lw	a5,-48(s0)
    2a50:	fef42423          	sw	a5,-24(s0)
E:/沁恒/例程/Example/libraries/sdk/Peripheral/ch32v30x_usart.c:144
  }
  
  if ((USARTx->CTLR1 & CTLR1_OVER8_Set) != 0)
    2a54:	fbc42783          	lw	a5,-68(s0)
    2a58:	00c7d783          	lhu	a5,12(a5)
    2a5c:	07c2                	slli	a5,a5,0x10
    2a5e:	83c1                	srli	a5,a5,0x10
    2a60:	07c2                	slli	a5,a5,0x10
    2a62:	87c1                	srai	a5,a5,0x10
    2a64:	0207d263          	bgez	a5,2a88 <USART_Init+0x17a>
E:/沁恒/例程/Example/libraries/sdk/Peripheral/ch32v30x_usart.c:146
  {
    integerdivider = ((25 * apbclock) / (2 * (USART_InitStruct->USART_BaudRate)));    
    2a68:	fe842703          	lw	a4,-24(s0)
    2a6c:	87ba                	mv	a5,a4
    2a6e:	0786                	slli	a5,a5,0x1
    2a70:	97ba                	add	a5,a5,a4
    2a72:	078e                	slli	a5,a5,0x3
    2a74:	973e                	add	a4,a4,a5
    2a76:	fb842783          	lw	a5,-72(s0)
    2a7a:	439c                	lw	a5,0(a5)
    2a7c:	0786                	slli	a5,a5,0x1
    2a7e:	02f757b3          	divu	a5,a4,a5
    2a82:	fef42223          	sw	a5,-28(s0)
    2a86:	a005                	j	2aa6 <USART_Init+0x198>
E:/沁恒/例程/Example/libraries/sdk/Peripheral/ch32v30x_usart.c:150
  }
  else 
  {
    integerdivider = ((25 * apbclock) / (4 * (USART_InitStruct->USART_BaudRate)));    
    2a88:	fe842703          	lw	a4,-24(s0)
    2a8c:	87ba                	mv	a5,a4
    2a8e:	0786                	slli	a5,a5,0x1
    2a90:	97ba                	add	a5,a5,a4
    2a92:	078e                	slli	a5,a5,0x3
    2a94:	973e                	add	a4,a4,a5
    2a96:	fb842783          	lw	a5,-72(s0)
    2a9a:	439c                	lw	a5,0(a5)
    2a9c:	078a                	slli	a5,a5,0x2
    2a9e:	02f757b3          	divu	a5,a4,a5
    2aa2:	fef42223          	sw	a5,-28(s0)
E:/沁恒/例程/Example/libraries/sdk/Peripheral/ch32v30x_usart.c:152
  }
  tmpreg = (integerdivider / 100) << 4;
    2aa6:	fe442703          	lw	a4,-28(s0)
    2aaa:	06400793          	li	a5,100
    2aae:	02f757b3          	divu	a5,a4,a5
    2ab2:	0792                	slli	a5,a5,0x4
    2ab4:	fef42623          	sw	a5,-20(s0)
E:/沁恒/例程/Example/libraries/sdk/Peripheral/ch32v30x_usart.c:154

  fractionaldivider = integerdivider - (100 * (tmpreg >> 4));
    2ab8:	fec42783          	lw	a5,-20(s0)
    2abc:	0047d713          	srli	a4,a5,0x4
    2ac0:	06400793          	li	a5,100
    2ac4:	02f707b3          	mul	a5,a4,a5
    2ac8:	fe442703          	lw	a4,-28(s0)
    2acc:	40f707b3          	sub	a5,a4,a5
    2ad0:	fef42023          	sw	a5,-32(s0)
E:/沁恒/例程/Example/libraries/sdk/Peripheral/ch32v30x_usart.c:156

  if ((USARTx->CTLR1 & CTLR1_OVER8_Set) != 0)
    2ad4:	fbc42783          	lw	a5,-68(s0)
    2ad8:	00c7d783          	lhu	a5,12(a5)
    2adc:	07c2                	slli	a5,a5,0x10
    2ade:	83c1                	srli	a5,a5,0x10
    2ae0:	07c2                	slli	a5,a5,0x10
    2ae2:	87c1                	srai	a5,a5,0x10
    2ae4:	0207d263          	bgez	a5,2b08 <USART_Init+0x1fa>
E:/沁恒/例程/Example/libraries/sdk/Peripheral/ch32v30x_usart.c:158
  {
    tmpreg |= ((((fractionaldivider * 8) + 50) / 100)) & ((uint8_t)0x07);
    2ae8:	fe042783          	lw	a5,-32(s0)
    2aec:	078e                	slli	a5,a5,0x3
    2aee:	03278713          	addi	a4,a5,50
    2af2:	06400793          	li	a5,100
    2af6:	02f757b3          	divu	a5,a4,a5
    2afa:	8b9d                	andi	a5,a5,7
    2afc:	fec42703          	lw	a4,-20(s0)
    2b00:	8fd9                	or	a5,a5,a4
    2b02:	fef42623          	sw	a5,-20(s0)
    2b06:	a005                	j	2b26 <USART_Init+0x218>
E:/沁恒/例程/Example/libraries/sdk/Peripheral/ch32v30x_usart.c:162
  }
  else 
  {
    tmpreg |= ((((fractionaldivider * 16) + 50) / 100)) & ((uint8_t)0x0F);
    2b08:	fe042783          	lw	a5,-32(s0)
    2b0c:	0792                	slli	a5,a5,0x4
    2b0e:	03278713          	addi	a4,a5,50
    2b12:	06400793          	li	a5,100
    2b16:	02f757b3          	divu	a5,a4,a5
    2b1a:	8bbd                	andi	a5,a5,15
    2b1c:	fec42703          	lw	a4,-20(s0)
    2b20:	8fd9                	or	a5,a5,a4
    2b22:	fef42623          	sw	a5,-20(s0)
E:/沁恒/例程/Example/libraries/sdk/Peripheral/ch32v30x_usart.c:165
  }
  
  USARTx->BRR = (uint16_t)tmpreg;
    2b26:	fec42783          	lw	a5,-20(s0)
    2b2a:	01079713          	slli	a4,a5,0x10
    2b2e:	8341                	srli	a4,a4,0x10
    2b30:	fbc42783          	lw	a5,-68(s0)
    2b34:	00e79423          	sh	a4,8(a5)
E:/沁恒/例程/Example/libraries/sdk/Peripheral/ch32v30x_usart.c:166
}
    2b38:	0001                	nop
    2b3a:	40b6                	lw	ra,76(sp)
    2b3c:	4426                	lw	s0,72(sp)
    2b3e:	6161                	addi	sp,sp,80
    2b40:	8082                	ret

00002b42 <USART_Cmd>:
USART_Cmd():
E:/沁恒/例程/Example/libraries/sdk/Peripheral/ch32v30x_usart.c:229
* Input          : USARTx: where x can be 1, 2, 3 to select the USART peripheral.
*                  NewState: ENABLE or DISABLE.
* Return         : None
*******************************************************************************/
void USART_Cmd(USART_TypeDef* USARTx, FunctionalState NewState)
{
    2b42:	1101                	addi	sp,sp,-32
    2b44:	ce22                	sw	s0,28(sp)
    2b46:	1000                	addi	s0,sp,32
    2b48:	fea42623          	sw	a0,-20(s0)
    2b4c:	feb42423          	sw	a1,-24(s0)
E:/沁恒/例程/Example/libraries/sdk/Peripheral/ch32v30x_usart.c:230
  if (NewState != DISABLE)
    2b50:	fe842783          	lw	a5,-24(s0)
    2b54:	c395                	beqz	a5,2b78 <USART_Cmd+0x36>
E:/沁恒/例程/Example/libraries/sdk/Peripheral/ch32v30x_usart.c:232
  {
    USARTx->CTLR1 |= CTLR1_UE_Set;
    2b56:	fec42783          	lw	a5,-20(s0)
    2b5a:	00c7d783          	lhu	a5,12(a5)
    2b5e:	01079713          	slli	a4,a5,0x10
    2b62:	8341                	srli	a4,a4,0x10
    2b64:	6789                	lui	a5,0x2
    2b66:	8fd9                	or	a5,a5,a4
    2b68:	01079713          	slli	a4,a5,0x10
    2b6c:	8341                	srli	a4,a4,0x10
    2b6e:	fec42783          	lw	a5,-20(s0)
    2b72:	00e79623          	sh	a4,12(a5) # 200c <SetSysClockTo144+0x68>
E:/沁恒/例程/Example/libraries/sdk/Peripheral/ch32v30x_usart.c:238
  }
  else
  {
    USARTx->CTLR1 &= CTLR1_UE_Reset;
  }
}
    2b76:	a015                	j	2b9a <USART_Cmd+0x58>
E:/沁恒/例程/Example/libraries/sdk/Peripheral/ch32v30x_usart.c:236
    USARTx->CTLR1 &= CTLR1_UE_Reset;
    2b78:	fec42783          	lw	a5,-20(s0)
    2b7c:	00c7d783          	lhu	a5,12(a5)
    2b80:	01079713          	slli	a4,a5,0x10
    2b84:	8341                	srli	a4,a4,0x10
    2b86:	77f9                	lui	a5,0xffffe
    2b88:	17fd                	addi	a5,a5,-1
    2b8a:	8ff9                	and	a5,a5,a4
    2b8c:	01079713          	slli	a4,a5,0x10
    2b90:	8341                	srli	a4,a4,0x10
    2b92:	fec42783          	lw	a5,-20(s0)
    2b96:	00e79623          	sh	a4,12(a5) # ffffe00c <_eusrstack+0xdffee00c>
E:/沁恒/例程/Example/libraries/sdk/Peripheral/ch32v30x_usart.c:238
}
    2b9a:	0001                	nop
    2b9c:	4472                	lw	s0,28(sp)
    2b9e:	6105                	addi	sp,sp,32
    2ba0:	8082                	ret

00002ba2 <USART_ITConfig>:
USART_ITConfig():
E:/沁恒/例程/Example/libraries/sdk/Peripheral/ch32v30x_usart.c:257
*                    USART_IT_ERR:  Error interrupt.
*                  NewState: ENABLE or DISABLE.
* Return         : None
*******************************************************************************/
void USART_ITConfig(USART_TypeDef* USARTx, uint16_t USART_IT, FunctionalState NewState)
{
    2ba2:	7179                	addi	sp,sp,-48
    2ba4:	d622                	sw	s0,44(sp)
    2ba6:	1800                	addi	s0,sp,48
    2ba8:	fca42e23          	sw	a0,-36(s0)
    2bac:	87ae                	mv	a5,a1
    2bae:	fcc42a23          	sw	a2,-44(s0)
    2bb2:	fcf41d23          	sh	a5,-38(s0)
E:/沁恒/例程/Example/libraries/sdk/Peripheral/ch32v30x_usart.c:258
  uint32_t usartreg = 0x00, itpos = 0x00, itmask = 0x00;
    2bb6:	fe042423          	sw	zero,-24(s0)
    2bba:	fe042223          	sw	zero,-28(s0)
    2bbe:	fe042023          	sw	zero,-32(s0)
E:/沁恒/例程/Example/libraries/sdk/Peripheral/ch32v30x_usart.c:259
  uint32_t usartxbase = 0x00;
    2bc2:	fe042623          	sw	zero,-20(s0)
E:/沁恒/例程/Example/libraries/sdk/Peripheral/ch32v30x_usart.c:265

  if (USART_IT == USART_IT_CTS)
  {
  }   
  
  usartxbase = (uint32_t)USARTx;
    2bc6:	fdc42783          	lw	a5,-36(s0)
    2bca:	fef42623          	sw	a5,-20(s0)
E:/沁恒/例程/Example/libraries/sdk/Peripheral/ch32v30x_usart.c:266
  usartreg = (((uint8_t)USART_IT) >> 0x05);
    2bce:	fda45783          	lhu	a5,-38(s0)
    2bd2:	0ff7f793          	andi	a5,a5,255
    2bd6:	8395                	srli	a5,a5,0x5
    2bd8:	0ff7f793          	andi	a5,a5,255
    2bdc:	fef42423          	sw	a5,-24(s0)
E:/沁恒/例程/Example/libraries/sdk/Peripheral/ch32v30x_usart.c:267
  itpos = USART_IT & IT_Mask;
    2be0:	fda45783          	lhu	a5,-38(s0)
    2be4:	8bfd                	andi	a5,a5,31
    2be6:	fef42223          	sw	a5,-28(s0)
E:/沁恒/例程/Example/libraries/sdk/Peripheral/ch32v30x_usart.c:268
  itmask = (((uint32_t)0x01) << itpos);
    2bea:	fe442783          	lw	a5,-28(s0)
    2bee:	4705                	li	a4,1
    2bf0:	00f717b3          	sll	a5,a4,a5
    2bf4:	fef42023          	sw	a5,-32(s0)
E:/沁恒/例程/Example/libraries/sdk/Peripheral/ch32v30x_usart.c:270
    
  if (usartreg == 0x01) 
    2bf8:	fe842703          	lw	a4,-24(s0)
    2bfc:	4785                	li	a5,1
    2bfe:	00f71863          	bne	a4,a5,2c0e <USART_ITConfig+0x6c>
E:/沁恒/例程/Example/libraries/sdk/Peripheral/ch32v30x_usart.c:272
  {
    usartxbase += 0x0C;
    2c02:	fec42783          	lw	a5,-20(s0)
    2c06:	07b1                	addi	a5,a5,12
    2c08:	fef42623          	sw	a5,-20(s0)
    2c0c:	a00d                	j	2c2e <USART_ITConfig+0x8c>
E:/沁恒/例程/Example/libraries/sdk/Peripheral/ch32v30x_usart.c:274
  }
  else if (usartreg == 0x02) 
    2c0e:	fe842703          	lw	a4,-24(s0)
    2c12:	4789                	li	a5,2
    2c14:	00f71863          	bne	a4,a5,2c24 <USART_ITConfig+0x82>
E:/沁恒/例程/Example/libraries/sdk/Peripheral/ch32v30x_usart.c:276
  {
    usartxbase += 0x10;
    2c18:	fec42783          	lw	a5,-20(s0)
    2c1c:	07c1                	addi	a5,a5,16
    2c1e:	fef42623          	sw	a5,-20(s0)
    2c22:	a031                	j	2c2e <USART_ITConfig+0x8c>
E:/沁恒/例程/Example/libraries/sdk/Peripheral/ch32v30x_usart.c:280
  }
  else 
  {
    usartxbase += 0x14; 
    2c24:	fec42783          	lw	a5,-20(s0)
    2c28:	07d1                	addi	a5,a5,20
    2c2a:	fef42623          	sw	a5,-20(s0)
E:/沁恒/例程/Example/libraries/sdk/Peripheral/ch32v30x_usart.c:283
  }
	
  if (NewState != DISABLE)
    2c2e:	fd442783          	lw	a5,-44(s0)
    2c32:	cb99                	beqz	a5,2c48 <USART_ITConfig+0xa6>
E:/沁恒/例程/Example/libraries/sdk/Peripheral/ch32v30x_usart.c:285
  {
    *(__IO uint32_t*)usartxbase  |= itmask;
    2c34:	fec42783          	lw	a5,-20(s0)
    2c38:	4394                	lw	a3,0(a5)
    2c3a:	fec42783          	lw	a5,-20(s0)
    2c3e:	fe042703          	lw	a4,-32(s0)
    2c42:	8f55                	or	a4,a4,a3
    2c44:	c398                	sw	a4,0(a5)
E:/沁恒/例程/Example/libraries/sdk/Peripheral/ch32v30x_usart.c:291
  }
  else
  {
    *(__IO uint32_t*)usartxbase &= ~itmask;
  }
}
    2c46:	a821                	j	2c5e <USART_ITConfig+0xbc>
E:/沁恒/例程/Example/libraries/sdk/Peripheral/ch32v30x_usart.c:289
    *(__IO uint32_t*)usartxbase &= ~itmask;
    2c48:	fec42783          	lw	a5,-20(s0)
    2c4c:	4394                	lw	a3,0(a5)
    2c4e:	fe042783          	lw	a5,-32(s0)
    2c52:	fff7c713          	not	a4,a5
    2c56:	fec42783          	lw	a5,-20(s0)
    2c5a:	8f75                	and	a4,a4,a3
    2c5c:	c398                	sw	a4,0(a5)
E:/沁恒/例程/Example/libraries/sdk/Peripheral/ch32v30x_usart.c:291
}
    2c5e:	0001                	nop
    2c60:	5432                	lw	s0,44(sp)
    2c62:	6145                	addi	sp,sp,48
    2c64:	8082                	ret

00002c66 <USART_SendData>:
USART_SendData():
E:/沁恒/例程/Example/libraries/sdk/Peripheral/ch32v30x_usart.c:404
* Input          : USARTx: where x can be 1, 2, 3 to select the USART peripheral.
*                  Data: the data to transmit..
* Return         : None
*******************************************************************************/
void USART_SendData(USART_TypeDef* USARTx, uint16_t Data)
{
    2c66:	1101                	addi	sp,sp,-32
    2c68:	ce22                	sw	s0,28(sp)
    2c6a:	1000                	addi	s0,sp,32
    2c6c:	fea42623          	sw	a0,-20(s0)
    2c70:	87ae                	mv	a5,a1
    2c72:	fef41523          	sh	a5,-22(s0)
E:/沁恒/例程/Example/libraries/sdk/Peripheral/ch32v30x_usart.c:405
  USARTx->DATAR = (Data & (uint16_t)0x01FF);
    2c76:	fea45783          	lhu	a5,-22(s0)
    2c7a:	1ff7f793          	andi	a5,a5,511
    2c7e:	01079713          	slli	a4,a5,0x10
    2c82:	8341                	srli	a4,a4,0x10
    2c84:	fec42783          	lw	a5,-20(s0)
    2c88:	00e79223          	sh	a4,4(a5)
E:/沁恒/例程/Example/libraries/sdk/Peripheral/ch32v30x_usart.c:406
}
    2c8c:	0001                	nop
    2c8e:	4472                	lw	s0,28(sp)
    2c90:	6105                	addi	sp,sp,32
    2c92:	8082                	ret

00002c94 <USART_GetFlagStatus>:
USART_GetFlagStatus():
E:/沁恒/例程/Example/libraries/sdk/Peripheral/ch32v30x_usart.c:603
*                    USART_FLAG_FE: Framing Error flag.
*                    USART_FLAG_PE: Parity Error flag.
* Return         : bitstatus: SET or RESET.
*******************************************************************************/
FlagStatus USART_GetFlagStatus(USART_TypeDef* USARTx, uint16_t USART_FLAG)
{
    2c94:	7179                	addi	sp,sp,-48
    2c96:	d622                	sw	s0,44(sp)
    2c98:	1800                	addi	s0,sp,48
    2c9a:	fca42e23          	sw	a0,-36(s0)
    2c9e:	87ae                	mv	a5,a1
    2ca0:	fcf41d23          	sh	a5,-38(s0)
E:/沁恒/例程/Example/libraries/sdk/Peripheral/ch32v30x_usart.c:604
  FlagStatus bitstatus = RESET;
    2ca4:	fe042623          	sw	zero,-20(s0)
E:/沁恒/例程/Example/libraries/sdk/Peripheral/ch32v30x_usart.c:610

  if (USART_FLAG == USART_FLAG_CTS)
  {
  }  
  
  if ((USARTx->STATR & USART_FLAG) != (uint16_t)RESET)
    2ca8:	fdc42783          	lw	a5,-36(s0)
    2cac:	0007d783          	lhu	a5,0(a5)
    2cb0:	01079713          	slli	a4,a5,0x10
    2cb4:	8341                	srli	a4,a4,0x10
    2cb6:	fda45783          	lhu	a5,-38(s0)
    2cba:	8ff9                	and	a5,a5,a4
    2cbc:	07c2                	slli	a5,a5,0x10
    2cbe:	83c1                	srli	a5,a5,0x10
    2cc0:	c789                	beqz	a5,2cca <USART_GetFlagStatus+0x36>
E:/沁恒/例程/Example/libraries/sdk/Peripheral/ch32v30x_usart.c:612
  {
    bitstatus = SET;
    2cc2:	4785                	li	a5,1
    2cc4:	fef42623          	sw	a5,-20(s0)
    2cc8:	a019                	j	2cce <USART_GetFlagStatus+0x3a>
E:/沁恒/例程/Example/libraries/sdk/Peripheral/ch32v30x_usart.c:616
  }
  else
  {
    bitstatus = RESET;
    2cca:	fe042623          	sw	zero,-20(s0)
E:/沁恒/例程/Example/libraries/sdk/Peripheral/ch32v30x_usart.c:618
  }
  return bitstatus;
    2cce:	fec42783          	lw	a5,-20(s0)
E:/沁恒/例程/Example/libraries/sdk/Peripheral/ch32v30x_usart.c:619
}
    2cd2:	853e                	mv	a0,a5
    2cd4:	5432                	lw	s0,44(sp)
    2cd6:	6145                	addi	sp,sp,48
    2cd8:	8082                	ret

00002cda <USART_GetITStatus>:
USART_GetITStatus():
E:/沁恒/例程/Example/libraries/sdk/Peripheral/ch32v30x_usart.c:660
*                    USART_IT_FE: Framing Error interrupt.
*                    USART_IT_PE: Parity Error interrupt.
* Return         : bitstatus: SET or RESET.
*******************************************************************************/
ITStatus USART_GetITStatus(USART_TypeDef* USARTx, uint16_t USART_IT)
{
    2cda:	7179                	addi	sp,sp,-48
    2cdc:	d622                	sw	s0,44(sp)
    2cde:	1800                	addi	s0,sp,48
    2ce0:	fca42e23          	sw	a0,-36(s0)
    2ce4:	87ae                	mv	a5,a1
    2ce6:	fcf41d23          	sh	a5,-38(s0)
E:/沁恒/例程/Example/libraries/sdk/Peripheral/ch32v30x_usart.c:661
  uint32_t bitpos = 0x00, itmask = 0x00, usartreg = 0x00;
    2cea:	fe042223          	sw	zero,-28(s0)
    2cee:	fe042623          	sw	zero,-20(s0)
    2cf2:	fe042023          	sw	zero,-32(s0)
E:/沁恒/例程/Example/libraries/sdk/Peripheral/ch32v30x_usart.c:662
  ITStatus bitstatus = RESET;
    2cf6:	fe042423          	sw	zero,-24(s0)
E:/沁恒/例程/Example/libraries/sdk/Peripheral/ch32v30x_usart.c:668

  if (USART_IT == USART_IT_CTS)
  {
  }   
  
  usartreg = (((uint8_t)USART_IT) >> 0x05);
    2cfa:	fda45783          	lhu	a5,-38(s0)
    2cfe:	0ff7f793          	andi	a5,a5,255
    2d02:	8395                	srli	a5,a5,0x5
    2d04:	0ff7f793          	andi	a5,a5,255
    2d08:	fef42023          	sw	a5,-32(s0)
E:/沁恒/例程/Example/libraries/sdk/Peripheral/ch32v30x_usart.c:669
  itmask = USART_IT & IT_Mask;
    2d0c:	fda45783          	lhu	a5,-38(s0)
    2d10:	8bfd                	andi	a5,a5,31
    2d12:	fef42623          	sw	a5,-20(s0)
E:/沁恒/例程/Example/libraries/sdk/Peripheral/ch32v30x_usart.c:670
  itmask = (uint32_t)0x01 << itmask;
    2d16:	fec42783          	lw	a5,-20(s0)
    2d1a:	4705                	li	a4,1
    2d1c:	00f717b3          	sll	a5,a4,a5
    2d20:	fef42623          	sw	a5,-20(s0)
E:/沁恒/例程/Example/libraries/sdk/Peripheral/ch32v30x_usart.c:672
  
  if (usartreg == 0x01) 
    2d24:	fe042703          	lw	a4,-32(s0)
    2d28:	4785                	li	a5,1
    2d2a:	00f71f63          	bne	a4,a5,2d48 <USART_GetITStatus+0x6e>
E:/沁恒/例程/Example/libraries/sdk/Peripheral/ch32v30x_usart.c:674
  {
    itmask &= USARTx->CTLR1;
    2d2e:	fdc42783          	lw	a5,-36(s0)
    2d32:	00c7d783          	lhu	a5,12(a5)
    2d36:	07c2                	slli	a5,a5,0x10
    2d38:	83c1                	srli	a5,a5,0x10
    2d3a:	873e                	mv	a4,a5
    2d3c:	fec42783          	lw	a5,-20(s0)
    2d40:	8ff9                	and	a5,a5,a4
    2d42:	fef42623          	sw	a5,-20(s0)
    2d46:	a83d                	j	2d84 <USART_GetITStatus+0xaa>
E:/沁恒/例程/Example/libraries/sdk/Peripheral/ch32v30x_usart.c:676
  }
  else if (usartreg == 0x02) 
    2d48:	fe042703          	lw	a4,-32(s0)
    2d4c:	4789                	li	a5,2
    2d4e:	00f71f63          	bne	a4,a5,2d6c <USART_GetITStatus+0x92>
E:/沁恒/例程/Example/libraries/sdk/Peripheral/ch32v30x_usart.c:678
  {
    itmask &= USARTx->CTLR2;
    2d52:	fdc42783          	lw	a5,-36(s0)
    2d56:	0107d783          	lhu	a5,16(a5)
    2d5a:	07c2                	slli	a5,a5,0x10
    2d5c:	83c1                	srli	a5,a5,0x10
    2d5e:	873e                	mv	a4,a5
    2d60:	fec42783          	lw	a5,-20(s0)
    2d64:	8ff9                	and	a5,a5,a4
    2d66:	fef42623          	sw	a5,-20(s0)
    2d6a:	a829                	j	2d84 <USART_GetITStatus+0xaa>
E:/沁恒/例程/Example/libraries/sdk/Peripheral/ch32v30x_usart.c:682
  }
  else 
  {
    itmask &= USARTx->CTLR3;
    2d6c:	fdc42783          	lw	a5,-36(s0)
    2d70:	0147d783          	lhu	a5,20(a5)
    2d74:	07c2                	slli	a5,a5,0x10
    2d76:	83c1                	srli	a5,a5,0x10
    2d78:	873e                	mv	a4,a5
    2d7a:	fec42783          	lw	a5,-20(s0)
    2d7e:	8ff9                	and	a5,a5,a4
    2d80:	fef42623          	sw	a5,-20(s0)
E:/沁恒/例程/Example/libraries/sdk/Peripheral/ch32v30x_usart.c:685
  }
  
  bitpos = USART_IT >> 0x08;
    2d84:	fda45783          	lhu	a5,-38(s0)
    2d88:	83a1                	srli	a5,a5,0x8
    2d8a:	07c2                	slli	a5,a5,0x10
    2d8c:	83c1                	srli	a5,a5,0x10
    2d8e:	fef42223          	sw	a5,-28(s0)
E:/沁恒/例程/Example/libraries/sdk/Peripheral/ch32v30x_usart.c:686
  bitpos = (uint32_t)0x01 << bitpos;
    2d92:	fe442783          	lw	a5,-28(s0)
    2d96:	4705                	li	a4,1
    2d98:	00f717b3          	sll	a5,a4,a5
    2d9c:	fef42223          	sw	a5,-28(s0)
E:/沁恒/例程/Example/libraries/sdk/Peripheral/ch32v30x_usart.c:687
  bitpos &= USARTx->STATR;
    2da0:	fdc42783          	lw	a5,-36(s0)
    2da4:	0007d783          	lhu	a5,0(a5)
    2da8:	07c2                	slli	a5,a5,0x10
    2daa:	83c1                	srli	a5,a5,0x10
    2dac:	873e                	mv	a4,a5
    2dae:	fe442783          	lw	a5,-28(s0)
    2db2:	8ff9                	and	a5,a5,a4
    2db4:	fef42223          	sw	a5,-28(s0)
E:/沁恒/例程/Example/libraries/sdk/Peripheral/ch32v30x_usart.c:689
	
  if ((itmask != (uint16_t)RESET)&&(bitpos != (uint16_t)RESET))
    2db8:	fec42783          	lw	a5,-20(s0)
    2dbc:	cb81                	beqz	a5,2dcc <USART_GetITStatus+0xf2>
E:/沁恒/例程/Example/libraries/sdk/Peripheral/ch32v30x_usart.c:689 (discriminator 1)
    2dbe:	fe442783          	lw	a5,-28(s0)
    2dc2:	c789                	beqz	a5,2dcc <USART_GetITStatus+0xf2>
E:/沁恒/例程/Example/libraries/sdk/Peripheral/ch32v30x_usart.c:691
  {
    bitstatus = SET;
    2dc4:	4785                	li	a5,1
    2dc6:	fef42423          	sw	a5,-24(s0)
    2dca:	a019                	j	2dd0 <USART_GetITStatus+0xf6>
E:/沁恒/例程/Example/libraries/sdk/Peripheral/ch32v30x_usart.c:695
  }
  else
  {
    bitstatus = RESET;
    2dcc:	fe042423          	sw	zero,-24(s0)
E:/沁恒/例程/Example/libraries/sdk/Peripheral/ch32v30x_usart.c:698
  }
  
  return bitstatus;  
    2dd0:	fe842783          	lw	a5,-24(s0)
E:/沁恒/例程/Example/libraries/sdk/Peripheral/ch32v30x_usart.c:699
}
    2dd4:	853e                	mv	a0,a5
    2dd6:	5432                	lw	s0,44(sp)
    2dd8:	6145                	addi	sp,sp,48
    2dda:	8082                	ret

00002ddc <USART_ClearITPendingBit>:
USART_ClearITPendingBit():
E:/沁恒/例程/Example/libraries/sdk/Peripheral/ch32v30x_usart.c:713
*                    USART_IT_TC:   Transmission complete interrupt.
*                    USART_IT_RXNE: Receive Data register not empty interrupt.
* Return         : None
*******************************************************************************/
void USART_ClearITPendingBit(USART_TypeDef* USARTx, uint16_t USART_IT)
{
    2ddc:	7179                	addi	sp,sp,-48
    2dde:	d622                	sw	s0,44(sp)
    2de0:	1800                	addi	s0,sp,48
    2de2:	fca42e23          	sw	a0,-36(s0)
    2de6:	87ae                	mv	a5,a1
    2de8:	fcf41d23          	sh	a5,-38(s0)
E:/沁恒/例程/Example/libraries/sdk/Peripheral/ch32v30x_usart.c:714
  uint16_t bitpos = 0x00, itmask = 0x00;
    2dec:	fe041723          	sh	zero,-18(s0)
    2df0:	fe041623          	sh	zero,-20(s0)
E:/沁恒/例程/Example/libraries/sdk/Peripheral/ch32v30x_usart.c:720

  if (USART_IT == USART_IT_CTS)
  {
  }   
  
  bitpos = USART_IT >> 0x08;
    2df4:	fda45783          	lhu	a5,-38(s0)
    2df8:	83a1                	srli	a5,a5,0x8
    2dfa:	fef41723          	sh	a5,-18(s0)
E:/沁恒/例程/Example/libraries/sdk/Peripheral/ch32v30x_usart.c:721
  itmask = ((uint16_t)0x01 << (uint16_t)bitpos);
    2dfe:	fee45783          	lhu	a5,-18(s0)
    2e02:	4705                	li	a4,1
    2e04:	00f717b3          	sll	a5,a4,a5
    2e08:	fef41623          	sh	a5,-20(s0)
E:/沁恒/例程/Example/libraries/sdk/Peripheral/ch32v30x_usart.c:722
  USARTx->STATR = (uint16_t)~itmask;
    2e0c:	fec45783          	lhu	a5,-20(s0)
    2e10:	fff7c793          	not	a5,a5
    2e14:	01079713          	slli	a4,a5,0x10
    2e18:	8341                	srli	a4,a4,0x10
    2e1a:	fdc42783          	lw	a5,-36(s0)
    2e1e:	00e79023          	sh	a4,0(a5)
E:/沁恒/例程/Example/libraries/sdk/Peripheral/ch32v30x_usart.c:723
}
    2e22:	0001                	nop
    2e24:	5432                	lw	s0,44(sp)
    2e26:	6145                	addi	sp,sp,48
    2e28:	8082                	ret

00002e2a <DevEP1_IN_Deal>:
DevEP1_IN_Deal():
E:/沁恒/例程/Example/libraries/sdk/Peripheral/ch32v30x_usbotg_device.c:329
* Description    : Device endpoint1 IN.
* Input          : l: IN length(<64B)
* Return         : None
*******************************************************************************/
void DevEP1_IN_Deal( UINT8 l )
{
    2e2a:	1101                	addi	sp,sp,-32
    2e2c:	ce22                	sw	s0,28(sp)
    2e2e:	1000                	addi	s0,sp,32
    2e30:	87aa                	mv	a5,a0
    2e32:	fef407a3          	sb	a5,-17(s0)
E:/沁恒/例程/Example/libraries/sdk/Peripheral/ch32v30x_usbotg_device.c:330
    USBOTG_FS->UEP1_TX_LEN = l;
    2e36:	500007b7          	lui	a5,0x50000
    2e3a:	fef44703          	lbu	a4,-17(s0)
    2e3e:	0742                	slli	a4,a4,0x10
    2e40:	8341                	srli	a4,a4,0x10
    2e42:	02e79a23          	sh	a4,52(a5) # 50000034 <_eusrstack+0x2fff0034>
E:/沁恒/例程/Example/libraries/sdk/Peripheral/ch32v30x_usbotg_device.c:331
    USBOTG_FS->UEP1_TX_CTRL = (USBOTG_FS->UEP1_TX_CTRL & ~USBHD_UEP_T_RES_MASK)| USBHD_UEP_T_RES_ACK;
    2e46:	500007b7          	lui	a5,0x50000
    2e4a:	0367c783          	lbu	a5,54(a5) # 50000036 <_eusrstack+0x2fff0036>
    2e4e:	0ff7f713          	andi	a4,a5,255
    2e52:	500007b7          	lui	a5,0x50000
    2e56:	9b71                	andi	a4,a4,-4
    2e58:	0ff77713          	andi	a4,a4,255
    2e5c:	02e78b23          	sb	a4,54(a5) # 50000036 <_eusrstack+0x2fff0036>
E:/沁恒/例程/Example/libraries/sdk/Peripheral/ch32v30x_usbotg_device.c:332
}
    2e60:	0001                	nop
    2e62:	4472                	lw	s0,28(sp)
    2e64:	6105                	addi	sp,sp,32
    2e66:	8082                	ret

00002e68 <DevEP2_IN_Deal>:
DevEP2_IN_Deal():
E:/沁恒/例程/Example/libraries/sdk/Peripheral/ch32v30x_usbotg_device.c:341
* Description    : Device endpoint2 IN.
* Input          : l: IN length(<64B)
* Return         : None
*******************************************************************************/
void DevEP2_IN_Deal( UINT8 l )
{
    2e68:	1101                	addi	sp,sp,-32
    2e6a:	ce22                	sw	s0,28(sp)
    2e6c:	1000                	addi	s0,sp,32
    2e6e:	87aa                	mv	a5,a0
    2e70:	fef407a3          	sb	a5,-17(s0)
E:/沁恒/例程/Example/libraries/sdk/Peripheral/ch32v30x_usbotg_device.c:342
    USBOTG_FS->UEP2_TX_LEN = l;
    2e74:	500007b7          	lui	a5,0x50000
    2e78:	fef44703          	lbu	a4,-17(s0)
    2e7c:	0742                	slli	a4,a4,0x10
    2e7e:	8341                	srli	a4,a4,0x10
    2e80:	02e79c23          	sh	a4,56(a5) # 50000038 <_eusrstack+0x2fff0038>
E:/沁恒/例程/Example/libraries/sdk/Peripheral/ch32v30x_usbotg_device.c:343
    USBOTG_FS->UEP2_TX_CTRL = (USBOTG_FS->UEP2_TX_CTRL & ~USBHD_UEP_T_RES_MASK)| USBHD_UEP_T_RES_ACK;
    2e84:	500007b7          	lui	a5,0x50000
    2e88:	03a7c783          	lbu	a5,58(a5) # 5000003a <_eusrstack+0x2fff003a>
    2e8c:	0ff7f713          	andi	a4,a5,255
    2e90:	500007b7          	lui	a5,0x50000
    2e94:	9b71                	andi	a4,a4,-4
    2e96:	0ff77713          	andi	a4,a4,255
    2e9a:	02e78d23          	sb	a4,58(a5) # 5000003a <_eusrstack+0x2fff003a>
E:/沁恒/例程/Example/libraries/sdk/Peripheral/ch32v30x_usbotg_device.c:344
}
    2e9e:	0001                	nop
    2ea0:	4472                	lw	s0,28(sp)
    2ea2:	6105                	addi	sp,sp,32
    2ea4:	8082                	ret

00002ea6 <DevEP1_OUT_Deal>:
DevEP1_OUT_Deal():
E:/沁恒/例程/Example/libraries/sdk/Peripheral/ch32v30x_usbotg_device.c:353
* Description    : Deal device Endpoint 1 OUT.
* Input          : l: Data length.
* Return         : None
*******************************************************************************/
void DevEP1_OUT_Deal( UINT8 l )
{
    2ea6:	7179                	addi	sp,sp,-48
    2ea8:	d606                	sw	ra,44(sp)
    2eaa:	d422                	sw	s0,40(sp)
    2eac:	1800                	addi	s0,sp,48
    2eae:	87aa                	mv	a5,a0
    2eb0:	fcf40fa3          	sb	a5,-33(s0)
E:/沁恒/例程/Example/libraries/sdk/Peripheral/ch32v30x_usbotg_device.c:356
    UINT8 i;

    for(i=0; i<l; i++)
    2eb4:	fe0407a3          	sb	zero,-17(s0)
    2eb8:	a815                	j	2eec <DevEP1_OUT_Deal+0x46>
E:/沁恒/例程/Example/libraries/sdk/Peripheral/ch32v30x_usbotg_device.c:358 (discriminator 3)
    {
        pEP1_IN_DataBuf[i] = ~pEP1_OUT_DataBuf[i];
    2eba:	8681a703          	lw	a4,-1944(gp) # 20000288 <pEP1_RAM_Addr>
    2ebe:	fef44783          	lbu	a5,-17(s0)
    2ec2:	97ba                	add	a5,a5,a4
    2ec4:	0007c703          	lbu	a4,0(a5)
    2ec8:	8681a683          	lw	a3,-1944(gp) # 20000288 <pEP1_RAM_Addr>
    2ecc:	fef44783          	lbu	a5,-17(s0)
    2ed0:	04078793          	addi	a5,a5,64
    2ed4:	97b6                	add	a5,a5,a3
    2ed6:	fff74713          	not	a4,a4
    2eda:	0ff77713          	andi	a4,a4,255
    2ede:	00e78023          	sb	a4,0(a5)
E:/沁恒/例程/Example/libraries/sdk/Peripheral/ch32v30x_usbotg_device.c:356 (discriminator 3)
    for(i=0; i<l; i++)
    2ee2:	fef44783          	lbu	a5,-17(s0)
    2ee6:	0785                	addi	a5,a5,1
    2ee8:	fef407a3          	sb	a5,-17(s0)
E:/沁恒/例程/Example/libraries/sdk/Peripheral/ch32v30x_usbotg_device.c:356 (discriminator 1)
    2eec:	fef44703          	lbu	a4,-17(s0)
    2ef0:	fdf44783          	lbu	a5,-33(s0)
    2ef4:	fcf763e3          	bltu	a4,a5,2eba <DevEP1_OUT_Deal+0x14>
E:/沁恒/例程/Example/libraries/sdk/Peripheral/ch32v30x_usbotg_device.c:361
    }

    DevEP1_IN_Deal( l );
    2ef8:	fdf44783          	lbu	a5,-33(s0)
    2efc:	853e                	mv	a0,a5
    2efe:	3735                	jal	2e2a <DevEP1_IN_Deal>
E:/沁恒/例程/Example/libraries/sdk/Peripheral/ch32v30x_usbotg_device.c:362
}
    2f00:	0001                	nop
    2f02:	50b2                	lw	ra,44(sp)
    2f04:	5422                	lw	s0,40(sp)
    2f06:	6145                	addi	sp,sp,48
    2f08:	8082                	ret

00002f0a <DevEP2_OUT_Deal>:
DevEP2_OUT_Deal():
E:/沁恒/例程/Example/libraries/sdk/Peripheral/ch32v30x_usbotg_device.c:371
* Description    : Deal device Endpoint 2 OUT.
* Input          : l: Data length.
* Return         : None
*******************************************************************************/
void DevEP2_OUT_Deal( UINT8 l )
{
    2f0a:	7179                	addi	sp,sp,-48
    2f0c:	d606                	sw	ra,44(sp)
    2f0e:	d422                	sw	s0,40(sp)
    2f10:	1800                	addi	s0,sp,48
    2f12:	87aa                	mv	a5,a0
    2f14:	fcf40fa3          	sb	a5,-33(s0)
E:/沁恒/例程/Example/libraries/sdk/Peripheral/ch32v30x_usbotg_device.c:374
    UINT8 i;

    for(i=0; i<l; i++)
    2f18:	fe0407a3          	sb	zero,-17(s0)
    2f1c:	a815                	j	2f50 <DevEP2_OUT_Deal+0x46>
E:/沁恒/例程/Example/libraries/sdk/Peripheral/ch32v30x_usbotg_device.c:376 (discriminator 3)
    {
        pEP2_IN_DataBuf[i] = ~pEP2_OUT_DataBuf[i];
    2f1e:	86c1a703          	lw	a4,-1940(gp) # 2000028c <pEP2_RAM_Addr>
    2f22:	fef44783          	lbu	a5,-17(s0)
    2f26:	97ba                	add	a5,a5,a4
    2f28:	0007c703          	lbu	a4,0(a5)
    2f2c:	86c1a683          	lw	a3,-1940(gp) # 2000028c <pEP2_RAM_Addr>
    2f30:	fef44783          	lbu	a5,-17(s0)
    2f34:	04078793          	addi	a5,a5,64
    2f38:	97b6                	add	a5,a5,a3
    2f3a:	fff74713          	not	a4,a4
    2f3e:	0ff77713          	andi	a4,a4,255
    2f42:	00e78023          	sb	a4,0(a5)
E:/沁恒/例程/Example/libraries/sdk/Peripheral/ch32v30x_usbotg_device.c:374 (discriminator 3)
    for(i=0; i<l; i++)
    2f46:	fef44783          	lbu	a5,-17(s0)
    2f4a:	0785                	addi	a5,a5,1
    2f4c:	fef407a3          	sb	a5,-17(s0)
E:/沁恒/例程/Example/libraries/sdk/Peripheral/ch32v30x_usbotg_device.c:374 (discriminator 1)
    2f50:	fef44703          	lbu	a4,-17(s0)
    2f54:	fdf44783          	lbu	a5,-33(s0)
    2f58:	fcf763e3          	bltu	a4,a5,2f1e <DevEP2_OUT_Deal+0x14>
E:/沁恒/例程/Example/libraries/sdk/Peripheral/ch32v30x_usbotg_device.c:379
    }

    DevEP2_IN_Deal( l );
    2f5c:	fdf44783          	lbu	a5,-33(s0)
    2f60:	853e                	mv	a0,a5
    2f62:	3719                	jal	2e68 <DevEP2_IN_Deal>
E:/沁恒/例程/Example/libraries/sdk/Peripheral/ch32v30x_usbotg_device.c:380
}
    2f64:	0001                	nop
    2f66:	50b2                	lw	ra,44(sp)
    2f68:	5422                	lw	s0,40(sp)
    2f6a:	6145                	addi	sp,sp,48
    2f6c:	8082                	ret

00002f6e <OTG_FS_IRQHandler>:
OTG_FS_IRQHandler():
E:/沁恒/例程/Example/libraries/sdk/Peripheral/ch32v30x_usbotg_device.c:389
* Description    : OTG_FS_IRQHandler OTG设备中断处理函数
* Input          : None
* Return         : None
*******************************************************************************/
void OTG_FS_IRQHandler( void )
{
    2f6e:	1101                	addi	sp,sp,-32
    2f70:	ce22                	sw	s0,28(sp)
    2f72:	1000                	addi	s0,sp,32
E:/沁恒/例程/Example/libraries/sdk/Peripheral/ch32v30x_usbotg_device.c:391
    UINT8  len, chtype;
    UINT8  intflag, errflag = 0;
    2f74:	fe040723          	sb	zero,-18(s0)
E:/沁恒/例程/Example/libraries/sdk/Peripheral/ch32v30x_usbotg_device.c:393

    intflag = USBOTG_FS->INT_FG;
    2f78:	500007b7          	lui	a5,0x50000
    2f7c:	0067c783          	lbu	a5,6(a5) # 50000006 <_eusrstack+0x2fff0006>
    2f80:	fef406a3          	sb	a5,-19(s0)
E:/沁恒/例程/Example/libraries/sdk/Peripheral/ch32v30x_usbotg_device.c:395

    if( intflag & USBHD_UIF_TRANSFER )
    2f84:	fed44783          	lbu	a5,-19(s0)
    2f88:	8b89                	andi	a5,a5,2
    2f8a:	3c0785e3          	beqz	a5,3b54 <OTG_FS_IRQHandler+0xbe6>
E:/沁恒/例程/Example/libraries/sdk/Peripheral/ch32v30x_usbotg_device.c:397
    {
        switch ( USBOTG_FS->INT_ST & USBHD_UIS_TOKEN_MASK )
    2f8e:	500007b7          	lui	a5,0x50000
    2f92:	0077c783          	lbu	a5,7(a5) # 50000007 <_eusrstack+0x2fff0007>
    2f96:	0ff7f793          	andi	a5,a5,255
    2f9a:	0307f793          	andi	a5,a5,48
    2f9e:	4741                	li	a4,16
    2fa0:	38e78fe3          	beq	a5,a4,3b3e <OTG_FS_IRQHandler+0xbd0>
    2fa4:	4741                	li	a4,16
    2fa6:	00f74663          	blt	a4,a5,2fb2 <OTG_FS_IRQHandler+0x44>
    2faa:	220782e3          	beqz	a5,39ce <OTG_FS_IRQHandler+0xa60>
E:/沁恒/例程/Example/libraries/sdk/Peripheral/ch32v30x_usbotg_device.c:878
            case USBHD_UIS_TOKEN_SOF:

                break;

            default :
                break;
    2fae:	3950006f          	j	3b42 <OTG_FS_IRQHandler+0xbd4>
    2fb2:	02000713          	li	a4,32
    2fb6:	04e78ae3          	beq	a5,a4,380a <OTG_FS_IRQHandler+0x89c>
    2fba:	03000713          	li	a4,48
    2fbe:	38e792e3          	bne	a5,a4,3b42 <OTG_FS_IRQHandler+0xbd4>
E:/沁恒/例程/Example/libraries/sdk/Peripheral/ch32v30x_usbotg_device.c:411
                USBOTG_FS->UEP0_TX_CTRL = USBHD_UEP_T_TOG|USBHD_UEP_T_RES_NAK;
    2fc2:	500007b7          	lui	a5,0x50000
    2fc6:	4719                	li	a4,6
    2fc8:	02e78923          	sb	a4,50(a5) # 50000032 <_eusrstack+0x2fff0032>
E:/沁恒/例程/Example/libraries/sdk/Peripheral/ch32v30x_usbotg_device.c:412
                USBOTG_FS->UEP0_RX_CTRL = USBHD_UEP_R_TOG|USBHD_UEP_R_RES_ACK;
    2fcc:	500007b7          	lui	a5,0x50000
    2fd0:	4711                	li	a4,4
    2fd2:	02e789a3          	sb	a4,51(a5) # 50000033 <_eusrstack+0x2fff0033>
E:/沁恒/例程/Example/libraries/sdk/Peripheral/ch32v30x_usbotg_device.c:413
                SetupReqLen  = pSetupReqPakHD->wLength;
    2fd6:	8641a783          	lw	a5,-1948(gp) # 20000284 <pEP0_RAM_Addr>
    2fda:	0067c703          	lbu	a4,6(a5)
    2fde:	0077c783          	lbu	a5,7(a5)
    2fe2:	07a2                	slli	a5,a5,0x8
    2fe4:	8fd9                	or	a5,a5,a4
    2fe6:	01079713          	slli	a4,a5,0x10
    2fea:	8341                	srli	a4,a4,0x10
    2fec:	86e19d23          	sh	a4,-1926(gp) # 2000029a <SetupReqLen>
E:/沁恒/例程/Example/libraries/sdk/Peripheral/ch32v30x_usbotg_device.c:414
                SetupReqCode = pSetupReqPakHD->bRequest;
    2ff0:	8641a783          	lw	a5,-1948(gp) # 20000284 <pEP0_RAM_Addr>
    2ff4:	0017c703          	lbu	a4,1(a5)
    2ff8:	86e18c23          	sb	a4,-1928(gp) # 20000298 <SetupReqCode>
E:/沁恒/例程/Example/libraries/sdk/Peripheral/ch32v30x_usbotg_device.c:415
                chtype = pSetupReqPakHD->bRequestType;
    2ffc:	8641a783          	lw	a5,-1948(gp) # 20000284 <pEP0_RAM_Addr>
    3000:	0007c783          	lbu	a5,0(a5)
    3004:	fef40623          	sb	a5,-20(s0)
E:/沁恒/例程/Example/libraries/sdk/Peripheral/ch32v30x_usbotg_device.c:416
                len = 0;
    3008:	fe0407a3          	sb	zero,-17(s0)
E:/沁恒/例程/Example/libraries/sdk/Peripheral/ch32v30x_usbotg_device.c:417
                errflag = 0;
    300c:	fe040723          	sb	zero,-18(s0)
E:/沁恒/例程/Example/libraries/sdk/Peripheral/ch32v30x_usbotg_device.c:419
                if ( ( pSetupReqPakHD->bRequestType & USB_REQ_TYP_MASK ) != USB_REQ_TYP_STANDARD )  //非标准请求
    3010:	8641a783          	lw	a5,-1948(gp) # 20000284 <pEP0_RAM_Addr>
    3014:	0007c783          	lbu	a5,0(a5)
    3018:	0607f793          	andi	a5,a5,96
    301c:	12078d63          	beqz	a5,3156 <OTG_FS_IRQHandler+0x1e8>
E:/沁恒/例程/Example/libraries/sdk/Peripheral/ch32v30x_usbotg_device.c:422
                    if(SetupReqCode & 0x20)
    3020:	8781c783          	lbu	a5,-1928(gp) # 20000298 <SetupReqCode>
    3024:	0ff7f793          	andi	a5,a5,255
    3028:	0207f793          	andi	a5,a5,32
    302c:	c7c5                	beqz	a5,30d4 <OTG_FS_IRQHandler+0x166>
E:/沁恒/例程/Example/libraries/sdk/Peripheral/ch32v30x_usbotg_device.c:424
                        switch( SetupReqCode )
    302e:	8781c783          	lbu	a5,-1928(gp) # 20000298 <SetupReqCode>
    3032:	0ff7f793          	andi	a5,a5,255
    3036:	02100713          	li	a4,33
    303a:	00e78b63          	beq	a5,a4,3050 <OTG_FS_IRQHandler+0xe2>
    303e:	02200713          	li	a4,34
    3042:	08e78b63          	beq	a5,a4,30d8 <OTG_FS_IRQHandler+0x16a>
    3046:	02000713          	li	a4,32
    304a:	08e78963          	beq	a5,a4,30dc <OTG_FS_IRQHandler+0x16e>
    304e:	a8bd                	j	30cc <OTG_FS_IRQHandler+0x15e>
E:/沁恒/例程/Example/libraries/sdk/Peripheral/ch32v30x_usbotg_device.c:427
                                pDescr = LineCoding;
    3050:	20000737          	lui	a4,0x20000
    3054:	22870713          	addi	a4,a4,552 # 20000228 <LineCoding>
    3058:	86e1a823          	sw	a4,-1936(gp) # 20000290 <pDescr>
E:/沁恒/例程/Example/libraries/sdk/Peripheral/ch32v30x_usbotg_device.c:428
                                len = sizeof(LineCoding);
    305c:	479d                	li	a5,7
    305e:	fef407a3          	sb	a5,-17(s0)
E:/沁恒/例程/Example/libraries/sdk/Peripheral/ch32v30x_usbotg_device.c:429
                                len = SetupReqLen >= DEFAULT_ENDP0_SIZE ? DEFAULT_ENDP0_SIZE : SetupReqLen;  // 本次传输长度
    3062:	87a1d783          	lhu	a5,-1926(gp) # 2000029a <SetupReqLen>
    3066:	01079713          	slli	a4,a5,0x10
    306a:	8341                	srli	a4,a4,0x10
    306c:	479d                	li	a5,7
    306e:	00e7e963          	bltu	a5,a4,3080 <OTG_FS_IRQHandler+0x112>
E:/沁恒/例程/Example/libraries/sdk/Peripheral/ch32v30x_usbotg_device.c:429 (discriminator 1)
    3072:	87a1d783          	lhu	a5,-1926(gp) # 2000029a <SetupReqLen>
    3076:	07c2                	slli	a5,a5,0x10
    3078:	83c1                	srli	a5,a5,0x10
    307a:	0ff7f793          	andi	a5,a5,255
    307e:	a011                	j	3082 <OTG_FS_IRQHandler+0x114>
E:/沁恒/例程/Example/libraries/sdk/Peripheral/ch32v30x_usbotg_device.c:429 (discriminator 2)
    3080:	47a1                	li	a5,8
E:/沁恒/例程/Example/libraries/sdk/Peripheral/ch32v30x_usbotg_device.c:429 (discriminator 4)
    3082:	fef407a3          	sb	a5,-17(s0)
E:/沁恒/例程/Example/libraries/sdk/Peripheral/ch32v30x_usbotg_device.c:430 (discriminator 4)
                                memcpy(pEP0_DataBuf,pDescr,len);
    3086:	8641a703          	lw	a4,-1948(gp) # 20000284 <pEP0_RAM_Addr>
    308a:	8701a783          	lw	a5,-1936(gp) # 20000290 <pDescr>
    308e:	fef44683          	lbu	a3,-17(s0)
    3092:	8636                	mv	a2,a3
    3094:	85be                	mv	a1,a5
    3096:	853a                	mv	a0,a4
    3098:	696020ef          	jal	ra,572e <memcpy>
E:/沁恒/例程/Example/libraries/sdk/Peripheral/ch32v30x_usbotg_device.c:431 (discriminator 4)
                                SetupReqLen -= len;
    309c:	87a1d783          	lhu	a5,-1926(gp) # 2000029a <SetupReqLen>
    30a0:	01079713          	slli	a4,a5,0x10
    30a4:	8341                	srli	a4,a4,0x10
    30a6:	fef44783          	lbu	a5,-17(s0)
    30aa:	07c2                	slli	a5,a5,0x10
    30ac:	83c1                	srli	a5,a5,0x10
    30ae:	40f707b3          	sub	a5,a4,a5
    30b2:	01079713          	slli	a4,a5,0x10
    30b6:	8341                	srli	a4,a4,0x10
    30b8:	86e19d23          	sh	a4,-1926(gp) # 2000029a <SetupReqLen>
E:/沁恒/例程/Example/libraries/sdk/Peripheral/ch32v30x_usbotg_device.c:432 (discriminator 4)
                                pDescr += len;
    30bc:	8701a703          	lw	a4,-1936(gp) # 20000290 <pDescr>
    30c0:	fef44783          	lbu	a5,-17(s0)
    30c4:	973e                	add	a4,a4,a5
    30c6:	86e1a823          	sw	a4,-1936(gp) # 20000290 <pDescr>
E:/沁恒/例程/Example/libraries/sdk/Peripheral/ch32v30x_usbotg_device.c:433 (discriminator 4)
                            break;
    30ca:	a811                	j	30de <OTG_FS_IRQHandler+0x170>
E:/沁恒/例程/Example/libraries/sdk/Peripheral/ch32v30x_usbotg_device.c:442
                                errflag = 0xFF;
    30cc:	57fd                	li	a5,-1
    30ce:	fef40723          	sb	a5,-18(s0)
    30d2:	a031                	j	30de <OTG_FS_IRQHandler+0x170>
E:/沁恒/例程/Example/libraries/sdk/Peripheral/ch32v30x_usbotg_device.c:444
                    }
    30d4:	0001                	nop
    30d6:	a021                	j	30de <OTG_FS_IRQHandler+0x170>
E:/沁恒/例程/Example/libraries/sdk/Peripheral/ch32v30x_usbotg_device.c:436
                            break;
    30d8:	0001                	nop
    30da:	a011                	j	30de <OTG_FS_IRQHandler+0x170>
E:/沁恒/例程/Example/libraries/sdk/Peripheral/ch32v30x_usbotg_device.c:439
                            break;
    30dc:	0001                	nop
E:/沁恒/例程/Example/libraries/sdk/Peripheral/ch32v30x_usbotg_device.c:461
                    if( errflag != 0xFF )
    30de:	fee44703          	lbu	a4,-18(s0)
    30e2:	0ff00793          	li	a5,255
    30e6:	68f70563          	beq	a4,a5,3770 <OTG_FS_IRQHandler+0x802>
E:/沁恒/例程/Example/libraries/sdk/Peripheral/ch32v30x_usbotg_device.c:463
                        if( SetupReqLen > len )
    30ea:	fef44783          	lbu	a5,-17(s0)
    30ee:	01079713          	slli	a4,a5,0x10
    30f2:	8341                	srli	a4,a4,0x10
    30f4:	87a1d783          	lhu	a5,-1926(gp) # 2000029a <SetupReqLen>
    30f8:	07c2                	slli	a5,a5,0x10
    30fa:	83c1                	srli	a5,a5,0x10
    30fc:	00f77963          	bgeu	a4,a5,310e <OTG_FS_IRQHandler+0x1a0>
E:/沁恒/例程/Example/libraries/sdk/Peripheral/ch32v30x_usbotg_device.c:465
                            SetupReqLen = len;
    3100:	fef44783          	lbu	a5,-17(s0)
    3104:	01079713          	slli	a4,a5,0x10
    3108:	8341                	srli	a4,a4,0x10
    310a:	86e19d23          	sh	a4,-1926(gp) # 2000029a <SetupReqLen>
E:/沁恒/例程/Example/libraries/sdk/Peripheral/ch32v30x_usbotg_device.c:467
                        len = ( USBHD_Dev_SetupReqLen >= DevEP0SIZE ) ? DevEP0SIZE : USBHD_Dev_SetupReqLen;
    310e:	8741d783          	lhu	a5,-1932(gp) # 20000294 <USBHD_Dev_SetupReqLen>
    3112:	01079713          	slli	a4,a5,0x10
    3116:	8341                	srli	a4,a4,0x10
    3118:	479d                	li	a5,7
    311a:	00e7e963          	bltu	a5,a4,312c <OTG_FS_IRQHandler+0x1be>
E:/沁恒/例程/Example/libraries/sdk/Peripheral/ch32v30x_usbotg_device.c:467 (discriminator 1)
    311e:	8741d783          	lhu	a5,-1932(gp) # 20000294 <USBHD_Dev_SetupReqLen>
    3122:	07c2                	slli	a5,a5,0x10
    3124:	83c1                	srli	a5,a5,0x10
    3126:	0ff7f793          	andi	a5,a5,255
    312a:	a011                	j	312e <OTG_FS_IRQHandler+0x1c0>
E:/沁恒/例程/Example/libraries/sdk/Peripheral/ch32v30x_usbotg_device.c:467 (discriminator 2)
    312c:	47a1                	li	a5,8
E:/沁恒/例程/Example/libraries/sdk/Peripheral/ch32v30x_usbotg_device.c:467 (discriminator 4)
    312e:	fef407a3          	sb	a5,-17(s0)
E:/沁恒/例程/Example/libraries/sdk/Peripheral/ch32v30x_usbotg_device.c:468 (discriminator 4)
                        memcpy( EP0_DatabufHD, pDescr, len );
    3132:	8701a783          	lw	a5,-1936(gp) # 20000290 <pDescr>
    3136:	fef44703          	lbu	a4,-17(s0)
    313a:	863a                	mv	a2,a4
    313c:	85be                	mv	a1,a5
    313e:	85c18513          	addi	a0,gp,-1956 # 2000027c <EP0_DatabufHD>
    3142:	5ec020ef          	jal	ra,572e <memcpy>
E:/沁恒/例程/Example/libraries/sdk/Peripheral/ch32v30x_usbotg_device.c:469 (discriminator 4)
                        pDescr += len;
    3146:	8701a703          	lw	a4,-1936(gp) # 20000290 <pDescr>
    314a:	fef44783          	lbu	a5,-17(s0)
    314e:	973e                	add	a4,a4,a5
    3150:	86e1a823          	sw	a4,-1936(gp) # 20000290 <pDescr>
    3154:	ad31                	j	3770 <OTG_FS_IRQHandler+0x802>
E:/沁恒/例程/Example/libraries/sdk/Peripheral/ch32v30x_usbotg_device.c:475
                    switch( SetupReqCode )
    3156:	8781c783          	lbu	a5,-1928(gp) # 20000298 <SetupReqCode>
    315a:	0ff7f793          	andi	a5,a5,255
    315e:	472d                	li	a4,11
    3160:	5ef76d63          	bltu	a4,a5,375a <OTG_FS_IRQHandler+0x7ec>
    3164:	00279713          	slli	a4,a5,0x2
    3168:	67a5                	lui	a5,0x9
    316a:	96078793          	addi	a5,a5,-1696 # 8960 <MyUSBQUADescHD+0xc>
    316e:	97ba                	add	a5,a5,a4
    3170:	439c                	lw	a5,0(a5)
    3172:	8782                	jr	a5
E:/沁恒/例程/Example/libraries/sdk/Peripheral/ch32v30x_usbotg_device.c:479 (discriminator 1)
                            switch( ((pSetupReqPakHD->wValue)>>8) )
    3174:	8641a783          	lw	a5,-1948(gp) # 20000284 <pEP0_RAM_Addr>
    3178:	0027c703          	lbu	a4,2(a5)
    317c:	0037c783          	lbu	a5,3(a5)
    3180:	07a2                	slli	a5,a5,0x8
    3182:	8fd9                	or	a5,a5,a4
    3184:	07c2                	slli	a5,a5,0x10
    3186:	83c1                	srli	a5,a5,0x10
    3188:	83a1                	srli	a5,a5,0x8
    318a:	07c2                	slli	a5,a5,0x10
    318c:	83c1                	srli	a5,a5,0x10
    318e:	02200713          	li	a4,34
    3192:	12f76763          	bltu	a4,a5,32c0 <OTG_FS_IRQHandler+0x352>
    3196:	00279713          	slli	a4,a5,0x2
    319a:	67a5                	lui	a5,0x9
    319c:	99078793          	addi	a5,a5,-1648 # 8990 <MyUSBQUADescHD+0x3c>
    31a0:	97ba                	add	a5,a5,a4
    31a2:	439c                	lw	a5,0(a5)
    31a4:	8782                	jr	a5
E:/沁恒/例程/Example/libraries/sdk/Peripheral/ch32v30x_usbotg_device.c:483
                                    pDescr = MyDevDescrHD;
    31a6:	6725                	lui	a4,0x9
    31a8:	8b470713          	addi	a4,a4,-1868 # 88b4 <MyDevDescrHD>
    31ac:	86e1a823          	sw	a4,-1936(gp) # 20000290 <pDescr>
E:/沁恒/例程/Example/libraries/sdk/Peripheral/ch32v30x_usbotg_device.c:484
                                    len = MyDevDescrHD[0];
    31b0:	47c9                	li	a5,18
    31b2:	fef407a3          	sb	a5,-17(s0)
E:/沁恒/例程/Example/libraries/sdk/Peripheral/ch32v30x_usbotg_device.c:485
                                    break;
    31b6:	aa09                	j	32c8 <OTG_FS_IRQHandler+0x35a>
E:/沁恒/例程/Example/libraries/sdk/Peripheral/ch32v30x_usbotg_device.c:489
                                    pDescr = MyCfgDescrHD;
    31b8:	6725                	lui	a4,0x9
    31ba:	8c870713          	addi	a4,a4,-1848 # 88c8 <MyCfgDescrHD>
    31be:	86e1a823          	sw	a4,-1936(gp) # 20000290 <pDescr>
E:/沁恒/例程/Example/libraries/sdk/Peripheral/ch32v30x_usbotg_device.c:490
                                    len = MyCfgDescrHD[2];
    31c2:	04300793          	li	a5,67
    31c6:	fef407a3          	sb	a5,-17(s0)
E:/沁恒/例程/Example/libraries/sdk/Peripheral/ch32v30x_usbotg_device.c:491
                                    break;
    31ca:	a8fd                	j	32c8 <OTG_FS_IRQHandler+0x35a>
E:/沁恒/例程/Example/libraries/sdk/Peripheral/ch32v30x_usbotg_device.c:495 (discriminator 2)
                                    switch( (pSetupReqPakHD->wValue)&0xff )
    31cc:	8641a783          	lw	a5,-1948(gp) # 20000284 <pEP0_RAM_Addr>
    31d0:	0027c703          	lbu	a4,2(a5)
    31d4:	0037c783          	lbu	a5,3(a5)
    31d8:	07a2                	slli	a5,a5,0x8
    31da:	8fd9                	or	a5,a5,a4
    31dc:	07c2                	slli	a5,a5,0x10
    31de:	83c1                	srli	a5,a5,0x10
    31e0:	0ff7f793          	andi	a5,a5,255
    31e4:	4705                	li	a4,1
    31e6:	02e78663          	beq	a5,a4,3212 <OTG_FS_IRQHandler+0x2a4>
    31ea:	4705                	li	a4,1
    31ec:	00f74463          	blt	a4,a5,31f4 <OTG_FS_IRQHandler+0x286>
    31f0:	cb89                	beqz	a5,3202 <OTG_FS_IRQHandler+0x294>
    31f2:	a899                	j	3248 <OTG_FS_IRQHandler+0x2da>
    31f4:	4709                	li	a4,2
    31f6:	02e78763          	beq	a5,a4,3224 <OTG_FS_IRQHandler+0x2b6>
    31fa:	470d                	li	a4,3
    31fc:	02e78d63          	beq	a5,a4,3236 <OTG_FS_IRQHandler+0x2c8>
    3200:	a0a1                	j	3248 <OTG_FS_IRQHandler+0x2da>
E:/沁恒/例程/Example/libraries/sdk/Peripheral/ch32v30x_usbotg_device.c:499
                                        pDescr = MyLangDescrHD;
    3202:	81c18713          	addi	a4,gp,-2020 # 2000023c <MyLangDescrHD>
    3206:	86e1a823          	sw	a4,-1936(gp) # 20000290 <pDescr>
E:/沁恒/例程/Example/libraries/sdk/Peripheral/ch32v30x_usbotg_device.c:500
                                        len = MyLangDescrHD[0];
    320a:	4791                	li	a5,4
    320c:	fef407a3          	sb	a5,-17(s0)
E:/沁恒/例程/Example/libraries/sdk/Peripheral/ch32v30x_usbotg_device.c:501
                                            break;
    3210:	a081                	j	3250 <OTG_FS_IRQHandler+0x2e2>
E:/沁恒/例程/Example/libraries/sdk/Peripheral/ch32v30x_usbotg_device.c:505
                                            pDescr = MyManuInfoHD;
    3212:	6725                	lui	a4,0x9
    3214:	92070713          	addi	a4,a4,-1760 # 8920 <MyManuInfoHD>
    3218:	86e1a823          	sw	a4,-1936(gp) # 20000290 <pDescr>
E:/沁恒/例程/Example/libraries/sdk/Peripheral/ch32v30x_usbotg_device.c:506
                                            len = MyManuInfoHD[0];
    321c:	47b9                	li	a5,14
    321e:	fef407a3          	sb	a5,-17(s0)
E:/沁恒/例程/Example/libraries/sdk/Peripheral/ch32v30x_usbotg_device.c:507
                                            break;
    3222:	a03d                	j	3250 <OTG_FS_IRQHandler+0x2e2>
E:/沁恒/例程/Example/libraries/sdk/Peripheral/ch32v30x_usbotg_device.c:511
                                            pDescr = MyProdInfoHD;
    3224:	6725                	lui	a4,0x9
    3226:	93070713          	addi	a4,a4,-1744 # 8930 <MyProdInfoHD>
    322a:	86e1a823          	sw	a4,-1936(gp) # 20000290 <pDescr>
E:/沁恒/例程/Example/libraries/sdk/Peripheral/ch32v30x_usbotg_device.c:512
                                            len = MyProdInfoHD[0];
    322e:	47b1                	li	a5,12
    3230:	fef407a3          	sb	a5,-17(s0)
E:/沁恒/例程/Example/libraries/sdk/Peripheral/ch32v30x_usbotg_device.c:513
                                            break;
    3234:	a831                	j	3250 <OTG_FS_IRQHandler+0x2e2>
E:/沁恒/例程/Example/libraries/sdk/Peripheral/ch32v30x_usbotg_device.c:517
                                            pDescr = MySerNumInfoHD;
    3236:	6725                	lui	a4,0x9
    3238:	93c70713          	addi	a4,a4,-1732 # 893c <MySerNumInfoHD>
    323c:	86e1a823          	sw	a4,-1936(gp) # 20000290 <pDescr>
E:/沁恒/例程/Example/libraries/sdk/Peripheral/ch32v30x_usbotg_device.c:518
                                            len = sizeof( MySerNumInfoHD );
    3240:	47d9                	li	a5,22
    3242:	fef407a3          	sb	a5,-17(s0)
E:/沁恒/例程/Example/libraries/sdk/Peripheral/ch32v30x_usbotg_device.c:519
                                            break;
    3246:	a029                	j	3250 <OTG_FS_IRQHandler+0x2e2>
E:/沁恒/例程/Example/libraries/sdk/Peripheral/ch32v30x_usbotg_device.c:522
                                            errflag = 0xFF;
    3248:	57fd                	li	a5,-1
    324a:	fef40723          	sb	a5,-18(s0)
E:/沁恒/例程/Example/libraries/sdk/Peripheral/ch32v30x_usbotg_device.c:523
                                            break;
    324e:	0001                	nop
E:/沁恒/例程/Example/libraries/sdk/Peripheral/ch32v30x_usbotg_device.c:525
                                    break;
    3250:	a8a5                	j	32c8 <OTG_FS_IRQHandler+0x35a>
E:/沁恒/例程/Example/libraries/sdk/Peripheral/ch32v30x_usbotg_device.c:529
                                    pDescr = MyReportDescHD;
    3252:	6725                	lui	a4,0x9
    3254:	90c70713          	addi	a4,a4,-1780 # 890c <MyReportDescHD>
    3258:	86e1a823          	sw	a4,-1936(gp) # 20000290 <pDescr>
E:/沁恒/例程/Example/libraries/sdk/Peripheral/ch32v30x_usbotg_device.c:530
                                    len = sizeof( MyReportDescHD );
    325c:	47d1                	li	a5,20
    325e:	fef407a3          	sb	a5,-17(s0)
E:/沁恒/例程/Example/libraries/sdk/Peripheral/ch32v30x_usbotg_device.c:531
                                    break;
    3262:	a09d                	j	32c8 <OTG_FS_IRQHandler+0x35a>
E:/沁恒/例程/Example/libraries/sdk/Peripheral/ch32v30x_usbotg_device.c:535
                                    pDescr = ( PUINT8 )&MyUSBQUADescHD[ 0 ];
    3264:	6725                	lui	a4,0x9
    3266:	95470713          	addi	a4,a4,-1708 # 8954 <MyUSBQUADescHD>
    326a:	86e1a823          	sw	a4,-1936(gp) # 20000290 <pDescr>
E:/沁恒/例程/Example/libraries/sdk/Peripheral/ch32v30x_usbotg_device.c:536
                                    len = sizeof( MyUSBQUADescHD );
    326e:	47a9                	li	a5,10
    3270:	fef407a3          	sb	a5,-17(s0)
E:/沁恒/例程/Example/libraries/sdk/Peripheral/ch32v30x_usbotg_device.c:537
                                    break;
    3274:	a891                	j	32c8 <OTG_FS_IRQHandler+0x35a>
E:/沁恒/例程/Example/libraries/sdk/Peripheral/ch32v30x_usbotg_device.c:542
                                    if( USBHD_Dev_Speed == 0x00 )
    3276:	200007b7          	lui	a5,0x20000
    327a:	2247c783          	lbu	a5,548(a5) # 20000224 <USBHD_Dev_Speed>
    327e:	0ff7f793          	andi	a5,a5,255
    3282:	e79d                	bnez	a5,32b0 <OTG_FS_IRQHandler+0x342>
E:/沁恒/例程/Example/libraries/sdk/Peripheral/ch32v30x_usbotg_device.c:545
                                      memcpy( &TAB_USB_FS_OSC_DESC[ 2 ], &MyCfgDescrHD[ 2 ], sizeof( MyCfgDescrHD ) - 2 );
    3284:	04100613          	li	a2,65
    3288:	67a5                	lui	a5,0x9
    328a:	8ca78593          	addi	a1,a5,-1846 # 88ca <MyCfgDescrHD+0x2>
    328e:	200007b7          	lui	a5,0x20000
    3292:	01278513          	addi	a0,a5,18 # 20000012 <TAB_USB_FS_OSC_DESC+0x2>
    3296:	498020ef          	jal	ra,572e <memcpy>
E:/沁恒/例程/Example/libraries/sdk/Peripheral/ch32v30x_usbotg_device.c:546
                                      pDescr = ( PUINT8 )&TAB_USB_FS_OSC_DESC[ 0 ];
    329a:	20000737          	lui	a4,0x20000
    329e:	01070713          	addi	a4,a4,16 # 20000010 <TAB_USB_FS_OSC_DESC>
    32a2:	86e1a823          	sw	a4,-1936(gp) # 20000290 <pDescr>
E:/沁恒/例程/Example/libraries/sdk/Peripheral/ch32v30x_usbotg_device.c:547
                                      len = sizeof( TAB_USB_FS_OSC_DESC );
    32a6:	04300793          	li	a5,67
    32aa:	fef407a3          	sb	a5,-17(s0)
E:/沁恒/例程/Example/libraries/sdk/Peripheral/ch32v30x_usbotg_device.c:553
                                    break;
    32ae:	a829                	j	32c8 <OTG_FS_IRQHandler+0x35a>
E:/沁恒/例程/Example/libraries/sdk/Peripheral/ch32v30x_usbotg_device.c:551
                                      errflag = 0xFF;
    32b0:	57fd                	li	a5,-1
    32b2:	fef40723          	sb	a5,-18(s0)
E:/沁恒/例程/Example/libraries/sdk/Peripheral/ch32v30x_usbotg_device.c:553
                                    break;
    32b6:	a809                	j	32c8 <OTG_FS_IRQHandler+0x35a>
E:/沁恒/例程/Example/libraries/sdk/Peripheral/ch32v30x_usbotg_device.c:558
                                    errflag = 0xFF;
    32b8:	57fd                	li	a5,-1
    32ba:	fef40723          	sb	a5,-18(s0)
E:/沁恒/例程/Example/libraries/sdk/Peripheral/ch32v30x_usbotg_device.c:559
                                    break;
    32be:	a029                	j	32c8 <OTG_FS_IRQHandler+0x35a>
E:/沁恒/例程/Example/libraries/sdk/Peripheral/ch32v30x_usbotg_device.c:562
                                    errflag = 0xff;
    32c0:	57fd                	li	a5,-1
    32c2:	fef40723          	sb	a5,-18(s0)
E:/沁恒/例程/Example/libraries/sdk/Peripheral/ch32v30x_usbotg_device.c:563
                                    break;
    32c6:	0001                	nop
E:/沁恒/例程/Example/libraries/sdk/Peripheral/ch32v30x_usbotg_device.c:567
                            if( SetupReqLen>len )   SetupReqLen = len;
    32c8:	fef44783          	lbu	a5,-17(s0)
    32cc:	01079713          	slli	a4,a5,0x10
    32d0:	8341                	srli	a4,a4,0x10
    32d2:	87a1d783          	lhu	a5,-1926(gp) # 2000029a <SetupReqLen>
    32d6:	07c2                	slli	a5,a5,0x10
    32d8:	83c1                	srli	a5,a5,0x10
    32da:	00f77963          	bgeu	a4,a5,32ec <OTG_FS_IRQHandler+0x37e>
E:/沁恒/例程/Example/libraries/sdk/Peripheral/ch32v30x_usbotg_device.c:567 (discriminator 1)
    32de:	fef44783          	lbu	a5,-17(s0)
    32e2:	01079713          	slli	a4,a5,0x10
    32e6:	8341                	srli	a4,a4,0x10
    32e8:	86e19d23          	sh	a4,-1926(gp) # 2000029a <SetupReqLen>
E:/沁恒/例程/Example/libraries/sdk/Peripheral/ch32v30x_usbotg_device.c:568
                            len = (SetupReqLen >= DevEP0SIZE) ? DevEP0SIZE : SetupReqLen;
    32ec:	87a1d783          	lhu	a5,-1926(gp) # 2000029a <SetupReqLen>
    32f0:	01079713          	slli	a4,a5,0x10
    32f4:	8341                	srli	a4,a4,0x10
    32f6:	479d                	li	a5,7
    32f8:	00e7e963          	bltu	a5,a4,330a <OTG_FS_IRQHandler+0x39c>
E:/沁恒/例程/Example/libraries/sdk/Peripheral/ch32v30x_usbotg_device.c:568 (discriminator 1)
    32fc:	87a1d783          	lhu	a5,-1926(gp) # 2000029a <SetupReqLen>
    3300:	07c2                	slli	a5,a5,0x10
    3302:	83c1                	srli	a5,a5,0x10
    3304:	0ff7f793          	andi	a5,a5,255
    3308:	a011                	j	330c <OTG_FS_IRQHandler+0x39e>
E:/沁恒/例程/Example/libraries/sdk/Peripheral/ch32v30x_usbotg_device.c:568 (discriminator 2)
    330a:	47a1                	li	a5,8
E:/沁恒/例程/Example/libraries/sdk/Peripheral/ch32v30x_usbotg_device.c:568 (discriminator 4)
    330c:	fef407a3          	sb	a5,-17(s0)
E:/沁恒/例程/Example/libraries/sdk/Peripheral/ch32v30x_usbotg_device.c:569 (discriminator 4)
                            memcpy( pEP0_DataBuf, pDescr, len );
    3310:	8641a703          	lw	a4,-1948(gp) # 20000284 <pEP0_RAM_Addr>
    3314:	8701a783          	lw	a5,-1936(gp) # 20000290 <pDescr>
    3318:	fef44683          	lbu	a3,-17(s0)
    331c:	8636                	mv	a2,a3
    331e:	85be                	mv	a1,a5
    3320:	853a                	mv	a0,a4
    3322:	40c020ef          	jal	ra,572e <memcpy>
E:/沁恒/例程/Example/libraries/sdk/Peripheral/ch32v30x_usbotg_device.c:570 (discriminator 4)
                            pDescr += len;
    3326:	8701a703          	lw	a4,-1936(gp) # 20000290 <pDescr>
    332a:	fef44783          	lbu	a5,-17(s0)
    332e:	973e                	add	a4,a4,a5
    3330:	86e1a823          	sw	a4,-1936(gp) # 20000290 <pDescr>
E:/沁恒/例程/Example/libraries/sdk/Peripheral/ch32v30x_usbotg_device.c:572 (discriminator 4)
                            break;
    3334:	a935                	j	3770 <OTG_FS_IRQHandler+0x802>
E:/沁恒/例程/Example/libraries/sdk/Peripheral/ch32v30x_usbotg_device.c:576
                            SetupReqLen = (pSetupReqPakHD->wValue)&0xff;
    3336:	8641a783          	lw	a5,-1948(gp) # 20000284 <pEP0_RAM_Addr>
    333a:	0027c703          	lbu	a4,2(a5)
    333e:	0037c783          	lbu	a5,3(a5)
    3342:	07a2                	slli	a5,a5,0x8
    3344:	8fd9                	or	a5,a5,a4
    3346:	07c2                	slli	a5,a5,0x10
    3348:	83c1                	srli	a5,a5,0x10
    334a:	0ff7f793          	andi	a5,a5,255
    334e:	01079713          	slli	a4,a5,0x10
    3352:	8341                	srli	a4,a4,0x10
    3354:	86e19d23          	sh	a4,-1926(gp) # 2000029a <SetupReqLen>
E:/沁恒/例程/Example/libraries/sdk/Peripheral/ch32v30x_usbotg_device.c:577
                            break;
    3358:	a921                	j	3770 <OTG_FS_IRQHandler+0x802>
E:/沁恒/例程/Example/libraries/sdk/Peripheral/ch32v30x_usbotg_device.c:581
                            pEP0_DataBuf[0] = DevConfig;
    335a:	8641a783          	lw	a5,-1948(gp) # 20000284 <pEP0_RAM_Addr>
    335e:	8771c703          	lbu	a4,-1929(gp) # 20000297 <DevConfig>
    3362:	0ff77713          	andi	a4,a4,255
    3366:	00e78023          	sb	a4,0(a5)
E:/沁恒/例程/Example/libraries/sdk/Peripheral/ch32v30x_usbotg_device.c:582
                            if ( SetupReqLen > 1 ) SetupReqLen = 1;
    336a:	87a1d783          	lhu	a5,-1926(gp) # 2000029a <SetupReqLen>
    336e:	01079713          	slli	a4,a5,0x10
    3372:	8341                	srli	a4,a4,0x10
    3374:	4785                	li	a5,1
    3376:	3ee7f663          	bgeu	a5,a4,3762 <OTG_FS_IRQHandler+0x7f4>
E:/沁恒/例程/Example/libraries/sdk/Peripheral/ch32v30x_usbotg_device.c:582 (discriminator 1)
    337a:	4705                	li	a4,1
    337c:	86e19d23          	sh	a4,-1926(gp) # 2000029a <SetupReqLen>
E:/沁恒/例程/Example/libraries/sdk/Peripheral/ch32v30x_usbotg_device.c:583 (discriminator 1)
                            break;
    3380:	a6cd                	j	3762 <OTG_FS_IRQHandler+0x7f4>
E:/沁恒/例程/Example/libraries/sdk/Peripheral/ch32v30x_usbotg_device.c:587
                            DevConfig = (pSetupReqPakHD->wValue)&0xff;
    3382:	8641a783          	lw	a5,-1948(gp) # 20000284 <pEP0_RAM_Addr>
    3386:	0027c703          	lbu	a4,2(a5)
    338a:	0037c783          	lbu	a5,3(a5)
    338e:	07a2                	slli	a5,a5,0x8
    3390:	8fd9                	or	a5,a5,a4
    3392:	07c2                	slli	a5,a5,0x10
    3394:	83c1                	srli	a5,a5,0x10
    3396:	0ff7f713          	andi	a4,a5,255
    339a:	86e18ba3          	sb	a4,-1929(gp) # 20000297 <DevConfig>
E:/沁恒/例程/Example/libraries/sdk/Peripheral/ch32v30x_usbotg_device.c:588
                            break;
    339e:	aec9                	j	3770 <OTG_FS_IRQHandler+0x802>
E:/沁恒/例程/Example/libraries/sdk/Peripheral/ch32v30x_usbotg_device.c:592
                            if ( ( pSetupReqPakHD->bRequestType & USB_REQ_RECIP_MASK ) == USB_REQ_RECIP_ENDP )
    33a0:	8641a783          	lw	a5,-1948(gp) # 20000284 <pEP0_RAM_Addr>
    33a4:	0007c783          	lbu	a5,0(a5)
    33a8:	01f7f713          	andi	a4,a5,31
    33ac:	4789                	li	a5,2
    33ae:	0cf71f63          	bne	a4,a5,348c <OTG_FS_IRQHandler+0x51e>
E:/沁恒/例程/Example/libraries/sdk/Peripheral/ch32v30x_usbotg_device.c:595
                                switch( (pSetupReqPakHD->wIndex)&0xff )
    33b2:	8641a783          	lw	a5,-1948(gp) # 20000284 <pEP0_RAM_Addr>
    33b6:	0047c703          	lbu	a4,4(a5)
    33ba:	0057c783          	lbu	a5,5(a5)
    33be:	07a2                	slli	a5,a5,0x8
    33c0:	8fd9                	or	a5,a5,a4
    33c2:	07c2                	slli	a5,a5,0x10
    33c4:	83c1                	srli	a5,a5,0x10
    33c6:	0ff7f793          	andi	a5,a5,255
    33ca:	4709                	li	a4,2
    33cc:	04e78863          	beq	a5,a4,341c <OTG_FS_IRQHandler+0x4ae>
    33d0:	4709                	li	a4,2
    33d2:	00f74663          	blt	a4,a5,33de <OTG_FS_IRQHandler+0x470>
    33d6:	4705                	li	a4,1
    33d8:	08e78763          	beq	a5,a4,3466 <OTG_FS_IRQHandler+0x4f8>
    33dc:	a05d                	j	3482 <OTG_FS_IRQHandler+0x514>
    33de:	08100713          	li	a4,129
    33e2:	04e78b63          	beq	a5,a4,3438 <OTG_FS_IRQHandler+0x4ca>
    33e6:	08200713          	li	a4,130
    33ea:	08e79c63          	bne	a5,a4,3482 <OTG_FS_IRQHandler+0x514>
E:/沁恒/例程/Example/libraries/sdk/Peripheral/ch32v30x_usbotg_device.c:598
                                    USBOTG_FS->UEP2_TX_CTRL = (USBOTG_FS->UEP2_TX_CTRL & ~( USBHD_UEP_T_TOG|USBHD_UEP_T_RES_MASK )) | USBHD_UEP_T_RES_NAK;
    33ee:	500007b7          	lui	a5,0x50000
    33f2:	03a7c783          	lbu	a5,58(a5) # 5000003a <_eusrstack+0x2fff003a>
    33f6:	0ff7f793          	andi	a5,a5,255
    33fa:	07e2                	slli	a5,a5,0x18
    33fc:	87e1                	srai	a5,a5,0x18
    33fe:	9be1                	andi	a5,a5,-8
    3400:	07e2                	slli	a5,a5,0x18
    3402:	87e1                	srai	a5,a5,0x18
    3404:	0027e793          	ori	a5,a5,2
    3408:	01879713          	slli	a4,a5,0x18
    340c:	8761                	srai	a4,a4,0x18
    340e:	500007b7          	lui	a5,0x50000
    3412:	0ff77713          	andi	a4,a4,255
    3416:	02e78d23          	sb	a4,58(a5) # 5000003a <_eusrstack+0x2fff003a>
E:/沁恒/例程/Example/libraries/sdk/Peripheral/ch32v30x_usbotg_device.c:599
                                    break;
    341a:	a8ad                	j	3494 <OTG_FS_IRQHandler+0x526>
E:/沁恒/例程/Example/libraries/sdk/Peripheral/ch32v30x_usbotg_device.c:602
                                    USBOTG_FS->UEP2_RX_CTRL = (USBOTG_FS->UEP2_RX_CTRL & ~( USBHD_UEP_R_TOG|USBHD_UEP_R_RES_MASK )) | USBHD_UEP_R_RES_ACK;
    341c:	500007b7          	lui	a5,0x50000
    3420:	03b7c783          	lbu	a5,59(a5) # 5000003b <_eusrstack+0x2fff003b>
    3424:	0ff7f713          	andi	a4,a5,255
    3428:	500007b7          	lui	a5,0x50000
    342c:	9b61                	andi	a4,a4,-8
    342e:	0ff77713          	andi	a4,a4,255
    3432:	02e78da3          	sb	a4,59(a5) # 5000003b <_eusrstack+0x2fff003b>
E:/沁恒/例程/Example/libraries/sdk/Peripheral/ch32v30x_usbotg_device.c:603
                                    break;
    3436:	a8b9                	j	3494 <OTG_FS_IRQHandler+0x526>
E:/沁恒/例程/Example/libraries/sdk/Peripheral/ch32v30x_usbotg_device.c:606
                                    USBOTG_FS->UEP1_TX_CTRL = (USBOTG_FS->UEP1_TX_CTRL & ~( USBHD_UEP_T_TOG|USBHD_UEP_T_RES_MASK )) | USBHD_UEP_T_RES_NAK;
    3438:	500007b7          	lui	a5,0x50000
    343c:	0367c783          	lbu	a5,54(a5) # 50000036 <_eusrstack+0x2fff0036>
    3440:	0ff7f793          	andi	a5,a5,255
    3444:	07e2                	slli	a5,a5,0x18
    3446:	87e1                	srai	a5,a5,0x18
    3448:	9be1                	andi	a5,a5,-8
    344a:	07e2                	slli	a5,a5,0x18
    344c:	87e1                	srai	a5,a5,0x18
    344e:	0027e793          	ori	a5,a5,2
    3452:	01879713          	slli	a4,a5,0x18
    3456:	8761                	srai	a4,a4,0x18
    3458:	500007b7          	lui	a5,0x50000
    345c:	0ff77713          	andi	a4,a4,255
    3460:	02e78b23          	sb	a4,54(a5) # 50000036 <_eusrstack+0x2fff0036>
E:/沁恒/例程/Example/libraries/sdk/Peripheral/ch32v30x_usbotg_device.c:607
                                    break;
    3464:	a805                	j	3494 <OTG_FS_IRQHandler+0x526>
E:/沁恒/例程/Example/libraries/sdk/Peripheral/ch32v30x_usbotg_device.c:610
                                    USBOTG_FS->UEP1_RX_CTRL = (USBOTG_FS->UEP1_RX_CTRL & ~( USBHD_UEP_R_TOG|USBHD_UEP_R_RES_MASK )) | USBHD_UEP_R_RES_ACK;
    3466:	500007b7          	lui	a5,0x50000
    346a:	0377c783          	lbu	a5,55(a5) # 50000037 <_eusrstack+0x2fff0037>
    346e:	0ff7f713          	andi	a4,a5,255
    3472:	500007b7          	lui	a5,0x50000
    3476:	9b61                	andi	a4,a4,-8
    3478:	0ff77713          	andi	a4,a4,255
    347c:	02e78ba3          	sb	a4,55(a5) # 50000037 <_eusrstack+0x2fff0037>
E:/沁恒/例程/Example/libraries/sdk/Peripheral/ch32v30x_usbotg_device.c:611
                                    break;
    3480:	a811                	j	3494 <OTG_FS_IRQHandler+0x526>
E:/沁恒/例程/Example/libraries/sdk/Peripheral/ch32v30x_usbotg_device.c:614
                                    errflag = 0xFF;
    3482:	57fd                	li	a5,-1
    3484:	fef40723          	sb	a5,-18(s0)
E:/沁恒/例程/Example/libraries/sdk/Peripheral/ch32v30x_usbotg_device.c:615
                                    break;
    3488:	0001                	nop
    348a:	a029                	j	3494 <OTG_FS_IRQHandler+0x526>
E:/沁恒/例程/Example/libraries/sdk/Peripheral/ch32v30x_usbotg_device.c:619
                            else    errflag = 0xFF;
    348c:	57fd                	li	a5,-1
    348e:	fef40723          	sb	a5,-18(s0)
E:/沁恒/例程/Example/libraries/sdk/Peripheral/ch32v30x_usbotg_device.c:620
                            break;
    3492:	acf9                	j	3770 <OTG_FS_IRQHandler+0x802>
    3494:	acf1                	j	3770 <OTG_FS_IRQHandler+0x802>
E:/沁恒/例程/Example/libraries/sdk/Peripheral/ch32v30x_usbotg_device.c:624
                            if( ( pMySetupReqPakHD->bRequestType & 0x1F ) == 0x00 )
    3496:	85c18793          	addi	a5,gp,-1956 # 2000027c <EP0_DatabufHD>
    349a:	0007c783          	lbu	a5,0(a5)
    349e:	8bfd                	andi	a5,a5,31
    34a0:	e3a1                	bnez	a5,34e0 <OTG_FS_IRQHandler+0x572>
E:/沁恒/例程/Example/libraries/sdk/Peripheral/ch32v30x_usbotg_device.c:627
                                if( pMySetupReqPakHD->wValue == 0x01 )
    34a2:	85c18793          	addi	a5,gp,-1956 # 2000027c <EP0_DatabufHD>
    34a6:	0027c703          	lbu	a4,2(a5)
    34aa:	0037c783          	lbu	a5,3(a5)
    34ae:	07a2                	slli	a5,a5,0x8
    34b0:	8fd9                	or	a5,a5,a4
    34b2:	01079713          	slli	a4,a5,0x10
    34b6:	8341                	srli	a4,a4,0x10
    34b8:	4785                	li	a5,1
    34ba:	00f71f63          	bne	a4,a5,34d8 <OTG_FS_IRQHandler+0x56a>
E:/沁恒/例程/Example/libraries/sdk/Peripheral/ch32v30x_usbotg_device.c:629
                                    if( MyCfgDescrHD[ 7 ] & 0x20 )
    34be:	0a000793          	li	a5,160
    34c2:	0207f793          	andi	a5,a5,32
    34c6:	c789                	beqz	a5,34d0 <OTG_FS_IRQHandler+0x562>
E:/沁恒/例程/Example/libraries/sdk/Peripheral/ch32v30x_usbotg_device.c:632
                                        USBHD_Dev_SleepStatus = 0x01;
    34c8:	4705                	li	a4,1
    34ca:	86e18b23          	sb	a4,-1930(gp) # 20000296 <USBHD_Dev_SleepStatus>
E:/沁恒/例程/Example/libraries/sdk/Peripheral/ch32v30x_usbotg_device.c:690
                            break;
    34ce:	a44d                	j	3770 <OTG_FS_IRQHandler+0x802>
E:/沁恒/例程/Example/libraries/sdk/Peripheral/ch32v30x_usbotg_device.c:636
                                        errflag = 0xFF;
    34d0:	57fd                	li	a5,-1
    34d2:	fef40723          	sb	a5,-18(s0)
E:/沁恒/例程/Example/libraries/sdk/Peripheral/ch32v30x_usbotg_device.c:690
                            break;
    34d6:	ac69                	j	3770 <OTG_FS_IRQHandler+0x802>
E:/沁恒/例程/Example/libraries/sdk/Peripheral/ch32v30x_usbotg_device.c:641
                                    errflag = 0xFF;
    34d8:	57fd                	li	a5,-1
    34da:	fef40723          	sb	a5,-18(s0)
E:/沁恒/例程/Example/libraries/sdk/Peripheral/ch32v30x_usbotg_device.c:690
                            break;
    34de:	ac49                	j	3770 <OTG_FS_IRQHandler+0x802>
E:/沁恒/例程/Example/libraries/sdk/Peripheral/ch32v30x_usbotg_device.c:644
                            else if( ( pMySetupReqPakHD->bRequestType & 0x1F ) == 0x02 )
    34e0:	85c18793          	addi	a5,gp,-1956 # 2000027c <EP0_DatabufHD>
    34e4:	0007c783          	lbu	a5,0(a5)
    34e8:	01f7f713          	andi	a4,a5,31
    34ec:	4789                	li	a5,2
    34ee:	10f71c63          	bne	a4,a5,3606 <OTG_FS_IRQHandler+0x698>
E:/沁恒/例程/Example/libraries/sdk/Peripheral/ch32v30x_usbotg_device.c:647
                                if( pMySetupReqPakHD->wValue == 0x00 )
    34f2:	85c18793          	addi	a5,gp,-1956 # 2000027c <EP0_DatabufHD>
    34f6:	0027c703          	lbu	a4,2(a5)
    34fa:	0037c783          	lbu	a5,3(a5)
    34fe:	07a2                	slli	a5,a5,0x8
    3500:	8fd9                	or	a5,a5,a4
    3502:	07c2                	slli	a5,a5,0x10
    3504:	83c1                	srli	a5,a5,0x10
    3506:	efe5                	bnez	a5,35fe <OTG_FS_IRQHandler+0x690>
E:/沁恒/例程/Example/libraries/sdk/Peripheral/ch32v30x_usbotg_device.c:650
                                    switch( ( pMySetupReqPakHD->wIndex ) & 0xff )
    3508:	85c18793          	addi	a5,gp,-1956 # 2000027c <EP0_DatabufHD>
    350c:	0047c703          	lbu	a4,4(a5)
    3510:	0057c783          	lbu	a5,5(a5)
    3514:	07a2                	slli	a5,a5,0x8
    3516:	8fd9                	or	a5,a5,a4
    3518:	07c2                	slli	a5,a5,0x10
    351a:	83c1                	srli	a5,a5,0x10
    351c:	0ff7f793          	andi	a5,a5,255
    3520:	4709                	li	a4,2
    3522:	04e78763          	beq	a5,a4,3570 <OTG_FS_IRQHandler+0x602>
    3526:	4709                	li	a4,2
    3528:	00f74663          	blt	a4,a5,3534 <OTG_FS_IRQHandler+0x5c6>
    352c:	4705                	li	a4,1
    352e:	08e78d63          	beq	a5,a4,35c8 <OTG_FS_IRQHandler+0x65a>
    3532:	a0c9                	j	35f4 <OTG_FS_IRQHandler+0x686>
    3534:	08100713          	li	a4,129
    3538:	06e78263          	beq	a5,a4,359c <OTG_FS_IRQHandler+0x62e>
    353c:	08200713          	li	a4,130
    3540:	0ae79a63          	bne	a5,a4,35f4 <OTG_FS_IRQHandler+0x686>
E:/沁恒/例程/Example/libraries/sdk/Peripheral/ch32v30x_usbotg_device.c:654
                                            USBOTG_FS->UEP2_TX_CTRL = ( USBOTG_FS->UEP2_TX_CTRL &= ~USBHD_UEP_T_RES_MASK ) | USBHD_UEP_T_RES_STALL;
    3544:	500007b7          	lui	a5,0x50000
    3548:	03a7c783          	lbu	a5,58(a5) # 5000003a <_eusrstack+0x2fff003a>
    354c:	0ff7f793          	andi	a5,a5,255
    3550:	50000737          	lui	a4,0x50000
    3554:	9bf1                	andi	a5,a5,-4
    3556:	0ff7f793          	andi	a5,a5,255
    355a:	02f70d23          	sb	a5,58(a4) # 5000003a <_eusrstack+0x2fff003a>
    355e:	50000737          	lui	a4,0x50000
    3562:	0037e793          	ori	a5,a5,3
    3566:	0ff7f793          	andi	a5,a5,255
    356a:	02f70d23          	sb	a5,58(a4) # 5000003a <_eusrstack+0x2fff003a>
E:/沁恒/例程/Example/libraries/sdk/Peripheral/ch32v30x_usbotg_device.c:656
                                            break;
    356e:	a045                	j	360e <OTG_FS_IRQHandler+0x6a0>
E:/沁恒/例程/Example/libraries/sdk/Peripheral/ch32v30x_usbotg_device.c:660
                                            USBOTG_FS->UEP2_RX_CTRL = ( USBOTG_FS->UEP2_RX_CTRL &= ~USBHD_UEP_R_RES_MASK ) | USBHD_UEP_R_RES_STALL;
    3570:	500007b7          	lui	a5,0x50000
    3574:	03b7c783          	lbu	a5,59(a5) # 5000003b <_eusrstack+0x2fff003b>
    3578:	0ff7f793          	andi	a5,a5,255
    357c:	50000737          	lui	a4,0x50000
    3580:	9bf1                	andi	a5,a5,-4
    3582:	0ff7f793          	andi	a5,a5,255
    3586:	02f70da3          	sb	a5,59(a4) # 5000003b <_eusrstack+0x2fff003b>
    358a:	50000737          	lui	a4,0x50000
    358e:	0037e793          	ori	a5,a5,3
    3592:	0ff7f793          	andi	a5,a5,255
    3596:	02f70da3          	sb	a5,59(a4) # 5000003b <_eusrstack+0x2fff003b>
E:/沁恒/例程/Example/libraries/sdk/Peripheral/ch32v30x_usbotg_device.c:662
                                            break;
    359a:	a895                	j	360e <OTG_FS_IRQHandler+0x6a0>
E:/沁恒/例程/Example/libraries/sdk/Peripheral/ch32v30x_usbotg_device.c:666
                                            USBOTG_FS->UEP1_TX_CTRL = ( USBOTG_FS->UEP1_TX_CTRL &= ~USBHD_UEP_T_RES_MASK ) | USBHD_UEP_T_RES_STALL;
    359c:	500007b7          	lui	a5,0x50000
    35a0:	0367c783          	lbu	a5,54(a5) # 50000036 <_eusrstack+0x2fff0036>
    35a4:	0ff7f793          	andi	a5,a5,255
    35a8:	50000737          	lui	a4,0x50000
    35ac:	9bf1                	andi	a5,a5,-4
    35ae:	0ff7f793          	andi	a5,a5,255
    35b2:	02f70b23          	sb	a5,54(a4) # 50000036 <_eusrstack+0x2fff0036>
    35b6:	50000737          	lui	a4,0x50000
    35ba:	0037e793          	ori	a5,a5,3
    35be:	0ff7f793          	andi	a5,a5,255
    35c2:	02f70b23          	sb	a5,54(a4) # 50000036 <_eusrstack+0x2fff0036>
E:/沁恒/例程/Example/libraries/sdk/Peripheral/ch32v30x_usbotg_device.c:668
                                            break;
    35c6:	a0a1                	j	360e <OTG_FS_IRQHandler+0x6a0>
E:/沁恒/例程/Example/libraries/sdk/Peripheral/ch32v30x_usbotg_device.c:672
                                            USBOTG_FS->UEP1_RX_CTRL = ( USBOTG_FS->UEP1_RX_CTRL &= ~USBHD_UEP_R_RES_MASK ) | USBHD_UEP_R_RES_STALL;
    35c8:	500007b7          	lui	a5,0x50000
    35cc:	0377c783          	lbu	a5,55(a5) # 50000037 <_eusrstack+0x2fff0037>
    35d0:	0ff7f793          	andi	a5,a5,255
    35d4:	50000737          	lui	a4,0x50000
    35d8:	9bf1                	andi	a5,a5,-4
    35da:	0ff7f793          	andi	a5,a5,255
    35de:	02f70ba3          	sb	a5,55(a4) # 50000037 <_eusrstack+0x2fff0037>
    35e2:	50000737          	lui	a4,0x50000
    35e6:	0037e793          	ori	a5,a5,3
    35ea:	0ff7f793          	andi	a5,a5,255
    35ee:	02f70ba3          	sb	a5,55(a4) # 50000037 <_eusrstack+0x2fff0037>
E:/沁恒/例程/Example/libraries/sdk/Peripheral/ch32v30x_usbotg_device.c:674
                                            break;
    35f2:	a831                	j	360e <OTG_FS_IRQHandler+0x6a0>
E:/沁恒/例程/Example/libraries/sdk/Peripheral/ch32v30x_usbotg_device.c:677
                                            errflag = 0xFF;
    35f4:	57fd                	li	a5,-1
    35f6:	fef40723          	sb	a5,-18(s0)
E:/沁恒/例程/Example/libraries/sdk/Peripheral/ch32v30x_usbotg_device.c:678
                                            break;
    35fa:	0001                	nop
    35fc:	a809                	j	360e <OTG_FS_IRQHandler+0x6a0>
E:/沁恒/例程/Example/libraries/sdk/Peripheral/ch32v30x_usbotg_device.c:683
                                    errflag = 0xFF;
    35fe:	57fd                	li	a5,-1
    3600:	fef40723          	sb	a5,-18(s0)
E:/沁恒/例程/Example/libraries/sdk/Peripheral/ch32v30x_usbotg_device.c:690
                            break;
    3604:	a2b5                	j	3770 <OTG_FS_IRQHandler+0x802>
E:/沁恒/例程/Example/libraries/sdk/Peripheral/ch32v30x_usbotg_device.c:688
                                errflag = 0xFF;
    3606:	57fd                	li	a5,-1
    3608:	fef40723          	sb	a5,-18(s0)
E:/沁恒/例程/Example/libraries/sdk/Peripheral/ch32v30x_usbotg_device.c:690
                            break;
    360c:	a295                	j	3770 <OTG_FS_IRQHandler+0x802>
E:/沁恒/例程/Example/libraries/sdk/Peripheral/ch32v30x_usbotg_device.c:690 (discriminator 4)
    360e:	a28d                	j	3770 <OTG_FS_IRQHandler+0x802>
E:/沁恒/例程/Example/libraries/sdk/Peripheral/ch32v30x_usbotg_device.c:694
                            pEP0_DataBuf[0] = 0x00;
    3610:	8641a783          	lw	a5,-1948(gp) # 20000284 <pEP0_RAM_Addr>
    3614:	00078023          	sb	zero,0(a5)
E:/沁恒/例程/Example/libraries/sdk/Peripheral/ch32v30x_usbotg_device.c:695
                            if ( SetupReqLen > 1 ) SetupReqLen = 1;
    3618:	87a1d783          	lhu	a5,-1926(gp) # 2000029a <SetupReqLen>
    361c:	01079713          	slli	a4,a5,0x10
    3620:	8341                	srli	a4,a4,0x10
    3622:	4785                	li	a5,1
    3624:	14e7f163          	bgeu	a5,a4,3766 <OTG_FS_IRQHandler+0x7f8>
E:/沁恒/例程/Example/libraries/sdk/Peripheral/ch32v30x_usbotg_device.c:695 (discriminator 1)
    3628:	4705                	li	a4,1
    362a:	86e19d23          	sh	a4,-1926(gp) # 2000029a <SetupReqLen>
E:/沁恒/例程/Example/libraries/sdk/Peripheral/ch32v30x_usbotg_device.c:696 (discriminator 1)
                            break;
    362e:	aa25                	j	3766 <OTG_FS_IRQHandler+0x7f8>
E:/沁恒/例程/Example/libraries/sdk/Peripheral/ch32v30x_usbotg_device.c:700
                            EP0_DatabufHD[ 0 ] = 0x00;
    3630:	84018e23          	sb	zero,-1956(gp) # 2000027c <EP0_DatabufHD>
E:/沁恒/例程/Example/libraries/sdk/Peripheral/ch32v30x_usbotg_device.c:701
                            if( USBHD_Dev_SetupReqLen > 1 )
    3634:	8741d783          	lhu	a5,-1932(gp) # 20000294 <USBHD_Dev_SetupReqLen>
    3638:	01079713          	slli	a4,a5,0x10
    363c:	8341                	srli	a4,a4,0x10
    363e:	4785                	li	a5,1
    3640:	12e7f563          	bgeu	a5,a4,376a <OTG_FS_IRQHandler+0x7fc>
E:/沁恒/例程/Example/libraries/sdk/Peripheral/ch32v30x_usbotg_device.c:703
                                USBHD_Dev_SetupReqLen = 1;
    3644:	4705                	li	a4,1
    3646:	86e19a23          	sh	a4,-1932(gp) # 20000294 <USBHD_Dev_SetupReqLen>
E:/沁恒/例程/Example/libraries/sdk/Peripheral/ch32v30x_usbotg_device.c:705
                            break;
    364a:	a205                	j	376a <OTG_FS_IRQHandler+0x7fc>
E:/沁恒/例程/Example/libraries/sdk/Peripheral/ch32v30x_usbotg_device.c:709
                            EP0_DatabufHD[ 0 ] = 0x00;
    364c:	84018e23          	sb	zero,-1956(gp) # 2000027c <EP0_DatabufHD>
E:/沁恒/例程/Example/libraries/sdk/Peripheral/ch32v30x_usbotg_device.c:710
                            EP0_DatabufHD[ 1 ] = 0x00;
    3650:	85c18793          	addi	a5,gp,-1956 # 2000027c <EP0_DatabufHD>
    3654:	000780a3          	sb	zero,1(a5)
E:/沁恒/例程/Example/libraries/sdk/Peripheral/ch32v30x_usbotg_device.c:711
                            if( pMySetupReqPakHD->wIndex == 0x81 )
    3658:	85c18793          	addi	a5,gp,-1956 # 2000027c <EP0_DatabufHD>
    365c:	0047c703          	lbu	a4,4(a5)
    3660:	0057c783          	lbu	a5,5(a5)
    3664:	07a2                	slli	a5,a5,0x8
    3666:	8fd9                	or	a5,a5,a4
    3668:	01079713          	slli	a4,a5,0x10
    366c:	8341                	srli	a4,a4,0x10
    366e:	08100793          	li	a5,129
    3672:	02f71163          	bne	a4,a5,3694 <OTG_FS_IRQHandler+0x726>
E:/沁恒/例程/Example/libraries/sdk/Peripheral/ch32v30x_usbotg_device.c:713
                                if( ( USBOTG_FS->UEP1_TX_CTRL & USBHD_UEP_T_RES_MASK ) == USBHD_UEP_T_RES_STALL )
    3676:	500007b7          	lui	a5,0x50000
    367a:	0367c783          	lbu	a5,54(a5) # 50000036 <_eusrstack+0x2fff0036>
    367e:	0ff7f793          	andi	a5,a5,255
    3682:	0037f713          	andi	a4,a5,3
    3686:	478d                	li	a5,3
    3688:	0af71d63          	bne	a4,a5,3742 <OTG_FS_IRQHandler+0x7d4>
E:/沁恒/例程/Example/libraries/sdk/Peripheral/ch32v30x_usbotg_device.c:715
                                    EP0_DatabufHD[ 0 ] = 0x01;
    368c:	4705                	li	a4,1
    368e:	84e18e23          	sb	a4,-1956(gp) # 2000027c <EP0_DatabufHD>
    3692:	a845                	j	3742 <OTG_FS_IRQHandler+0x7d4>
E:/沁恒/例程/Example/libraries/sdk/Peripheral/ch32v30x_usbotg_device.c:718
                            else if( pMySetupReqPakHD->wIndex == 0x01 )
    3694:	85c18793          	addi	a5,gp,-1956 # 2000027c <EP0_DatabufHD>
    3698:	0047c703          	lbu	a4,4(a5)
    369c:	0057c783          	lbu	a5,5(a5)
    36a0:	07a2                	slli	a5,a5,0x8
    36a2:	8fd9                	or	a5,a5,a4
    36a4:	01079713          	slli	a4,a5,0x10
    36a8:	8341                	srli	a4,a4,0x10
    36aa:	4785                	li	a5,1
    36ac:	02f71163          	bne	a4,a5,36ce <OTG_FS_IRQHandler+0x760>
E:/沁恒/例程/Example/libraries/sdk/Peripheral/ch32v30x_usbotg_device.c:720
                                if( ( USBOTG_FS->UEP1_RX_CTRL & USBHD_UEP_R_RES_MASK ) == USBHD_UEP_R_RES_STALL )
    36b0:	500007b7          	lui	a5,0x50000
    36b4:	0377c783          	lbu	a5,55(a5) # 50000037 <_eusrstack+0x2fff0037>
    36b8:	0ff7f793          	andi	a5,a5,255
    36bc:	0037f713          	andi	a4,a5,3
    36c0:	478d                	li	a5,3
    36c2:	08f71063          	bne	a4,a5,3742 <OTG_FS_IRQHandler+0x7d4>
E:/沁恒/例程/Example/libraries/sdk/Peripheral/ch32v30x_usbotg_device.c:722
                                    EP0_DatabufHD[ 0 ] = 0x01;
    36c6:	4705                	li	a4,1
    36c8:	84e18e23          	sb	a4,-1956(gp) # 2000027c <EP0_DatabufHD>
    36cc:	a89d                	j	3742 <OTG_FS_IRQHandler+0x7d4>
E:/沁恒/例程/Example/libraries/sdk/Peripheral/ch32v30x_usbotg_device.c:725
                            else if( pMySetupReqPakHD->wIndex == 0x82 )
    36ce:	85c18793          	addi	a5,gp,-1956 # 2000027c <EP0_DatabufHD>
    36d2:	0047c703          	lbu	a4,4(a5)
    36d6:	0057c783          	lbu	a5,5(a5)
    36da:	07a2                	slli	a5,a5,0x8
    36dc:	8fd9                	or	a5,a5,a4
    36de:	01079713          	slli	a4,a5,0x10
    36e2:	8341                	srli	a4,a4,0x10
    36e4:	08200793          	li	a5,130
    36e8:	02f71163          	bne	a4,a5,370a <OTG_FS_IRQHandler+0x79c>
E:/沁恒/例程/Example/libraries/sdk/Peripheral/ch32v30x_usbotg_device.c:727
                                if( ( USBOTG_FS->UEP2_TX_CTRL & USBHD_UEP_T_RES_MASK ) == USBHD_UEP_T_RES_STALL )
    36ec:	500007b7          	lui	a5,0x50000
    36f0:	03a7c783          	lbu	a5,58(a5) # 5000003a <_eusrstack+0x2fff003a>
    36f4:	0ff7f793          	andi	a5,a5,255
    36f8:	0037f713          	andi	a4,a5,3
    36fc:	478d                	li	a5,3
    36fe:	04f71263          	bne	a4,a5,3742 <OTG_FS_IRQHandler+0x7d4>
E:/沁恒/例程/Example/libraries/sdk/Peripheral/ch32v30x_usbotg_device.c:729
                                    EP0_DatabufHD[ 0 ] = 0x01;
    3702:	4705                	li	a4,1
    3704:	84e18e23          	sb	a4,-1956(gp) # 2000027c <EP0_DatabufHD>
    3708:	a82d                	j	3742 <OTG_FS_IRQHandler+0x7d4>
E:/沁恒/例程/Example/libraries/sdk/Peripheral/ch32v30x_usbotg_device.c:732
                            else if( pMySetupReqPakHD->wIndex == 0x02 )
    370a:	85c18793          	addi	a5,gp,-1956 # 2000027c <EP0_DatabufHD>
    370e:	0047c703          	lbu	a4,4(a5)
    3712:	0057c783          	lbu	a5,5(a5)
    3716:	07a2                	slli	a5,a5,0x8
    3718:	8fd9                	or	a5,a5,a4
    371a:	01079713          	slli	a4,a5,0x10
    371e:	8341                	srli	a4,a4,0x10
    3720:	4789                	li	a5,2
    3722:	02f71063          	bne	a4,a5,3742 <OTG_FS_IRQHandler+0x7d4>
E:/沁恒/例程/Example/libraries/sdk/Peripheral/ch32v30x_usbotg_device.c:734
                                if( ( USBOTG_FS->UEP2_RX_CTRL & USBHD_UEP_R_RES_MASK ) == USBHD_UEP_R_RES_STALL )
    3726:	500007b7          	lui	a5,0x50000
    372a:	03b7c783          	lbu	a5,59(a5) # 5000003b <_eusrstack+0x2fff003b>
    372e:	0ff7f793          	andi	a5,a5,255
    3732:	0037f713          	andi	a4,a5,3
    3736:	478d                	li	a5,3
    3738:	00f71563          	bne	a4,a5,3742 <OTG_FS_IRQHandler+0x7d4>
E:/沁恒/例程/Example/libraries/sdk/Peripheral/ch32v30x_usbotg_device.c:736
                                    EP0_DatabufHD[ 0 ] = 0x01;
    373c:	4705                	li	a4,1
    373e:	84e18e23          	sb	a4,-1956(gp) # 2000027c <EP0_DatabufHD>
E:/沁恒/例程/Example/libraries/sdk/Peripheral/ch32v30x_usbotg_device.c:739
                            if( USBHD_Dev_SetupReqLen > 2 )
    3742:	8741d783          	lhu	a5,-1932(gp) # 20000294 <USBHD_Dev_SetupReqLen>
    3746:	01079713          	slli	a4,a5,0x10
    374a:	8341                	srli	a4,a4,0x10
    374c:	4789                	li	a5,2
    374e:	02e7f063          	bgeu	a5,a4,376e <OTG_FS_IRQHandler+0x800>
E:/沁恒/例程/Example/libraries/sdk/Peripheral/ch32v30x_usbotg_device.c:741
                                USBHD_Dev_SetupReqLen = 2;
    3752:	4709                	li	a4,2
    3754:	86e19a23          	sh	a4,-1932(gp) # 20000294 <USBHD_Dev_SetupReqLen>
E:/沁恒/例程/Example/libraries/sdk/Peripheral/ch32v30x_usbotg_device.c:743
                            break;
    3758:	a819                	j	376e <OTG_FS_IRQHandler+0x800>
E:/沁恒/例程/Example/libraries/sdk/Peripheral/ch32v30x_usbotg_device.c:746
                            errflag = 0xFF;
    375a:	57fd                	li	a5,-1
    375c:	fef40723          	sb	a5,-18(s0)
E:/沁恒/例程/Example/libraries/sdk/Peripheral/ch32v30x_usbotg_device.c:747
                            break;
    3760:	a801                	j	3770 <OTG_FS_IRQHandler+0x802>
E:/沁恒/例程/Example/libraries/sdk/Peripheral/ch32v30x_usbotg_device.c:583
                            break;
    3762:	0001                	nop
    3764:	a031                	j	3770 <OTG_FS_IRQHandler+0x802>
E:/沁恒/例程/Example/libraries/sdk/Peripheral/ch32v30x_usbotg_device.c:696
                            break;
    3766:	0001                	nop
    3768:	a021                	j	3770 <OTG_FS_IRQHandler+0x802>
E:/沁恒/例程/Example/libraries/sdk/Peripheral/ch32v30x_usbotg_device.c:705
                            break;
    376a:	0001                	nop
    376c:	a011                	j	3770 <OTG_FS_IRQHandler+0x802>
E:/沁恒/例程/Example/libraries/sdk/Peripheral/ch32v30x_usbotg_device.c:743
                            break;
    376e:	0001                	nop
E:/沁恒/例程/Example/libraries/sdk/Peripheral/ch32v30x_usbotg_device.c:750
                if( errflag == 0xff)
    3770:	fee44703          	lbu	a4,-18(s0)
    3774:	0ff00793          	li	a5,255
    3778:	00f71d63          	bne	a4,a5,3792 <OTG_FS_IRQHandler+0x824>
E:/沁恒/例程/Example/libraries/sdk/Peripheral/ch32v30x_usbotg_device.c:753
                    USBOTG_FS->UEP0_TX_CTRL = USBHD_UEP_T_TOG|USBHD_UEP_T_RES_STALL;
    377c:	500007b7          	lui	a5,0x50000
    3780:	471d                	li	a4,7
    3782:	02e78923          	sb	a4,50(a5) # 50000032 <_eusrstack+0x2fff0032>
E:/沁恒/例程/Example/libraries/sdk/Peripheral/ch32v30x_usbotg_device.c:754
                    USBOTG_FS->UEP0_RX_CTRL = USBHD_UEP_R_TOG|USBHD_UEP_R_RES_STALL;
    3786:	500007b7          	lui	a5,0x50000
    378a:	471d                	li	a4,7
    378c:	02e789a3          	sb	a4,51(a5) # 50000033 <_eusrstack+0x2fff0033>
E:/沁恒/例程/Example/libraries/sdk/Peripheral/ch32v30x_usbotg_device.c:769
                break;
    3790:	ae65                	j	3b48 <OTG_FS_IRQHandler+0xbda>
E:/沁恒/例程/Example/libraries/sdk/Peripheral/ch32v30x_usbotg_device.c:758
                    if( chtype & 0x80 )
    3792:	fec40783          	lb	a5,-20(s0)
    3796:	0407d563          	bgez	a5,37e0 <OTG_FS_IRQHandler+0x872>
E:/沁恒/例程/Example/libraries/sdk/Peripheral/ch32v30x_usbotg_device.c:760
                        len = (SetupReqLen>DevEP0SIZE) ? DevEP0SIZE : SetupReqLen;
    379a:	87a1d783          	lhu	a5,-1926(gp) # 2000029a <SetupReqLen>
    379e:	01079713          	slli	a4,a5,0x10
    37a2:	8341                	srli	a4,a4,0x10
    37a4:	47a1                	li	a5,8
    37a6:	00e7e963          	bltu	a5,a4,37b8 <OTG_FS_IRQHandler+0x84a>
E:/沁恒/例程/Example/libraries/sdk/Peripheral/ch32v30x_usbotg_device.c:760 (discriminator 1)
    37aa:	87a1d783          	lhu	a5,-1926(gp) # 2000029a <SetupReqLen>
    37ae:	07c2                	slli	a5,a5,0x10
    37b0:	83c1                	srli	a5,a5,0x10
    37b2:	0ff7f793          	andi	a5,a5,255
    37b6:	a011                	j	37ba <OTG_FS_IRQHandler+0x84c>
E:/沁恒/例程/Example/libraries/sdk/Peripheral/ch32v30x_usbotg_device.c:760 (discriminator 2)
    37b8:	47a1                	li	a5,8
E:/沁恒/例程/Example/libraries/sdk/Peripheral/ch32v30x_usbotg_device.c:760 (discriminator 4)
    37ba:	fef407a3          	sb	a5,-17(s0)
E:/沁恒/例程/Example/libraries/sdk/Peripheral/ch32v30x_usbotg_device.c:761 (discriminator 4)
                        SetupReqLen -= len;
    37be:	87a1d783          	lhu	a5,-1926(gp) # 2000029a <SetupReqLen>
    37c2:	01079713          	slli	a4,a5,0x10
    37c6:	8341                	srli	a4,a4,0x10
    37c8:	fef44783          	lbu	a5,-17(s0)
    37cc:	07c2                	slli	a5,a5,0x10
    37ce:	83c1                	srli	a5,a5,0x10
    37d0:	40f707b3          	sub	a5,a4,a5
    37d4:	01079713          	slli	a4,a5,0x10
    37d8:	8341                	srli	a4,a4,0x10
    37da:	86e19d23          	sh	a4,-1926(gp) # 2000029a <SetupReqLen>
    37de:	a019                	j	37e4 <OTG_FS_IRQHandler+0x876>
E:/沁恒/例程/Example/libraries/sdk/Peripheral/ch32v30x_usbotg_device.c:763
                    else  len = 0;
    37e0:	fe0407a3          	sb	zero,-17(s0)
E:/沁恒/例程/Example/libraries/sdk/Peripheral/ch32v30x_usbotg_device.c:765
                    USBOTG_FS->UEP0_TX_LEN  = len;
    37e4:	500007b7          	lui	a5,0x50000
    37e8:	fef44703          	lbu	a4,-17(s0)
    37ec:	0742                	slli	a4,a4,0x10
    37ee:	8341                	srli	a4,a4,0x10
    37f0:	02e79823          	sh	a4,48(a5) # 50000030 <_eusrstack+0x2fff0030>
E:/沁恒/例程/Example/libraries/sdk/Peripheral/ch32v30x_usbotg_device.c:766
                    USBOTG_FS->UEP0_TX_CTRL = USBHD_UEP_T_TOG|USBHD_UEP_T_RES_ACK;
    37f4:	500007b7          	lui	a5,0x50000
    37f8:	4711                	li	a4,4
    37fa:	02e78923          	sb	a4,50(a5) # 50000032 <_eusrstack+0x2fff0032>
E:/沁恒/例程/Example/libraries/sdk/Peripheral/ch32v30x_usbotg_device.c:767
                    USBOTG_FS->UEP0_RX_CTRL = USBHD_UEP_R_TOG|USBHD_UEP_R_RES_ACK;
    37fe:	500007b7          	lui	a5,0x50000
    3802:	4711                	li	a4,4
    3804:	02e789a3          	sb	a4,51(a5) # 50000033 <_eusrstack+0x2fff0033>
E:/沁恒/例程/Example/libraries/sdk/Peripheral/ch32v30x_usbotg_device.c:769
                break;
    3808:	a681                	j	3b48 <OTG_FS_IRQHandler+0xbda>
E:/沁恒/例程/Example/libraries/sdk/Peripheral/ch32v30x_usbotg_device.c:772
                switch ( USBOTG_FS->INT_ST & ( USBHD_UIS_TOKEN_MASK | USBHD_UIS_ENDP_MASK ) )
    380a:	500007b7          	lui	a5,0x50000
    380e:	0077c783          	lbu	a5,7(a5) # 50000007 <_eusrstack+0x2fff0007>
    3812:	0ff7f793          	andi	a5,a5,255
    3816:	03f7f793          	andi	a5,a5,63
    381a:	02100713          	li	a4,33
    381e:	12e78563          	beq	a5,a4,3948 <OTG_FS_IRQHandler+0x9da>
    3822:	02200713          	li	a4,34
    3826:	14e78d63          	beq	a5,a4,3980 <OTG_FS_IRQHandler+0xa12>
    382a:	02000713          	li	a4,32
    382e:	18e79e63          	bne	a5,a4,39ca <OTG_FS_IRQHandler+0xa5c>
E:/沁恒/例程/Example/libraries/sdk/Peripheral/ch32v30x_usbotg_device.c:775 (discriminator 6)
                        switch( SetupReqCode )
    3832:	8781c783          	lbu	a5,-1928(gp) # 20000298 <SetupReqCode>
    3836:	0ff7f793          	andi	a5,a5,255
    383a:	4715                	li	a4,5
    383c:	0ae78063          	beq	a5,a4,38dc <OTG_FS_IRQHandler+0x96e>
    3840:	4719                	li	a4,6
    3842:	0ee79463          	bne	a5,a4,392a <OTG_FS_IRQHandler+0x9bc>
E:/沁恒/例程/Example/libraries/sdk/Peripheral/ch32v30x_usbotg_device.c:778
                                    len = SetupReqLen >= DevEP0SIZE ? DevEP0SIZE : SetupReqLen;
    3846:	87a1d783          	lhu	a5,-1926(gp) # 2000029a <SetupReqLen>
    384a:	01079713          	slli	a4,a5,0x10
    384e:	8341                	srli	a4,a4,0x10
    3850:	479d                	li	a5,7
    3852:	00e7e963          	bltu	a5,a4,3864 <OTG_FS_IRQHandler+0x8f6>
E:/沁恒/例程/Example/libraries/sdk/Peripheral/ch32v30x_usbotg_device.c:778 (discriminator 1)
    3856:	87a1d783          	lhu	a5,-1926(gp) # 2000029a <SetupReqLen>
    385a:	07c2                	slli	a5,a5,0x10
    385c:	83c1                	srli	a5,a5,0x10
    385e:	0ff7f793          	andi	a5,a5,255
    3862:	a011                	j	3866 <OTG_FS_IRQHandler+0x8f8>
E:/沁恒/例程/Example/libraries/sdk/Peripheral/ch32v30x_usbotg_device.c:778 (discriminator 2)
    3864:	47a1                	li	a5,8
E:/沁恒/例程/Example/libraries/sdk/Peripheral/ch32v30x_usbotg_device.c:778 (discriminator 4)
    3866:	fef407a3          	sb	a5,-17(s0)
E:/沁恒/例程/Example/libraries/sdk/Peripheral/ch32v30x_usbotg_device.c:779 (discriminator 4)
                                    memcpy( pEP0_DataBuf, pDescr, len );
    386a:	8641a703          	lw	a4,-1948(gp) # 20000284 <pEP0_RAM_Addr>
    386e:	8701a783          	lw	a5,-1936(gp) # 20000290 <pDescr>
    3872:	fef44683          	lbu	a3,-17(s0)
    3876:	8636                	mv	a2,a3
    3878:	85be                	mv	a1,a5
    387a:	853a                	mv	a0,a4
    387c:	6b3010ef          	jal	ra,572e <memcpy>
E:/沁恒/例程/Example/libraries/sdk/Peripheral/ch32v30x_usbotg_device.c:780 (discriminator 4)
                                    SetupReqLen -= len;
    3880:	87a1d783          	lhu	a5,-1926(gp) # 2000029a <SetupReqLen>
    3884:	01079713          	slli	a4,a5,0x10
    3888:	8341                	srli	a4,a4,0x10
    388a:	fef44783          	lbu	a5,-17(s0)
    388e:	07c2                	slli	a5,a5,0x10
    3890:	83c1                	srli	a5,a5,0x10
    3892:	40f707b3          	sub	a5,a4,a5
    3896:	01079713          	slli	a4,a5,0x10
    389a:	8341                	srli	a4,a4,0x10
    389c:	86e19d23          	sh	a4,-1926(gp) # 2000029a <SetupReqLen>
E:/沁恒/例程/Example/libraries/sdk/Peripheral/ch32v30x_usbotg_device.c:781 (discriminator 4)
                                    pDescr += len;
    38a0:	8701a703          	lw	a4,-1936(gp) # 20000290 <pDescr>
    38a4:	fef44783          	lbu	a5,-17(s0)
    38a8:	973e                	add	a4,a4,a5
    38aa:	86e1a823          	sw	a4,-1936(gp) # 20000290 <pDescr>
E:/沁恒/例程/Example/libraries/sdk/Peripheral/ch32v30x_usbotg_device.c:782 (discriminator 4)
                                    USBOTG_FS->UEP0_TX_LEN   = len;
    38ae:	500007b7          	lui	a5,0x50000
    38b2:	fef44703          	lbu	a4,-17(s0)
    38b6:	0742                	slli	a4,a4,0x10
    38b8:	8341                	srli	a4,a4,0x10
    38ba:	02e79823          	sh	a4,48(a5) # 50000030 <_eusrstack+0x2fff0030>
E:/沁恒/例程/Example/libraries/sdk/Peripheral/ch32v30x_usbotg_device.c:783 (discriminator 4)
                                    USBOTG_FS->UEP0_TX_CTRL ^= USBHD_UEP_T_TOG;
    38be:	500007b7          	lui	a5,0x50000
    38c2:	0327c783          	lbu	a5,50(a5) # 50000032 <_eusrstack+0x2fff0032>
    38c6:	0ff7f713          	andi	a4,a5,255
    38ca:	500007b7          	lui	a5,0x50000
    38ce:	00474713          	xori	a4,a4,4
    38d2:	0ff77713          	andi	a4,a4,255
    38d6:	02e78923          	sb	a4,50(a5) # 50000032 <_eusrstack+0x2fff0032>
E:/沁恒/例程/Example/libraries/sdk/Peripheral/ch32v30x_usbotg_device.c:784 (discriminator 4)
                                    break;
    38da:	a0b5                	j	3946 <OTG_FS_IRQHandler+0x9d8>
E:/沁恒/例程/Example/libraries/sdk/Peripheral/ch32v30x_usbotg_device.c:787
                                    USBOTG_FS->DEV_ADDR = (USBOTG_FS->DEV_ADDR&USBHD_UDA_GP_BIT) | SetupReqLen;
    38dc:	500007b7          	lui	a5,0x50000
    38e0:	0037c783          	lbu	a5,3(a5) # 50000003 <_eusrstack+0x2fff0003>
    38e4:	0ff7f793          	andi	a5,a5,255
    38e8:	07e2                	slli	a5,a5,0x18
    38ea:	87e1                	srai	a5,a5,0x18
    38ec:	f807f793          	andi	a5,a5,-128
    38f0:	01879713          	slli	a4,a5,0x18
    38f4:	8761                	srai	a4,a4,0x18
    38f6:	87a1d783          	lhu	a5,-1926(gp) # 2000029a <SetupReqLen>
    38fa:	07c2                	slli	a5,a5,0x10
    38fc:	83c1                	srli	a5,a5,0x10
    38fe:	07e2                	slli	a5,a5,0x18
    3900:	87e1                	srai	a5,a5,0x18
    3902:	8fd9                	or	a5,a5,a4
    3904:	01879713          	slli	a4,a5,0x18
    3908:	8761                	srai	a4,a4,0x18
    390a:	500007b7          	lui	a5,0x50000
    390e:	0ff77713          	andi	a4,a4,255
    3912:	00e781a3          	sb	a4,3(a5) # 50000003 <_eusrstack+0x2fff0003>
E:/沁恒/例程/Example/libraries/sdk/Peripheral/ch32v30x_usbotg_device.c:788
                                    USBOTG_FS->UEP0_TX_CTRL = USBHD_UEP_T_RES_NAK;
    3916:	500007b7          	lui	a5,0x50000
    391a:	4709                	li	a4,2
    391c:	02e78923          	sb	a4,50(a5) # 50000032 <_eusrstack+0x2fff0032>
E:/沁恒/例程/Example/libraries/sdk/Peripheral/ch32v30x_usbotg_device.c:789
                                    USBOTG_FS->UEP0_RX_CTRL = USBHD_UEP_R_RES_ACK;
    3920:	500007b7          	lui	a5,0x50000
    3924:	020789a3          	sb	zero,51(a5) # 50000033 <_eusrstack+0x2fff0033>
E:/沁恒/例程/Example/libraries/sdk/Peripheral/ch32v30x_usbotg_device.c:790
                                    break;
    3928:	a839                	j	3946 <OTG_FS_IRQHandler+0x9d8>
E:/沁恒/例程/Example/libraries/sdk/Peripheral/ch32v30x_usbotg_device.c:793
                                    USBOTG_FS->UEP0_TX_LEN = 0;
    392a:	500007b7          	lui	a5,0x50000
    392e:	02079823          	sh	zero,48(a5) # 50000030 <_eusrstack+0x2fff0030>
E:/沁恒/例程/Example/libraries/sdk/Peripheral/ch32v30x_usbotg_device.c:794
                                    USBOTG_FS->UEP0_TX_CTRL = USBHD_UEP_T_RES_NAK;
    3932:	500007b7          	lui	a5,0x50000
    3936:	4709                	li	a4,2
    3938:	02e78923          	sb	a4,50(a5) # 50000032 <_eusrstack+0x2fff0032>
E:/沁恒/例程/Example/libraries/sdk/Peripheral/ch32v30x_usbotg_device.c:795
                                    USBOTG_FS->UEP0_RX_CTRL = USBHD_UEP_R_RES_ACK;
    393c:	500007b7          	lui	a5,0x50000
    3940:	020789a3          	sb	zero,51(a5) # 50000033 <_eusrstack+0x2fff0033>
E:/沁恒/例程/Example/libraries/sdk/Peripheral/ch32v30x_usbotg_device.c:796
                                    break;
    3944:	0001                	nop
E:/沁恒/例程/Example/libraries/sdk/Peripheral/ch32v30x_usbotg_device.c:799
                        break;
    3946:	a059                	j	39cc <OTG_FS_IRQHandler+0xa5e>
E:/沁恒/例程/Example/libraries/sdk/Peripheral/ch32v30x_usbotg_device.c:802
                    USBOTG_FS->UEP1_TX_CTRL  = (USBHD_UEP1_TX_CTRL & ~USBHD_UEP_T_RES_MASK) | USBHD_UEP_T_RES_ACK;
    3948:	500007b7          	lui	a5,0x50000
    394c:	0367c783          	lbu	a5,54(a5) # 50000036 <_eusrstack+0x2fff0036>
    3950:	0ff7f713          	andi	a4,a5,255
    3954:	500007b7          	lui	a5,0x50000
    3958:	9b71                	andi	a4,a4,-4
    395a:	0ff77713          	andi	a4,a4,255
    395e:	02e78b23          	sb	a4,54(a5) # 50000036 <_eusrstack+0x2fff0036>
E:/沁恒/例程/Example/libraries/sdk/Peripheral/ch32v30x_usbotg_device.c:803
                    USBOTG_FS->UEP1_TX_CTRL ^= USBHD_UEP_T_TOG;
    3962:	500007b7          	lui	a5,0x50000
    3966:	0367c783          	lbu	a5,54(a5) # 50000036 <_eusrstack+0x2fff0036>
    396a:	0ff7f713          	andi	a4,a5,255
    396e:	500007b7          	lui	a5,0x50000
    3972:	00474713          	xori	a4,a4,4
    3976:	0ff77713          	andi	a4,a4,255
    397a:	02e78b23          	sb	a4,54(a5) # 50000036 <_eusrstack+0x2fff0036>
E:/沁恒/例程/Example/libraries/sdk/Peripheral/ch32v30x_usbotg_device.c:804
                    break;
    397e:	a0b9                	j	39cc <OTG_FS_IRQHandler+0xa5e>
E:/沁恒/例程/Example/libraries/sdk/Peripheral/ch32v30x_usbotg_device.c:807
                    USBOTG_FS->UEP2_TX_CTRL ^= USBHD_UEP_T_TOG;
    3980:	500007b7          	lui	a5,0x50000
    3984:	03a7c783          	lbu	a5,58(a5) # 5000003a <_eusrstack+0x2fff003a>
    3988:	0ff7f713          	andi	a4,a5,255
    398c:	500007b7          	lui	a5,0x50000
    3990:	00474713          	xori	a4,a4,4
    3994:	0ff77713          	andi	a4,a4,255
    3998:	02e78d23          	sb	a4,58(a5) # 5000003a <_eusrstack+0x2fff003a>
E:/沁恒/例程/Example/libraries/sdk/Peripheral/ch32v30x_usbotg_device.c:808
                    USBOTG_FS->UEP2_TX_CTRL = (USBOTG_FS->UEP2_TX_CTRL & ~USBHD_UEP_T_RES_MASK) | USBHD_UEP_T_RES_NAK;
    399c:	500007b7          	lui	a5,0x50000
    39a0:	03a7c783          	lbu	a5,58(a5) # 5000003a <_eusrstack+0x2fff003a>
    39a4:	0ff7f793          	andi	a5,a5,255
    39a8:	07e2                	slli	a5,a5,0x18
    39aa:	87e1                	srai	a5,a5,0x18
    39ac:	9bf1                	andi	a5,a5,-4
    39ae:	07e2                	slli	a5,a5,0x18
    39b0:	87e1                	srai	a5,a5,0x18
    39b2:	0027e793          	ori	a5,a5,2
    39b6:	01879713          	slli	a4,a5,0x18
    39ba:	8761                	srai	a4,a4,0x18
    39bc:	500007b7          	lui	a5,0x50000
    39c0:	0ff77713          	andi	a4,a4,255
    39c4:	02e78d23          	sb	a4,58(a5) # 5000003a <_eusrstack+0x2fff003a>
E:/沁恒/例程/Example/libraries/sdk/Peripheral/ch32v30x_usbotg_device.c:809
                    break;
    39c8:	a011                	j	39cc <OTG_FS_IRQHandler+0xa5e>
E:/沁恒/例程/Example/libraries/sdk/Peripheral/ch32v30x_usbotg_device.c:813
                    break;
    39ca:	0001                	nop
E:/沁恒/例程/Example/libraries/sdk/Peripheral/ch32v30x_usbotg_device.c:816
                break;
    39cc:	aab5                	j	3b48 <OTG_FS_IRQHandler+0xbda>
E:/沁恒/例程/Example/libraries/sdk/Peripheral/ch32v30x_usbotg_device.c:820
                switch ( USBOTG_FS->INT_ST & ( USBHD_UIS_TOKEN_MASK | USBHD_UIS_ENDP_MASK ) )
    39ce:	500007b7          	lui	a5,0x50000
    39d2:	0077c783          	lbu	a5,7(a5) # 50000007 <_eusrstack+0x2fff0007>
    39d6:	0ff7f793          	andi	a5,a5,255
    39da:	03f7f793          	andi	a5,a5,63
    39de:	4705                	li	a4,1
    39e0:	0ce78763          	beq	a5,a4,3aae <OTG_FS_IRQHandler+0xb40>
    39e4:	4709                	li	a4,2
    39e6:	10e78663          	beq	a5,a4,3af2 <OTG_FS_IRQHandler+0xb84>
    39ea:	14079e63          	bnez	a5,3b46 <OTG_FS_IRQHandler+0xbd8>
E:/沁恒/例程/Example/libraries/sdk/Peripheral/ch32v30x_usbotg_device.c:823 (discriminator 7)
                        switch( SetupReqCode )
    39ee:	8781c783          	lbu	a5,-1928(gp) # 20000298 <SetupReqCode>
    39f2:	0ff7f793          	andi	a5,a5,255
    39f6:	873e                	mv	a4,a5
    39f8:	02000793          	li	a5,32
    39fc:	0af71363          	bne	a4,a5,3aa2 <OTG_FS_IRQHandler+0xb34>
E:/沁恒/例程/Example/libraries/sdk/Peripheral/ch32v30x_usbotg_device.c:826
                                if((((LINECODINGST *)pEP0_DataBuf)->dataRat[0] || ((LINECODINGST *)pEP0_DataBuf)->dataRat[1] ||
    3a00:	8641a783          	lw	a5,-1948(gp) # 20000284 <pEP0_RAM_Addr>
    3a04:	0007c783          	lbu	a5,0(a5)
    3a08:	e385                	bnez	a5,3a28 <OTG_FS_IRQHandler+0xaba>
E:/沁恒/例程/Example/libraries/sdk/Peripheral/ch32v30x_usbotg_device.c:826 (discriminator 1)
    3a0a:	8641a783          	lw	a5,-1948(gp) # 20000284 <pEP0_RAM_Addr>
    3a0e:	0017c783          	lbu	a5,1(a5)
    3a12:	eb99                	bnez	a5,3a28 <OTG_FS_IRQHandler+0xaba>
E:/沁恒/例程/Example/libraries/sdk/Peripheral/ch32v30x_usbotg_device.c:827 (discriminator 2)
                                  ((LINECODINGST *)pEP0_DataBuf)->dataRat[2] || ((LINECODINGST *)pEP0_DataBuf)->dataRat[3]))
    3a14:	8641a783          	lw	a5,-1948(gp) # 20000284 <pEP0_RAM_Addr>
    3a18:	0027c783          	lbu	a5,2(a5)
E:/沁恒/例程/Example/libraries/sdk/Peripheral/ch32v30x_usbotg_device.c:826 (discriminator 2)
                                if((((LINECODINGST *)pEP0_DataBuf)->dataRat[0] || ((LINECODINGST *)pEP0_DataBuf)->dataRat[1] ||
    3a1c:	e791                	bnez	a5,3a28 <OTG_FS_IRQHandler+0xaba>
E:/沁恒/例程/Example/libraries/sdk/Peripheral/ch32v30x_usbotg_device.c:827
                                  ((LINECODINGST *)pEP0_DataBuf)->dataRat[2] || ((LINECODINGST *)pEP0_DataBuf)->dataRat[3]))
    3a1e:	8641a783          	lw	a5,-1948(gp) # 20000284 <pEP0_RAM_Addr>
    3a22:	0037c783          	lbu	a5,3(a5)
    3a26:	cf9d                	beqz	a5,3a64 <OTG_FS_IRQHandler+0xaf6>
E:/沁恒/例程/Example/libraries/sdk/Peripheral/ch32v30x_usbotg_device.c:831
                                            (((LINECODINGST *)pEP0_DataBuf)->dataRat[3] <<24) |
    3a28:	8641a783          	lw	a5,-1948(gp) # 20000284 <pEP0_RAM_Addr>
    3a2c:	0037c783          	lbu	a5,3(a5)
    3a30:	01879713          	slli	a4,a5,0x18
E:/沁恒/例程/Example/libraries/sdk/Peripheral/ch32v30x_usbotg_device.c:832
                                            (((LINECODINGST *)pEP0_DataBuf)->dataRat[2] <<16) |
    3a34:	8641a783          	lw	a5,-1948(gp) # 20000284 <pEP0_RAM_Addr>
    3a38:	0027c783          	lbu	a5,2(a5)
    3a3c:	07c2                	slli	a5,a5,0x10
E:/沁恒/例程/Example/libraries/sdk/Peripheral/ch32v30x_usbotg_device.c:831
                                            (((LINECODINGST *)pEP0_DataBuf)->dataRat[3] <<24) |
    3a3e:	8f5d                	or	a4,a4,a5
E:/沁恒/例程/Example/libraries/sdk/Peripheral/ch32v30x_usbotg_device.c:833
                                            (((LINECODINGST *)pEP0_DataBuf)->dataRat[1] <<8) |
    3a40:	8641a783          	lw	a5,-1948(gp) # 20000284 <pEP0_RAM_Addr>
    3a44:	0017c783          	lbu	a5,1(a5)
    3a48:	07a2                	slli	a5,a5,0x8
E:/沁恒/例程/Example/libraries/sdk/Peripheral/ch32v30x_usbotg_device.c:832
                                            (((LINECODINGST *)pEP0_DataBuf)->dataRat[2] <<16) |
    3a4a:	8fd9                	or	a5,a5,a4
E:/沁恒/例程/Example/libraries/sdk/Peripheral/ch32v30x_usbotg_device.c:834
                                            (((LINECODINGST *)pEP0_DataBuf)->dataRat[0]));
    3a4c:	8641a703          	lw	a4,-1948(gp) # 20000284 <pEP0_RAM_Addr>
    3a50:	00074703          	lbu	a4,0(a4)
E:/沁恒/例程/Example/libraries/sdk/Peripheral/ch32v30x_usbotg_device.c:830
                                    printf( "\nBaud Rate = %d",
    3a54:	8fd9                	or	a5,a5,a4
    3a56:	85be                	mv	a1,a5
    3a58:	67a5                	lui	a5,0x9
    3a5a:	83c78513          	addi	a0,a5,-1988 # 883c <_sbrk+0x42>
    3a5e:	77c020ef          	jal	ra,61da <iprintf>
E:/沁恒/例程/Example/libraries/sdk/Peripheral/ch32v30x_usbotg_device.c:843
                               break;
    3a62:	a83d                	j	3aa0 <OTG_FS_IRQHandler+0xb32>
E:/沁恒/例程/Example/libraries/sdk/Peripheral/ch32v30x_usbotg_device.c:838
                                    printf( "\ndataBit = %d",  ((LINECODINGST *)pEP0_DataBuf)->dataBit);
    3a64:	8641a783          	lw	a5,-1948(gp) # 20000284 <pEP0_RAM_Addr>
    3a68:	0067c783          	lbu	a5,6(a5)
    3a6c:	85be                	mv	a1,a5
    3a6e:	67a5                	lui	a5,0x9
    3a70:	84c78513          	addi	a0,a5,-1972 # 884c <_sbrk+0x52>
    3a74:	766020ef          	jal	ra,61da <iprintf>
E:/沁恒/例程/Example/libraries/sdk/Peripheral/ch32v30x_usbotg_device.c:839
                                    printf( "\nstopBit = %d",  ((LINECODINGST *)pEP0_DataBuf)->stopBit);
    3a78:	8641a783          	lw	a5,-1948(gp) # 20000284 <pEP0_RAM_Addr>
    3a7c:	0047c783          	lbu	a5,4(a5)
    3a80:	85be                	mv	a1,a5
    3a82:	67a5                	lui	a5,0x9
    3a84:	85c78513          	addi	a0,a5,-1956 # 885c <_sbrk+0x62>
    3a88:	752020ef          	jal	ra,61da <iprintf>
E:/沁恒/例程/Example/libraries/sdk/Peripheral/ch32v30x_usbotg_device.c:840
                                    printf( "\nparityType = %d",  ((LINECODINGST *)pEP0_DataBuf)->parityType);
    3a8c:	8641a783          	lw	a5,-1948(gp) # 20000284 <pEP0_RAM_Addr>
    3a90:	0057c783          	lbu	a5,5(a5)
    3a94:	85be                	mv	a1,a5
    3a96:	67a5                	lui	a5,0x9
    3a98:	86c78513          	addi	a0,a5,-1940 # 886c <_sbrk+0x72>
    3a9c:	73e020ef          	jal	ra,61da <iprintf>
E:/沁恒/例程/Example/libraries/sdk/Peripheral/ch32v30x_usbotg_device.c:843
                               break;
    3aa0:	0001                	nop
E:/沁恒/例程/Example/libraries/sdk/Peripheral/ch32v30x_usbotg_device.c:847
                    len = USBOTG_FS->RX_LEN;
    3aa2:	500007b7          	lui	a5,0x50000
    3aa6:	479c                	lw	a5,8(a5)
    3aa8:	fef407a3          	sb	a5,-17(s0)
E:/沁恒/例程/Example/libraries/sdk/Peripheral/ch32v30x_usbotg_device.c:848
                    break;
    3aac:	a841                	j	3b3c <OTG_FS_IRQHandler+0xbce>
E:/沁恒/例程/Example/libraries/sdk/Peripheral/ch32v30x_usbotg_device.c:851
                        if ( USBOTG_FS->INT_ST & USBHD_UIS_TOG_OK )
    3aae:	500007b7          	lui	a5,0x50000
    3ab2:	0077c783          	lbu	a5,7(a5) # 50000007 <_eusrstack+0x2fff0007>
    3ab6:	0ff7f793          	andi	a5,a5,255
    3aba:	0407f793          	andi	a5,a5,64
    3abe:	cfa5                	beqz	a5,3b36 <OTG_FS_IRQHandler+0xbc8>
E:/沁恒/例程/Example/libraries/sdk/Peripheral/ch32v30x_usbotg_device.c:853
                            USBOTG_FS->UEP1_RX_CTRL ^= USBHD_UEP_R_TOG;
    3ac0:	500007b7          	lui	a5,0x50000
    3ac4:	0377c783          	lbu	a5,55(a5) # 50000037 <_eusrstack+0x2fff0037>
    3ac8:	0ff7f713          	andi	a4,a5,255
    3acc:	500007b7          	lui	a5,0x50000
    3ad0:	00474713          	xori	a4,a4,4
    3ad4:	0ff77713          	andi	a4,a4,255
    3ad8:	02e78ba3          	sb	a4,55(a5) # 50000037 <_eusrstack+0x2fff0037>
E:/沁恒/例程/Example/libraries/sdk/Peripheral/ch32v30x_usbotg_device.c:854
                            len = USBOTG_FS->RX_LEN;
    3adc:	500007b7          	lui	a5,0x50000
    3ae0:	479c                	lw	a5,8(a5)
    3ae2:	fef407a3          	sb	a5,-17(s0)
E:/沁恒/例程/Example/libraries/sdk/Peripheral/ch32v30x_usbotg_device.c:856
                            DevEP1_OUT_Deal( len );
    3ae6:	fef44783          	lbu	a5,-17(s0)
    3aea:	853e                	mv	a0,a5
    3aec:	bbaff0ef          	jal	ra,2ea6 <DevEP1_OUT_Deal>
E:/沁恒/例程/Example/libraries/sdk/Peripheral/ch32v30x_usbotg_device.c:858
                        break;
    3af0:	a099                	j	3b36 <OTG_FS_IRQHandler+0xbc8>
E:/沁恒/例程/Example/libraries/sdk/Peripheral/ch32v30x_usbotg_device.c:861
                        if ( USBOTG_FS->INT_ST & USBHD_UIS_TOG_OK )
    3af2:	500007b7          	lui	a5,0x50000
    3af6:	0077c783          	lbu	a5,7(a5) # 50000007 <_eusrstack+0x2fff0007>
    3afa:	0ff7f793          	andi	a5,a5,255
    3afe:	0407f793          	andi	a5,a5,64
    3b02:	cf85                	beqz	a5,3b3a <OTG_FS_IRQHandler+0xbcc>
E:/沁恒/例程/Example/libraries/sdk/Peripheral/ch32v30x_usbotg_device.c:863
                            USBOTG_FS->UEP2_RX_CTRL ^= USBHD_UEP_R_TOG;
    3b04:	500007b7          	lui	a5,0x50000
    3b08:	03b7c783          	lbu	a5,59(a5) # 5000003b <_eusrstack+0x2fff003b>
    3b0c:	0ff7f713          	andi	a4,a5,255
    3b10:	500007b7          	lui	a5,0x50000
    3b14:	00474713          	xori	a4,a4,4
    3b18:	0ff77713          	andi	a4,a4,255
    3b1c:	02e78da3          	sb	a4,59(a5) # 5000003b <_eusrstack+0x2fff003b>
E:/沁恒/例程/Example/libraries/sdk/Peripheral/ch32v30x_usbotg_device.c:864
                            len = USBOTG_FS->RX_LEN;
    3b20:	500007b7          	lui	a5,0x50000
    3b24:	479c                	lw	a5,8(a5)
    3b26:	fef407a3          	sb	a5,-17(s0)
E:/沁恒/例程/Example/libraries/sdk/Peripheral/ch32v30x_usbotg_device.c:866
                            DevEP2_OUT_Deal( len );
    3b2a:	fef44783          	lbu	a5,-17(s0)
    3b2e:	853e                	mv	a0,a5
    3b30:	bdaff0ef          	jal	ra,2f0a <DevEP2_OUT_Deal>
E:/沁恒/例程/Example/libraries/sdk/Peripheral/ch32v30x_usbotg_device.c:868
                        break;
    3b34:	a019                	j	3b3a <OTG_FS_IRQHandler+0xbcc>
E:/沁恒/例程/Example/libraries/sdk/Peripheral/ch32v30x_usbotg_device.c:858
                        break;
    3b36:	0001                	nop
    3b38:	a039                	j	3b46 <OTG_FS_IRQHandler+0xbd8>
E:/沁恒/例程/Example/libraries/sdk/Peripheral/ch32v30x_usbotg_device.c:868
                        break;
    3b3a:	0001                	nop
E:/沁恒/例程/Example/libraries/sdk/Peripheral/ch32v30x_usbotg_device.c:871
                break;
    3b3c:	a029                	j	3b46 <OTG_FS_IRQHandler+0xbd8>
E:/沁恒/例程/Example/libraries/sdk/Peripheral/ch32v30x_usbotg_device.c:875
                break;
    3b3e:	0001                	nop
    3b40:	a021                	j	3b48 <OTG_FS_IRQHandler+0xbda>
E:/沁恒/例程/Example/libraries/sdk/Peripheral/ch32v30x_usbotg_device.c:878
                break;
    3b42:	0001                	nop
    3b44:	a011                	j	3b48 <OTG_FS_IRQHandler+0xbda>
E:/沁恒/例程/Example/libraries/sdk/Peripheral/ch32v30x_usbotg_device.c:871
                break;
    3b46:	0001                	nop
E:/沁恒/例程/Example/libraries/sdk/Peripheral/ch32v30x_usbotg_device.c:882

        }

        USBOTG_FS->INT_FG = USBHD_UIF_TRANSFER;
    3b48:	500007b7          	lui	a5,0x50000
    3b4c:	4709                	li	a4,2
    3b4e:	00e78323          	sb	a4,6(a5) # 50000006 <_eusrstack+0x2fff0006>
E:/沁恒/例程/Example/libraries/sdk/Peripheral/ch32v30x_usbotg_device.c:908
    }
    else
    {
        USBOTG_FS->INT_FG = intflag;
    }
}
    3b52:	a079                	j	3be0 <OTG_FS_IRQHandler+0xc72>
E:/沁恒/例程/Example/libraries/sdk/Peripheral/ch32v30x_usbotg_device.c:884
    else if( intflag & USBHD_UIF_BUS_RST )
    3b54:	fed44783          	lbu	a5,-19(s0)
    3b58:	8b85                	andi	a5,a5,1
    3b5a:	cfb9                	beqz	a5,3bb8 <OTG_FS_IRQHandler+0xc4a>
E:/沁恒/例程/Example/libraries/sdk/Peripheral/ch32v30x_usbotg_device.c:886
        USBOTG_FS->DEV_ADDR = 0;
    3b5c:	500007b7          	lui	a5,0x50000
    3b60:	000781a3          	sb	zero,3(a5) # 50000003 <_eusrstack+0x2fff0003>
E:/沁恒/例程/Example/libraries/sdk/Peripheral/ch32v30x_usbotg_device.c:888
        USBOTG_FS->UEP0_RX_CTRL = USBHD_UEP_R_RES_ACK;
    3b64:	500007b7          	lui	a5,0x50000
    3b68:	020789a3          	sb	zero,51(a5) # 50000033 <_eusrstack+0x2fff0033>
E:/沁恒/例程/Example/libraries/sdk/Peripheral/ch32v30x_usbotg_device.c:889
        USBOTG_FS->UEP1_RX_CTRL = USBHD_UEP_R_RES_ACK;
    3b6c:	500007b7          	lui	a5,0x50000
    3b70:	02078ba3          	sb	zero,55(a5) # 50000037 <_eusrstack+0x2fff0037>
E:/沁恒/例程/Example/libraries/sdk/Peripheral/ch32v30x_usbotg_device.c:890
        USBOTG_FS->UEP2_RX_CTRL = USBHD_UEP_R_RES_ACK;
    3b74:	500007b7          	lui	a5,0x50000
    3b78:	02078da3          	sb	zero,59(a5) # 5000003b <_eusrstack+0x2fff003b>
E:/沁恒/例程/Example/libraries/sdk/Peripheral/ch32v30x_usbotg_device.c:892
        USBOTG_FS->UEP0_TX_CTRL = USBHD_UEP_T_RES_NAK;
    3b7c:	500007b7          	lui	a5,0x50000
    3b80:	4709                	li	a4,2
    3b82:	02e78923          	sb	a4,50(a5) # 50000032 <_eusrstack+0x2fff0032>
E:/沁恒/例程/Example/libraries/sdk/Peripheral/ch32v30x_usbotg_device.c:893
        USBOTG_FS->UEP1_TX_CTRL = USBHD_UEP_T_RES_NAK;
    3b86:	500007b7          	lui	a5,0x50000
    3b8a:	4709                	li	a4,2
    3b8c:	02e78b23          	sb	a4,54(a5) # 50000036 <_eusrstack+0x2fff0036>
E:/沁恒/例程/Example/libraries/sdk/Peripheral/ch32v30x_usbotg_device.c:894
        USBOTG_FS->UEP2_TX_CTRL = USBHD_UEP_T_RES_NAK;
    3b90:	500007b7          	lui	a5,0x50000
    3b94:	4709                	li	a4,2
    3b96:	02e78d23          	sb	a4,58(a5) # 5000003a <_eusrstack+0x2fff003a>
E:/沁恒/例程/Example/libraries/sdk/Peripheral/ch32v30x_usbotg_device.c:896
        USBOTG_FS->INT_FG |= USBHD_UIF_BUS_RST;
    3b9a:	500007b7          	lui	a5,0x50000
    3b9e:	0067c783          	lbu	a5,6(a5) # 50000006 <_eusrstack+0x2fff0006>
    3ba2:	0ff7f713          	andi	a4,a5,255
    3ba6:	500007b7          	lui	a5,0x50000
    3baa:	00176713          	ori	a4,a4,1
    3bae:	0ff77713          	andi	a4,a4,255
    3bb2:	00e78323          	sb	a4,6(a5) # 50000006 <_eusrstack+0x2fff0006>
E:/沁恒/例程/Example/libraries/sdk/Peripheral/ch32v30x_usbotg_device.c:908
}
    3bb6:	a02d                	j	3be0 <OTG_FS_IRQHandler+0xc72>
E:/沁恒/例程/Example/libraries/sdk/Peripheral/ch32v30x_usbotg_device.c:898
    else if( intflag & USBHD_UIF_SUSPEND )
    3bb8:	fed44783          	lbu	a5,-19(s0)
    3bbc:	8b91                	andi	a5,a5,4
    3bbe:	cb99                	beqz	a5,3bd4 <OTG_FS_IRQHandler+0xc66>
E:/沁恒/例程/Example/libraries/sdk/Peripheral/ch32v30x_usbotg_device.c:900
        if ( USBOTG_FS->MIS_ST & USBHD_UMS_SUSPEND ) {;}
    3bc0:	500007b7          	lui	a5,0x50000
    3bc4:	0057c783          	lbu	a5,5(a5) # 50000005 <_eusrstack+0x2fff0005>
E:/沁恒/例程/Example/libraries/sdk/Peripheral/ch32v30x_usbotg_device.c:902
        USBOTG_FS->INT_FG = USBHD_UIF_SUSPEND;
    3bc8:	500007b7          	lui	a5,0x50000
    3bcc:	4711                	li	a4,4
    3bce:	00e78323          	sb	a4,6(a5) # 50000006 <_eusrstack+0x2fff0006>
E:/沁恒/例程/Example/libraries/sdk/Peripheral/ch32v30x_usbotg_device.c:908
}
    3bd2:	a039                	j	3be0 <OTG_FS_IRQHandler+0xc72>
E:/沁恒/例程/Example/libraries/sdk/Peripheral/ch32v30x_usbotg_device.c:906
        USBOTG_FS->INT_FG = intflag;
    3bd4:	500007b7          	lui	a5,0x50000
    3bd8:	fed44703          	lbu	a4,-19(s0)
    3bdc:	00e78323          	sb	a4,6(a5) # 50000006 <_eusrstack+0x2fff0006>
E:/沁恒/例程/Example/libraries/sdk/Peripheral/ch32v30x_usbotg_device.c:908
}
    3be0:	0001                	nop
    3be2:	4472                	lw	s0,28(sp)
    3be4:	6105                	addi	sp,sp,32
    3be6:	30200073          	mret

00003bea <__adddf3>:
__adddf3():
    3bea:	00100837          	lui	a6,0x100
    3bee:	1101                	addi	sp,sp,-32
    3bf0:	187d                	addi	a6,a6,-1
    3bf2:	00b87733          	and	a4,a6,a1
    3bf6:	ca26                	sw	s1,20(sp)
    3bf8:	00d87833          	and	a6,a6,a3
    3bfc:	0145d493          	srli	s1,a1,0x14
    3c00:	0146d313          	srli	t1,a3,0x14
    3c04:	00371e13          	slli	t3,a4,0x3
    3c08:	c64e                	sw	s3,12(sp)
    3c0a:	01d55713          	srli	a4,a0,0x1d
    3c0e:	080e                	slli	a6,a6,0x3
    3c10:	01d65793          	srli	a5,a2,0x1d
    3c14:	7ff4f493          	andi	s1,s1,2047
    3c18:	7ff37313          	andi	t1,t1,2047
    3c1c:	ce06                	sw	ra,28(sp)
    3c1e:	cc22                	sw	s0,24(sp)
    3c20:	c84a                	sw	s2,16(sp)
    3c22:	01f5d993          	srli	s3,a1,0x1f
    3c26:	01f6de93          	srli	t4,a3,0x1f
    3c2a:	01c76733          	or	a4,a4,t3
    3c2e:	00351f13          	slli	t5,a0,0x3
    3c32:	0107e833          	or	a6,a5,a6
    3c36:	00361f93          	slli	t6,a2,0x3
    3c3a:	40648e33          	sub	t3,s1,t1
    3c3e:	19d98063          	beq	s3,t4,3dbe <__adddf3+0x1d4>
    3c42:	13c05663          	blez	t3,3d6e <__adddf3+0x184>
    3c46:	1c030463          	beqz	t1,3e0e <__adddf3+0x224>
    3c4a:	008006b7          	lui	a3,0x800
    3c4e:	7ff00793          	li	a5,2047
    3c52:	00d86833          	or	a6,a6,a3
    3c56:	36f48f63          	beq	s1,a5,3fd4 <__adddf3+0x3ea>
    3c5a:	03800793          	li	a5,56
    3c5e:	35c7c063          	blt	a5,t3,3f9e <__adddf3+0x3b4>
    3c62:	47fd                	li	a5,31
    3c64:	47c7cd63          	blt	a5,t3,40de <__adddf3+0x4f4>
    3c68:	02000513          	li	a0,32
    3c6c:	41c50533          	sub	a0,a0,t3
    3c70:	01cfd7b3          	srl	a5,t6,t3
    3c74:	00a816b3          	sll	a3,a6,a0
    3c78:	00af9933          	sll	s2,t6,a0
    3c7c:	8edd                	or	a3,a3,a5
    3c7e:	01203933          	snez	s2,s2
    3c82:	01c857b3          	srl	a5,a6,t3
    3c86:	0126e933          	or	s2,a3,s2
    3c8a:	8f1d                	sub	a4,a4,a5
    3c8c:	412f0933          	sub	s2,t5,s2
    3c90:	012f37b3          	sltu	a5,t5,s2
    3c94:	40f70633          	sub	a2,a4,a5
    3c98:	00861793          	slli	a5,a2,0x8
    3c9c:	2407d463          	bgez	a5,3ee4 <__adddf3+0x2fa>
    3ca0:	00800737          	lui	a4,0x800
    3ca4:	177d                	addi	a4,a4,-1
    3ca6:	00e67433          	and	s0,a2,a4
    3caa:	2c040c63          	beqz	s0,3f82 <__adddf3+0x398>
    3cae:	8522                	mv	a0,s0
    3cb0:	209010ef          	jal	ra,56b8 <__clzsi2>
    3cb4:	ff850713          	addi	a4,a0,-8
    3cb8:	02000793          	li	a5,32
    3cbc:	8f99                	sub	a5,a5,a4
    3cbe:	00f957b3          	srl	a5,s2,a5
    3cc2:	00e41633          	sll	a2,s0,a4
    3cc6:	8fd1                	or	a5,a5,a2
    3cc8:	00e91933          	sll	s2,s2,a4
    3ccc:	2a974163          	blt	a4,s1,3f6e <__adddf3+0x384>
    3cd0:	40970533          	sub	a0,a4,s1
    3cd4:	00150613          	addi	a2,a0,1
    3cd8:	477d                	li	a4,31
    3cda:	38c74d63          	blt	a4,a2,4074 <__adddf3+0x48a>
    3cde:	02000713          	li	a4,32
    3ce2:	8f11                	sub	a4,a4,a2
    3ce4:	00c956b3          	srl	a3,s2,a2
    3ce8:	00e91933          	sll	s2,s2,a4
    3cec:	00e79733          	sll	a4,a5,a4
    3cf0:	8f55                	or	a4,a4,a3
    3cf2:	01203933          	snez	s2,s2
    3cf6:	01276933          	or	s2,a4,s2
    3cfa:	00c7d633          	srl	a2,a5,a2
    3cfe:	4481                	li	s1,0
    3d00:	00797793          	andi	a5,s2,7
    3d04:	cf81                	beqz	a5,3d1c <__adddf3+0x132>
    3d06:	00f97713          	andi	a4,s2,15
    3d0a:	4791                	li	a5,4
    3d0c:	00f70863          	beq	a4,a5,3d1c <__adddf3+0x132>
    3d10:	00490713          	addi	a4,s2,4
    3d14:	01273933          	sltu	s2,a4,s2
    3d18:	964a                	add	a2,a2,s2
    3d1a:	893a                	mv	s2,a4
    3d1c:	00861793          	slli	a5,a2,0x8
    3d20:	1c07d663          	bgez	a5,3eec <__adddf3+0x302>
    3d24:	00148513          	addi	a0,s1,1
    3d28:	7ff00793          	li	a5,2047
    3d2c:	85ce                	mv	a1,s3
    3d2e:	20f50463          	beq	a0,a5,3f36 <__adddf3+0x34c>
    3d32:	ff8007b7          	lui	a5,0xff800
    3d36:	17fd                	addi	a5,a5,-1
    3d38:	8ff1                	and	a5,a5,a2
    3d3a:	01d79893          	slli	a7,a5,0x1d
    3d3e:	00395913          	srli	s2,s2,0x3
    3d42:	07a6                	slli	a5,a5,0x9
    3d44:	0128e8b3          	or	a7,a7,s2
    3d48:	83b1                	srli	a5,a5,0xc
    3d4a:	7ff57513          	andi	a0,a0,2047
    3d4e:	00c79693          	slli	a3,a5,0xc
    3d52:	0552                	slli	a0,a0,0x14
    3d54:	40f2                	lw	ra,28(sp)
    3d56:	4462                	lw	s0,24(sp)
    3d58:	82b1                	srli	a3,a3,0xc
    3d5a:	05fe                	slli	a1,a1,0x1f
    3d5c:	8ec9                	or	a3,a3,a0
    3d5e:	8ecd                	or	a3,a3,a1
    3d60:	44d2                	lw	s1,20(sp)
    3d62:	4942                	lw	s2,16(sp)
    3d64:	49b2                	lw	s3,12(sp)
    3d66:	8546                	mv	a0,a7
    3d68:	85b6                	mv	a1,a3
    3d6a:	6105                	addi	sp,sp,32
    3d6c:	8082                	ret
    3d6e:	0a0e1e63          	bnez	t3,3e2a <__adddf3+0x240>
    3d72:	00148313          	addi	t1,s1,1
    3d76:	7fe37313          	andi	t1,t1,2046
    3d7a:	22031763          	bnez	t1,3fa8 <__adddf3+0x3be>
    3d7e:	01e767b3          	or	a5,a4,t5
    3d82:	01f868b3          	or	a7,a6,t6
    3d86:	1a049d63          	bnez	s1,3f40 <__adddf3+0x356>
    3d8a:	40078763          	beqz	a5,4198 <__adddf3+0x5ae>
    3d8e:	44088663          	beqz	a7,41da <__adddf3+0x5f0>
    3d92:	41ff0933          	sub	s2,t5,t6
    3d96:	410707b3          	sub	a5,a4,a6
    3d9a:	012f3633          	sltu	a2,t5,s2
    3d9e:	40c78633          	sub	a2,a5,a2
    3da2:	00861793          	slli	a5,a2,0x8
    3da6:	4c07d663          	bgez	a5,4272 <__adddf3+0x688>
    3daa:	41ef8933          	sub	s2,t6,t5
    3dae:	40e807b3          	sub	a5,a6,a4
    3db2:	012fb633          	sltu	a2,t6,s2
    3db6:	40c78633          	sub	a2,a5,a2
    3dba:	89f6                	mv	s3,t4
    3dbc:	b791                	j	3d00 <__adddf3+0x116>
    3dbe:	0fc05063          	blez	t3,3e9e <__adddf3+0x2b4>
    3dc2:	0c030063          	beqz	t1,3e82 <__adddf3+0x298>
    3dc6:	008006b7          	lui	a3,0x800
    3dca:	7ff00793          	li	a5,2047
    3dce:	00d86833          	or	a6,a6,a3
    3dd2:	3af48a63          	beq	s1,a5,4186 <__adddf3+0x59c>
    3dd6:	03800793          	li	a5,56
    3dda:	13c7cb63          	blt	a5,t3,3f10 <__adddf3+0x326>
    3dde:	47fd                	li	a5,31
    3de0:	35c7df63          	bge	a5,t3,413e <__adddf3+0x554>
    3de4:	fe0e0913          	addi	s2,t3,-32
    3de8:	02000793          	li	a5,32
    3dec:	012856b3          	srl	a3,a6,s2
    3df0:	00fe0a63          	beq	t3,a5,3e04 <__adddf3+0x21a>
    3df4:	04000913          	li	s2,64
    3df8:	41c90933          	sub	s2,s2,t3
    3dfc:	01281933          	sll	s2,a6,s2
    3e00:	012fefb3          	or	t6,t6,s2
    3e04:	01f03933          	snez	s2,t6
    3e08:	00d96933          	or	s2,s2,a3
    3e0c:	a231                	j	3f18 <__adddf3+0x32e>
    3e0e:	01f867b3          	or	a5,a6,t6
    3e12:	1c078a63          	beqz	a5,3fe6 <__adddf3+0x3fc>
    3e16:	fffe0793          	addi	a5,t3,-1
    3e1a:	38078c63          	beqz	a5,41b2 <__adddf3+0x5c8>
    3e1e:	7ff00693          	li	a3,2047
    3e22:	1ade0963          	beq	t3,a3,3fd4 <__adddf3+0x3ea>
    3e26:	8e3e                	mv	t3,a5
    3e28:	bd0d                	j	3c5a <__adddf3+0x70>
    3e2a:	409305b3          	sub	a1,t1,s1
    3e2e:	22049163          	bnez	s1,4050 <__adddf3+0x466>
    3e32:	01e767b3          	or	a5,a4,t5
    3e36:	32078763          	beqz	a5,4164 <__adddf3+0x57a>
    3e3a:	fff58793          	addi	a5,a1,-1
    3e3e:	44078163          	beqz	a5,4280 <__adddf3+0x696>
    3e42:	7ff00693          	li	a3,2047
    3e46:	20d58c63          	beq	a1,a3,405e <__adddf3+0x474>
    3e4a:	85be                	mv	a1,a5
    3e4c:	03800793          	li	a5,56
    3e50:	2ab7cc63          	blt	a5,a1,4108 <__adddf3+0x51e>
    3e54:	47fd                	li	a5,31
    3e56:	3cb7cf63          	blt	a5,a1,4234 <__adddf3+0x64a>
    3e5a:	02000793          	li	a5,32
    3e5e:	8f8d                	sub	a5,a5,a1
    3e60:	00f71933          	sll	s2,a4,a5
    3e64:	00bf56b3          	srl	a3,t5,a1
    3e68:	00ff17b3          	sll	a5,t5,a5
    3e6c:	00d96933          	or	s2,s2,a3
    3e70:	00f037b3          	snez	a5,a5
    3e74:	00b75733          	srl	a4,a4,a1
    3e78:	00f96933          	or	s2,s2,a5
    3e7c:	40e80833          	sub	a6,a6,a4
    3e80:	ac41                	j	4110 <__adddf3+0x526>
    3e82:	01f867b3          	or	a5,a6,t6
    3e86:	34078063          	beqz	a5,41c6 <__adddf3+0x5dc>
    3e8a:	fffe0793          	addi	a5,t3,-1
    3e8e:	20078a63          	beqz	a5,40a2 <__adddf3+0x4b8>
    3e92:	7ff00693          	li	a3,2047
    3e96:	2ede0863          	beq	t3,a3,4186 <__adddf3+0x59c>
    3e9a:	8e3e                	mv	t3,a5
    3e9c:	bf2d                	j	3dd6 <__adddf3+0x1ec>
    3e9e:	140e1e63          	bnez	t3,3ffa <__adddf3+0x410>
    3ea2:	00148693          	addi	a3,s1,1
    3ea6:	7fe6f793          	andi	a5,a3,2046
    3eaa:	34079163          	bnez	a5,41ec <__adddf3+0x602>
    3eae:	01e767b3          	or	a5,a4,t5
    3eb2:	2c049563          	bnez	s1,417c <__adddf3+0x592>
    3eb6:	3e078063          	beqz	a5,4296 <__adddf3+0x6ac>
    3eba:	01f867b3          	or	a5,a6,t6
    3ebe:	30078e63          	beqz	a5,41da <__adddf3+0x5f0>
    3ec2:	01ff0933          	add	s2,t5,t6
    3ec6:	010707b3          	add	a5,a4,a6
    3eca:	01e93f33          	sltu	t5,s2,t5
    3ece:	01e78633          	add	a2,a5,t5
    3ed2:	00861793          	slli	a5,a2,0x8
    3ed6:	0007d763          	bgez	a5,3ee4 <__adddf3+0x2fa>
    3eda:	ff8007b7          	lui	a5,0xff800
    3ede:	17fd                	addi	a5,a5,-1
    3ee0:	8e7d                	and	a2,a2,a5
    3ee2:	4485                	li	s1,1
    3ee4:	00797793          	andi	a5,s2,7
    3ee8:	e0079fe3          	bnez	a5,3d06 <__adddf3+0x11c>
    3eec:	01d61793          	slli	a5,a2,0x1d
    3ef0:	00395893          	srli	a7,s2,0x3
    3ef4:	00f8e8b3          	or	a7,a7,a5
    3ef8:	00365793          	srli	a5,a2,0x3
    3efc:	7ff00713          	li	a4,2047
    3f00:	04e48d63          	beq	s1,a4,3f5a <__adddf3+0x370>
    3f04:	07b2                	slli	a5,a5,0xc
    3f06:	83b1                	srli	a5,a5,0xc
    3f08:	7ff4f513          	andi	a0,s1,2047
    3f0c:	85ce                	mv	a1,s3
    3f0e:	b581                	j	3d4e <__adddf3+0x164>
    3f10:	01f86933          	or	s2,a6,t6
    3f14:	01203933          	snez	s2,s2
    3f18:	997a                	add	s2,s2,t5
    3f1a:	01e937b3          	sltu	a5,s2,t5
    3f1e:	00e78633          	add	a2,a5,a4
    3f22:	00861793          	slli	a5,a2,0x8
    3f26:	fa07dfe3          	bgez	a5,3ee4 <__adddf3+0x2fa>
    3f2a:	0485                	addi	s1,s1,1
    3f2c:	7ff00793          	li	a5,2047
    3f30:	18f49663          	bne	s1,a5,40bc <__adddf3+0x4d2>
    3f34:	85ce                	mv	a1,s3
    3f36:	7ff00513          	li	a0,2047
    3f3a:	4781                	li	a5,0
    3f3c:	4881                	li	a7,0
    3f3e:	bd01                	j	3d4e <__adddf3+0x164>
    3f40:	ebc1                	bnez	a5,3fd0 <__adddf3+0x3e6>
    3f42:	3a088463          	beqz	a7,42ea <__adddf3+0x700>
    3f46:	00361693          	slli	a3,a2,0x3
    3f4a:	01d81793          	slli	a5,a6,0x1d
    3f4e:	828d                	srli	a3,a3,0x3
    3f50:	00d7e8b3          	or	a7,a5,a3
    3f54:	89f6                	mv	s3,t4
    3f56:	00385793          	srli	a5,a6,0x3
    3f5a:	00f8e7b3          	or	a5,a7,a5
    3f5e:	dbf9                	beqz	a5,3f34 <__adddf3+0x34a>
    3f60:	4581                	li	a1,0
    3f62:	7ff00513          	li	a0,2047
    3f66:	000807b7          	lui	a5,0x80
    3f6a:	4881                	li	a7,0
    3f6c:	b3cd                	j	3d4e <__adddf3+0x164>
    3f6e:	ff800637          	lui	a2,0xff800
    3f72:	167d                	addi	a2,a2,-1
    3f74:	8e7d                	and	a2,a2,a5
    3f76:	00797793          	andi	a5,s2,7
    3f7a:	8c99                	sub	s1,s1,a4
    3f7c:	d80795e3          	bnez	a5,3d06 <__adddf3+0x11c>
    3f80:	b7b5                	j	3eec <__adddf3+0x302>
    3f82:	854a                	mv	a0,s2
    3f84:	734010ef          	jal	ra,56b8 <__clzsi2>
    3f88:	01850713          	addi	a4,a0,24
    3f8c:	47fd                	li	a5,31
    3f8e:	d2e7d5e3          	bge	a5,a4,3cb8 <__adddf3+0xce>
    3f92:	ff850613          	addi	a2,a0,-8
    3f96:	00c917b3          	sll	a5,s2,a2
    3f9a:	4901                	li	s2,0
    3f9c:	bb05                	j	3ccc <__adddf3+0xe2>
    3f9e:	01f86933          	or	s2,a6,t6
    3fa2:	01203933          	snez	s2,s2
    3fa6:	b1dd                	j	3c8c <__adddf3+0xa2>
    3fa8:	41ff0933          	sub	s2,t5,t6
    3fac:	41070633          	sub	a2,a4,a6
    3fb0:	012f3433          	sltu	s0,t5,s2
    3fb4:	40860433          	sub	s0,a2,s0
    3fb8:	00841793          	slli	a5,s0,0x8
    3fbc:	2407cd63          	bltz	a5,4216 <__adddf3+0x62c>
    3fc0:	008968b3          	or	a7,s2,s0
    3fc4:	ce0893e3          	bnez	a7,3caa <__adddf3+0xc0>
    3fc8:	4781                	li	a5,0
    3fca:	4981                	li	s3,0
    3fcc:	4481                	li	s1,0
    3fce:	bf1d                	j	3f04 <__adddf3+0x31a>
    3fd0:	f80898e3          	bnez	a7,3f60 <__adddf3+0x376>
    3fd4:	050e                	slli	a0,a0,0x3
    3fd6:	01d71793          	slli	a5,a4,0x1d
    3fda:	810d                	srli	a0,a0,0x3
    3fdc:	00a7e8b3          	or	a7,a5,a0
    3fe0:	00375793          	srli	a5,a4,0x3
    3fe4:	bf9d                	j	3f5a <__adddf3+0x370>
    3fe6:	050e                	slli	a0,a0,0x3
    3fe8:	01d71793          	slli	a5,a4,0x1d
    3fec:	810d                	srli	a0,a0,0x3
    3fee:	00a7e8b3          	or	a7,a5,a0
    3ff2:	84f2                	mv	s1,t3
    3ff4:	00375793          	srli	a5,a4,0x3
    3ff8:	b711                	j	3efc <__adddf3+0x312>
    3ffa:	40930533          	sub	a0,t1,s1
    3ffe:	12048263          	beqz	s1,4122 <__adddf3+0x538>
    4002:	008006b7          	lui	a3,0x800
    4006:	7ff00793          	li	a5,2047
    400a:	8f55                	or	a4,a4,a3
    400c:	2ef30d63          	beq	t1,a5,4306 <__adddf3+0x71c>
    4010:	03800793          	li	a5,56
    4014:	20a7cb63          	blt	a5,a0,422a <__adddf3+0x640>
    4018:	47fd                	li	a5,31
    401a:	2aa7c363          	blt	a5,a0,42c0 <__adddf3+0x6d6>
    401e:	02000793          	li	a5,32
    4022:	8f89                	sub	a5,a5,a0
    4024:	00f71933          	sll	s2,a4,a5
    4028:	00af56b3          	srl	a3,t5,a0
    402c:	00ff17b3          	sll	a5,t5,a5
    4030:	00d96933          	or	s2,s2,a3
    4034:	00f037b3          	snez	a5,a5
    4038:	00a75733          	srl	a4,a4,a0
    403c:	00f96933          	or	s2,s2,a5
    4040:	983a                	add	a6,a6,a4
    4042:	997e                	add	s2,s2,t6
    4044:	01f937b3          	sltu	a5,s2,t6
    4048:	01078633          	add	a2,a5,a6
    404c:	849a                	mv	s1,t1
    404e:	bdd1                	j	3f22 <__adddf3+0x338>
    4050:	008006b7          	lui	a3,0x800
    4054:	7ff00793          	li	a5,2047
    4058:	8f55                	or	a4,a4,a3
    405a:	def319e3          	bne	t1,a5,3e4c <__adddf3+0x262>
    405e:	00361793          	slli	a5,a2,0x3
    4062:	838d                	srli	a5,a5,0x3
    4064:	01d81893          	slli	a7,a6,0x1d
    4068:	0117e8b3          	or	a7,a5,a7
    406c:	89f6                	mv	s3,t4
    406e:	00385793          	srli	a5,a6,0x3
    4072:	b5e5                	j	3f5a <__adddf3+0x370>
    4074:	fe150713          	addi	a4,a0,-31
    4078:	02000693          	li	a3,32
    407c:	00e7d733          	srl	a4,a5,a4
    4080:	00d60a63          	beq	a2,a3,4094 <__adddf3+0x4aa>
    4084:	04000693          	li	a3,64
    4088:	40c68633          	sub	a2,a3,a2
    408c:	00c79633          	sll	a2,a5,a2
    4090:	00c96933          	or	s2,s2,a2
    4094:	01203933          	snez	s2,s2
    4098:	00e96933          	or	s2,s2,a4
    409c:	4601                	li	a2,0
    409e:	4481                	li	s1,0
    40a0:	b591                	j	3ee4 <__adddf3+0x2fa>
    40a2:	01ff0933          	add	s2,t5,t6
    40a6:	010707b3          	add	a5,a4,a6
    40aa:	01e93633          	sltu	a2,s2,t5
    40ae:	963e                	add	a2,a2,a5
    40b0:	00861793          	slli	a5,a2,0x8
    40b4:	4485                	li	s1,1
    40b6:	e207d7e3          	bgez	a5,3ee4 <__adddf3+0x2fa>
    40ba:	4489                	li	s1,2
    40bc:	ff8007b7          	lui	a5,0xff800
    40c0:	17fd                	addi	a5,a5,-1
    40c2:	8ff1                	and	a5,a5,a2
    40c4:	00195713          	srli	a4,s2,0x1
    40c8:	00197913          	andi	s2,s2,1
    40cc:	01276933          	or	s2,a4,s2
    40d0:	01f79893          	slli	a7,a5,0x1f
    40d4:	0128e933          	or	s2,a7,s2
    40d8:	0017d613          	srli	a2,a5,0x1
    40dc:	b115                	j	3d00 <__adddf3+0x116>
    40de:	fe0e0913          	addi	s2,t3,-32
    40e2:	02000793          	li	a5,32
    40e6:	012856b3          	srl	a3,a6,s2
    40ea:	00fe0a63          	beq	t3,a5,40fe <__adddf3+0x514>
    40ee:	04000913          	li	s2,64
    40f2:	41c90933          	sub	s2,s2,t3
    40f6:	01281933          	sll	s2,a6,s2
    40fa:	012fefb3          	or	t6,t6,s2
    40fe:	01f03933          	snez	s2,t6
    4102:	00d96933          	or	s2,s2,a3
    4106:	b659                	j	3c8c <__adddf3+0xa2>
    4108:	01e76933          	or	s2,a4,t5
    410c:	01203933          	snez	s2,s2
    4110:	412f8933          	sub	s2,t6,s2
    4114:	012fb7b3          	sltu	a5,t6,s2
    4118:	40f80633          	sub	a2,a6,a5
    411c:	849a                	mv	s1,t1
    411e:	89f6                	mv	s3,t4
    4120:	bea5                	j	3c98 <__adddf3+0xae>
    4122:	01e767b3          	or	a5,a4,t5
    4126:	18078263          	beqz	a5,42aa <__adddf3+0x6c0>
    412a:	fff50793          	addi	a5,a0,-1
    412e:	1c078463          	beqz	a5,42f6 <__adddf3+0x70c>
    4132:	7ff00693          	li	a3,2047
    4136:	12d50463          	beq	a0,a3,425e <__adddf3+0x674>
    413a:	853e                	mv	a0,a5
    413c:	bdd1                	j	4010 <__adddf3+0x426>
    413e:	02000793          	li	a5,32
    4142:	41c787b3          	sub	a5,a5,t3
    4146:	00f816b3          	sll	a3,a6,a5
    414a:	00ff9933          	sll	s2,t6,a5
    414e:	01cfd633          	srl	a2,t6,t3
    4152:	8ed1                	or	a3,a3,a2
    4154:	01203933          	snez	s2,s2
    4158:	01c857b3          	srl	a5,a6,t3
    415c:	0126e933          	or	s2,a3,s2
    4160:	973e                	add	a4,a4,a5
    4162:	bb5d                	j	3f18 <__adddf3+0x32e>
    4164:	00361793          	slli	a5,a2,0x3
    4168:	838d                	srli	a5,a5,0x3
    416a:	01d81893          	slli	a7,a6,0x1d
    416e:	0117e8b3          	or	a7,a5,a7
    4172:	84ae                	mv	s1,a1
    4174:	00385793          	srli	a5,a6,0x3
    4178:	89f6                	mv	s3,t4
    417a:	b349                	j	3efc <__adddf3+0x312>
    417c:	c3ed                	beqz	a5,425e <__adddf3+0x674>
    417e:	01f86933          	or	s2,a6,t6
    4182:	dc091fe3          	bnez	s2,3f60 <__adddf3+0x376>
    4186:	050e                	slli	a0,a0,0x3
    4188:	01d71793          	slli	a5,a4,0x1d
    418c:	810d                	srli	a0,a0,0x3
    418e:	00f568b3          	or	a7,a0,a5
    4192:	00375793          	srli	a5,a4,0x3
    4196:	b3d1                	j	3f5a <__adddf3+0x370>
    4198:	0e088163          	beqz	a7,427a <__adddf3+0x690>
    419c:	00361693          	slli	a3,a2,0x3
    41a0:	01d81793          	slli	a5,a6,0x1d
    41a4:	828d                	srli	a3,a3,0x3
    41a6:	00d7e8b3          	or	a7,a5,a3
    41aa:	89f6                	mv	s3,t4
    41ac:	00385793          	srli	a5,a6,0x3
    41b0:	bb91                	j	3f04 <__adddf3+0x31a>
    41b2:	41ff0933          	sub	s2,t5,t6
    41b6:	410707b3          	sub	a5,a4,a6
    41ba:	012f3f33          	sltu	t5,t5,s2
    41be:	41e78633          	sub	a2,a5,t5
    41c2:	4485                	li	s1,1
    41c4:	bcd1                	j	3c98 <__adddf3+0xae>
    41c6:	050e                	slli	a0,a0,0x3
    41c8:	01d71793          	slli	a5,a4,0x1d
    41cc:	810d                	srli	a0,a0,0x3
    41ce:	00f568b3          	or	a7,a0,a5
    41d2:	84f2                	mv	s1,t3
    41d4:	00375793          	srli	a5,a4,0x3
    41d8:	b315                	j	3efc <__adddf3+0x312>
    41da:	050e                	slli	a0,a0,0x3
    41dc:	01d71793          	slli	a5,a4,0x1d
    41e0:	810d                	srli	a0,a0,0x3
    41e2:	00a7e8b3          	or	a7,a5,a0
    41e6:	00375793          	srli	a5,a4,0x3
    41ea:	bb29                	j	3f04 <__adddf3+0x31a>
    41ec:	7ff00793          	li	a5,2047
    41f0:	d4f682e3          	beq	a3,a5,3f34 <__adddf3+0x34a>
    41f4:	01ff0933          	add	s2,t5,t6
    41f8:	01e93633          	sltu	a2,s2,t5
    41fc:	010707b3          	add	a5,a4,a6
    4200:	97b2                	add	a5,a5,a2
    4202:	01f79893          	slli	a7,a5,0x1f
    4206:	00195913          	srli	s2,s2,0x1
    420a:	0128e933          	or	s2,a7,s2
    420e:	0017d613          	srli	a2,a5,0x1
    4212:	84b6                	mv	s1,a3
    4214:	b9c1                	j	3ee4 <__adddf3+0x2fa>
    4216:	41ef8933          	sub	s2,t6,t5
    421a:	40e80733          	sub	a4,a6,a4
    421e:	012fb633          	sltu	a2,t6,s2
    4222:	40c70433          	sub	s0,a4,a2
    4226:	89f6                	mv	s3,t4
    4228:	b449                	j	3caa <__adddf3+0xc0>
    422a:	01e76933          	or	s2,a4,t5
    422e:	01203933          	snez	s2,s2
    4232:	bd01                	j	4042 <__adddf3+0x458>
    4234:	fe058793          	addi	a5,a1,-32
    4238:	02000693          	li	a3,32
    423c:	00f757b3          	srl	a5,a4,a5
    4240:	00d58a63          	beq	a1,a3,4254 <__adddf3+0x66a>
    4244:	04000693          	li	a3,64
    4248:	40b685b3          	sub	a1,a3,a1
    424c:	00b71733          	sll	a4,a4,a1
    4250:	00ef6f33          	or	t5,t5,a4
    4254:	01e03933          	snez	s2,t5
    4258:	00f96933          	or	s2,s2,a5
    425c:	bd55                	j	4110 <__adddf3+0x526>
    425e:	00361793          	slli	a5,a2,0x3
    4262:	838d                	srli	a5,a5,0x3
    4264:	01d81893          	slli	a7,a6,0x1d
    4268:	0117e8b3          	or	a7,a5,a7
    426c:	00385793          	srli	a5,a6,0x3
    4270:	b1ed                	j	3f5a <__adddf3+0x370>
    4272:	00c968b3          	or	a7,s2,a2
    4276:	c60897e3          	bnez	a7,3ee4 <__adddf3+0x2fa>
    427a:	4781                	li	a5,0
    427c:	4981                	li	s3,0
    427e:	b159                	j	3f04 <__adddf3+0x31a>
    4280:	41ef8933          	sub	s2,t6,t5
    4284:	40e807b3          	sub	a5,a6,a4
    4288:	012fb633          	sltu	a2,t6,s2
    428c:	40c78633          	sub	a2,a5,a2
    4290:	89f6                	mv	s3,t4
    4292:	4485                	li	s1,1
    4294:	b411                	j	3c98 <__adddf3+0xae>
    4296:	00361693          	slli	a3,a2,0x3
    429a:	01d81793          	slli	a5,a6,0x1d
    429e:	828d                	srli	a3,a3,0x3
    42a0:	00d7e8b3          	or	a7,a5,a3
    42a4:	00385793          	srli	a5,a6,0x3
    42a8:	b9b1                	j	3f04 <__adddf3+0x31a>
    42aa:	00361693          	slli	a3,a2,0x3
    42ae:	01d81793          	slli	a5,a6,0x1d
    42b2:	828d                	srli	a3,a3,0x3
    42b4:	00d7e8b3          	or	a7,a5,a3
    42b8:	84aa                	mv	s1,a0
    42ba:	00385793          	srli	a5,a6,0x3
    42be:	b93d                	j	3efc <__adddf3+0x312>
    42c0:	fe050793          	addi	a5,a0,-32
    42c4:	02000693          	li	a3,32
    42c8:	00f757b3          	srl	a5,a4,a5
    42cc:	00d50a63          	beq	a0,a3,42e0 <__adddf3+0x6f6>
    42d0:	04000693          	li	a3,64
    42d4:	40a68533          	sub	a0,a3,a0
    42d8:	00a71733          	sll	a4,a4,a0
    42dc:	00ef6f33          	or	t5,t5,a4
    42e0:	01e03933          	snez	s2,t5
    42e4:	00f96933          	or	s2,s2,a5
    42e8:	bba9                	j	4042 <__adddf3+0x458>
    42ea:	4581                	li	a1,0
    42ec:	7ff00513          	li	a0,2047
    42f0:	000807b7          	lui	a5,0x80
    42f4:	bca9                	j	3d4e <__adddf3+0x164>
    42f6:	01ff0933          	add	s2,t5,t6
    42fa:	010707b3          	add	a5,a4,a6
    42fe:	01f93633          	sltu	a2,s2,t6
    4302:	963e                	add	a2,a2,a5
    4304:	b375                	j	40b0 <__adddf3+0x4c6>
    4306:	00361693          	slli	a3,a2,0x3
    430a:	01d81793          	slli	a5,a6,0x1d
    430e:	828d                	srli	a3,a3,0x3
    4310:	00d7e8b3          	or	a7,a5,a3
    4314:	00385793          	srli	a5,a6,0x3
    4318:	b189                	j	3f5a <__adddf3+0x370>

0000431a <__divdf3>:
__divdf3():
    431a:	7139                	addi	sp,sp,-64
    431c:	0145d793          	srli	a5,a1,0x14
    4320:	dc22                	sw	s0,56(sp)
    4322:	d84a                	sw	s2,48(sp)
    4324:	d256                	sw	s5,36(sp)
    4326:	892a                	mv	s2,a0
    4328:	00c59413          	slli	s0,a1,0xc
    432c:	de06                	sw	ra,60(sp)
    432e:	da26                	sw	s1,52(sp)
    4330:	d64e                	sw	s3,44(sp)
    4332:	d452                	sw	s4,40(sp)
    4334:	d05a                	sw	s6,32(sp)
    4336:	ce5e                	sw	s7,28(sp)
    4338:	7ff7f513          	andi	a0,a5,2047
    433c:	8031                	srli	s0,s0,0xc
    433e:	01f5da93          	srli	s5,a1,0x1f
    4342:	10050b63          	beqz	a0,4458 <__divdf3+0x13e>
    4346:	7ff00793          	li	a5,2047
    434a:	14f50b63          	beq	a0,a5,44a0 <__divdf3+0x186>
    434e:	01d95a13          	srli	s4,s2,0x1d
    4352:	040e                	slli	s0,s0,0x3
    4354:	008a6433          	or	s0,s4,s0
    4358:	00800a37          	lui	s4,0x800
    435c:	01446a33          	or	s4,s0,s4
    4360:	00391b13          	slli	s6,s2,0x3
    4364:	c0150493          	addi	s1,a0,-1023
    4368:	4401                	li	s0,0
    436a:	4b81                	li	s7,0
    436c:	0146d813          	srli	a6,a3,0x14
    4370:	00c69913          	slli	s2,a3,0xc
    4374:	7ff87813          	andi	a6,a6,2047
    4378:	88b2                	mv	a7,a2
    437a:	00c95913          	srli	s2,s2,0xc
    437e:	01f6d993          	srli	s3,a3,0x1f
    4382:	08080e63          	beqz	a6,441e <__divdf3+0x104>
    4386:	7ff00793          	li	a5,2047
    438a:	04f80063          	beq	a6,a5,43ca <__divdf3+0xb0>
    438e:	01d65713          	srli	a4,a2,0x1d
    4392:	090e                	slli	s2,s2,0x3
    4394:	01276933          	or	s2,a4,s2
    4398:	c0180813          	addi	a6,a6,-1023 # ffc01 <_data_lma+0xf6d3d>
    439c:	008007b7          	lui	a5,0x800
    43a0:	00f96733          	or	a4,s2,a5
    43a4:	00361893          	slli	a7,a2,0x3
    43a8:	410484b3          	sub	s1,s1,a6
    43ac:	4581                	li	a1,0
    43ae:	47bd                	li	a5,15
    43b0:	013ac833          	xor	a6,s5,s3
    43b4:	1a87e463          	bltu	a5,s0,455c <__divdf3+0x242>
    43b8:	00004797          	auipc	a5,0x4
    43bc:	66478793          	addi	a5,a5,1636 # 8a1c <MyUSBQUADescHD+0xc8>
    43c0:	040a                	slli	s0,s0,0x2
    43c2:	943e                	add	s0,s0,a5
    43c4:	4010                	lw	a2,0(s0)
    43c6:	963e                	add	a2,a2,a5
    43c8:	8602                	jr	a2
    43ca:	00c96733          	or	a4,s2,a2
    43ce:	80148493          	addi	s1,s1,-2047
    43d2:	10071263          	bnez	a4,44d6 <__divdf3+0x1bc>
    43d6:	00246413          	ori	s0,s0,2
    43da:	4881                	li	a7,0
    43dc:	4589                	li	a1,2
    43de:	bfc1                	j	43ae <__divdf3+0x94>
    43e0:	7ff00613          	li	a2,2047
    43e4:	4781                	li	a5,0
    43e6:	4701                	li	a4,0
    43e8:	07b2                	slli	a5,a5,0xc
    43ea:	50f2                	lw	ra,60(sp)
    43ec:	5462                	lw	s0,56(sp)
    43ee:	0652                	slli	a2,a2,0x14
    43f0:	83b1                	srli	a5,a5,0xc
    43f2:	087e                	slli	a6,a6,0x1f
    43f4:	8fd1                	or	a5,a5,a2
    43f6:	0107e7b3          	or	a5,a5,a6
    43fa:	54d2                	lw	s1,52(sp)
    43fc:	5942                	lw	s2,48(sp)
    43fe:	59b2                	lw	s3,44(sp)
    4400:	5a22                	lw	s4,40(sp)
    4402:	5a92                	lw	s5,36(sp)
    4404:	5b02                	lw	s6,32(sp)
    4406:	4bf2                	lw	s7,28(sp)
    4408:	853a                	mv	a0,a4
    440a:	85be                	mv	a1,a5
    440c:	6121                	addi	sp,sp,64
    440e:	8082                	ret
    4410:	4801                	li	a6,0
    4412:	7ff00613          	li	a2,2047
    4416:	000807b7          	lui	a5,0x80
    441a:	4701                	li	a4,0
    441c:	b7f1                	j	43e8 <__divdf3+0xce>
    441e:	00c96733          	or	a4,s2,a2
    4422:	c74d                	beqz	a4,44cc <__divdf3+0x1b2>
    4424:	30090863          	beqz	s2,4734 <__divdf3+0x41a>
    4428:	854a                	mv	a0,s2
    442a:	c432                	sw	a2,8(sp)
    442c:	28c010ef          	jal	ra,56b8 <__clzsi2>
    4430:	4622                	lw	a2,8(sp)
    4432:	ff550713          	addi	a4,a0,-11
    4436:	47f5                	li	a5,29
    4438:	ff850693          	addi	a3,a0,-8
    443c:	8f99                	sub	a5,a5,a4
    443e:	00d91933          	sll	s2,s2,a3
    4442:	00f657b3          	srl	a5,a2,a5
    4446:	0127e733          	or	a4,a5,s2
    444a:	00d618b3          	sll	a7,a2,a3
    444e:	9526                	add	a0,a0,s1
    4450:	3f350493          	addi	s1,a0,1011
    4454:	4581                	li	a1,0
    4456:	bfa1                	j	43ae <__divdf3+0x94>
    4458:	01246a33          	or	s4,s0,s2
    445c:	060a0363          	beqz	s4,44c2 <__divdf3+0x1a8>
    4460:	c636                	sw	a3,12(sp)
    4462:	c432                	sw	a2,8(sp)
    4464:	2a040663          	beqz	s0,4710 <__divdf3+0x3f6>
    4468:	8522                	mv	a0,s0
    446a:	24e010ef          	jal	ra,56b8 <__clzsi2>
    446e:	4622                	lw	a2,8(sp)
    4470:	46b2                	lw	a3,12(sp)
    4472:	84aa                	mv	s1,a0
    4474:	ff550713          	addi	a4,a0,-11
    4478:	4a75                	li	s4,29
    447a:	ff848b13          	addi	s6,s1,-8
    447e:	40ea0a33          	sub	s4,s4,a4
    4482:	01641433          	sll	s0,s0,s6
    4486:	01495a33          	srl	s4,s2,s4
    448a:	008a6a33          	or	s4,s4,s0
    448e:	01691b33          	sll	s6,s2,s6
    4492:	c0d00513          	li	a0,-1011
    4496:	409504b3          	sub	s1,a0,s1
    449a:	4401                	li	s0,0
    449c:	4b81                	li	s7,0
    449e:	b5f9                	j	436c <__divdf3+0x52>
    44a0:	01246a33          	or	s4,s0,s2
    44a4:	000a1863          	bnez	s4,44b4 <__divdf3+0x19a>
    44a8:	4421                	li	s0,8
    44aa:	4b01                	li	s6,0
    44ac:	7ff00493          	li	s1,2047
    44b0:	4b89                	li	s7,2
    44b2:	bd6d                	j	436c <__divdf3+0x52>
    44b4:	8a22                	mv	s4,s0
    44b6:	8b4a                	mv	s6,s2
    44b8:	4431                	li	s0,12
    44ba:	7ff00493          	li	s1,2047
    44be:	4b8d                	li	s7,3
    44c0:	b575                	j	436c <__divdf3+0x52>
    44c2:	4411                	li	s0,4
    44c4:	4b01                	li	s6,0
    44c6:	4481                	li	s1,0
    44c8:	4b85                	li	s7,1
    44ca:	b54d                	j	436c <__divdf3+0x52>
    44cc:	00146413          	ori	s0,s0,1
    44d0:	4881                	li	a7,0
    44d2:	4585                	li	a1,1
    44d4:	bde9                	j	43ae <__divdf3+0x94>
    44d6:	00346413          	ori	s0,s0,3
    44da:	874a                	mv	a4,s2
    44dc:	458d                	li	a1,3
    44de:	bdc1                	j	43ae <__divdf3+0x94>
    44e0:	2e050a63          	beqz	a0,47d4 <__divdf3+0x4ba>
    44e4:	4785                	li	a5,1
    44e6:	8f89                	sub	a5,a5,a0
    44e8:	03800693          	li	a3,56
    44ec:	32f6dd63          	bge	a3,a5,4826 <__divdf3+0x50c>
    44f0:	4601                	li	a2,0
    44f2:	4781                	li	a5,0
    44f4:	4701                	li	a4,0
    44f6:	bdcd                	j	43e8 <__divdf3+0xce>
    44f8:	86ce                	mv	a3,s3
    44fa:	4789                	li	a5,2
    44fc:	3af58d63          	beq	a1,a5,48b6 <__divdf3+0x59c>
    4500:	478d                	li	a5,3
    4502:	f0f587e3          	beq	a1,a5,4410 <__divdf3+0xf6>
    4506:	4785                	li	a5,1
    4508:	8836                	mv	a6,a3
    450a:	fef583e3          	beq	a1,a5,44f0 <__divdf3+0x1d6>
    450e:	3ff48513          	addi	a0,s1,1023
    4512:	fca057e3          	blez	a0,44e0 <__divdf3+0x1c6>
    4516:	0078f793          	andi	a5,a7,7
    451a:	28079663          	bnez	a5,47a6 <__divdf3+0x48c>
    451e:	0038d693          	srli	a3,a7,0x3
    4522:	00771793          	slli	a5,a4,0x7
    4526:	0007d863          	bgez	a5,4536 <__divdf3+0x21c>
    452a:	ff0007b7          	lui	a5,0xff000
    452e:	17fd                	addi	a5,a5,-1
    4530:	8f7d                	and	a4,a4,a5
    4532:	40048513          	addi	a0,s1,1024
    4536:	7fe00793          	li	a5,2046
    453a:	eaa7c3e3          	blt	a5,a0,43e0 <__divdf3+0xc6>
    453e:	01d71613          	slli	a2,a4,0x1d
    4542:	00971793          	slli	a5,a4,0x9
    4546:	83b1                	srli	a5,a5,0xc
    4548:	00d66733          	or	a4,a2,a3
    454c:	7ff57613          	andi	a2,a0,2047
    4550:	bd61                	j	43e8 <__divdf3+0xce>
    4552:	86d6                	mv	a3,s5
    4554:	8752                	mv	a4,s4
    4556:	88da                	mv	a7,s6
    4558:	85de                	mv	a1,s7
    455a:	b745                	j	44fa <__divdf3+0x1e0>
    455c:	23476163          	bltu	a4,s4,477e <__divdf3+0x464>
    4560:	20ea0d63          	beq	s4,a4,477a <__divdf3+0x460>
    4564:	86da                	mv	a3,s6
    4566:	14fd                	addi	s1,s1,-1
    4568:	8452                	mv	s0,s4
    456a:	4b01                	li	s6,0
    456c:	00871793          	slli	a5,a4,0x8
    4570:	0188d313          	srli	t1,a7,0x18
    4574:	00f36333          	or	t1,t1,a5
    4578:	01035e93          	srli	t4,t1,0x10
    457c:	03d457b3          	divu	a5,s0,t4
    4580:	01031f13          	slli	t5,t1,0x10
    4584:	010f5f13          	srli	t5,t5,0x10
    4588:	0106d593          	srli	a1,a3,0x10
    458c:	00889e13          	slli	t3,a7,0x8
    4590:	03d47433          	remu	s0,s0,t4
    4594:	02ff0733          	mul	a4,t5,a5
    4598:	0442                	slli	s0,s0,0x10
    459a:	8dc1                	or	a1,a1,s0
    459c:	00e5fb63          	bgeu	a1,a4,45b2 <__divdf3+0x298>
    45a0:	959a                	add	a1,a1,t1
    45a2:	fff78613          	addi	a2,a5,-1 # feffffff <_eusrstack+0xdefeffff>
    45a6:	2665ee63          	bltu	a1,t1,4822 <__divdf3+0x508>
    45aa:	26e5fc63          	bgeu	a1,a4,4822 <__divdf3+0x508>
    45ae:	17f9                	addi	a5,a5,-2
    45b0:	959a                	add	a1,a1,t1
    45b2:	8d99                	sub	a1,a1,a4
    45b4:	03d5d733          	divu	a4,a1,t4
    45b8:	06c2                	slli	a3,a3,0x10
    45ba:	82c1                	srli	a3,a3,0x10
    45bc:	03d5f5b3          	remu	a1,a1,t4
    45c0:	02ef0633          	mul	a2,t5,a4
    45c4:	05c2                	slli	a1,a1,0x10
    45c6:	8dd5                	or	a1,a1,a3
    45c8:	00c5fb63          	bgeu	a1,a2,45de <__divdf3+0x2c4>
    45cc:	959a                	add	a1,a1,t1
    45ce:	fff70693          	addi	a3,a4,-1 # 7fffff <_data_lma+0x7f713b>
    45d2:	2465e663          	bltu	a1,t1,481e <__divdf3+0x504>
    45d6:	24c5f463          	bgeu	a1,a2,481e <__divdf3+0x504>
    45da:	1779                	addi	a4,a4,-2
    45dc:	959a                	add	a1,a1,t1
    45de:	07c2                	slli	a5,a5,0x10
    45e0:	6441                	lui	s0,0x10
    45e2:	8f5d                	or	a4,a4,a5
    45e4:	fff40793          	addi	a5,s0,-1 # ffff <_data_lma+0x713b>
    45e8:	00f77533          	and	a0,a4,a5
    45ec:	01075893          	srli	a7,a4,0x10
    45f0:	010e5f93          	srli	t6,t3,0x10
    45f4:	00fe77b3          	and	a5,t3,a5
    45f8:	02f502b3          	mul	t0,a0,a5
    45fc:	40c586b3          	sub	a3,a1,a2
    4600:	02f883b3          	mul	t2,a7,a5
    4604:	0102d593          	srli	a1,t0,0x10
    4608:	02af8633          	mul	a2,t6,a0
    460c:	961e                	add	a2,a2,t2
    460e:	962e                	add	a2,a2,a1
    4610:	03f88533          	mul	a0,a7,t6
    4614:	00767363          	bgeu	a2,t2,461a <__divdf3+0x300>
    4618:	9522                	add	a0,a0,s0
    461a:	68c1                	lui	a7,0x10
    461c:	18fd                	addi	a7,a7,-1
    461e:	01065593          	srli	a1,a2,0x10
    4622:	01167633          	and	a2,a2,a7
    4626:	0642                	slli	a2,a2,0x10
    4628:	0112f8b3          	and	a7,t0,a7
    462c:	95aa                	add	a1,a1,a0
    462e:	9646                	add	a2,a2,a7
    4630:	12b6e663          	bltu	a3,a1,475c <__divdf3+0x442>
    4634:	12b68263          	beq	a3,a1,4758 <__divdf3+0x43e>
    4638:	40cb0633          	sub	a2,s6,a2
    463c:	8e8d                	sub	a3,a3,a1
    463e:	00cb3b33          	sltu	s6,s6,a2
    4642:	41668b33          	sub	s6,a3,s6
    4646:	3ff48513          	addi	a0,s1,1023
    464a:	17630c63          	beq	t1,s6,47c2 <__divdf3+0x4a8>
    464e:	03db58b3          	divu	a7,s6,t4
    4652:	01065593          	srli	a1,a2,0x10
    4656:	03db7b33          	remu	s6,s6,t4
    465a:	031f06b3          	mul	a3,t5,a7
    465e:	0b42                	slli	s6,s6,0x10
    4660:	0165eb33          	or	s6,a1,s6
    4664:	00db7b63          	bgeu	s6,a3,467a <__divdf3+0x360>
    4668:	9b1a                	add	s6,s6,t1
    466a:	fff88593          	addi	a1,a7,-1 # ffff <_data_lma+0x713b>
    466e:	206b6d63          	bltu	s6,t1,4888 <__divdf3+0x56e>
    4672:	20db7b63          	bgeu	s6,a3,4888 <__divdf3+0x56e>
    4676:	18f9                	addi	a7,a7,-2
    4678:	9b1a                	add	s6,s6,t1
    467a:	40db0b33          	sub	s6,s6,a3
    467e:	03db56b3          	divu	a3,s6,t4
    4682:	0642                	slli	a2,a2,0x10
    4684:	8241                	srli	a2,a2,0x10
    4686:	03db7b33          	remu	s6,s6,t4
    468a:	02df0f33          	mul	t5,t5,a3
    468e:	0b42                	slli	s6,s6,0x10
    4690:	01666633          	or	a2,a2,s6
    4694:	01e67b63          	bgeu	a2,t5,46aa <__divdf3+0x390>
    4698:	961a                	add	a2,a2,t1
    469a:	fff68593          	addi	a1,a3,-1 # 7fffff <_data_lma+0x7f713b>
    469e:	1e666763          	bltu	a2,t1,488c <__divdf3+0x572>
    46a2:	1fe67563          	bgeu	a2,t5,488c <__divdf3+0x572>
    46a6:	16f9                	addi	a3,a3,-2
    46a8:	961a                	add	a2,a2,t1
    46aa:	08c2                	slli	a7,a7,0x10
    46ac:	00d8e8b3          	or	a7,a7,a3
    46b0:	01089593          	slli	a1,a7,0x10
    46b4:	0108d293          	srli	t0,a7,0x10
    46b8:	81c1                	srli	a1,a1,0x10
    46ba:	02f58eb3          	mul	t4,a1,a5
    46be:	41e60633          	sub	a2,a2,t5
    46c2:	02bf85b3          	mul	a1,t6,a1
    46c6:	010ed693          	srli	a3,t4,0x10
    46ca:	02f287b3          	mul	a5,t0,a5
    46ce:	95be                	add	a1,a1,a5
    46d0:	96ae                	add	a3,a3,a1
    46d2:	025f8fb3          	mul	t6,t6,t0
    46d6:	00f6f463          	bgeu	a3,a5,46de <__divdf3+0x3c4>
    46da:	67c1                	lui	a5,0x10
    46dc:	9fbe                	add	t6,t6,a5
    46de:	65c1                	lui	a1,0x10
    46e0:	15fd                	addi	a1,a1,-1
    46e2:	0106d793          	srli	a5,a3,0x10
    46e6:	8eed                	and	a3,a3,a1
    46e8:	06c2                	slli	a3,a3,0x10
    46ea:	00befeb3          	and	t4,t4,a1
    46ee:	9fbe                	add	t6,t6,a5
    46f0:	96f6                	add	a3,a3,t4
    46f2:	09f67f63          	bgeu	a2,t6,4790 <__divdf3+0x476>
    46f6:	961a                	add	a2,a2,t1
    46f8:	fff88793          	addi	a5,a7,-1
    46fc:	1a666963          	bltu	a2,t1,48ae <__divdf3+0x594>
    4700:	19f66863          	bltu	a2,t6,4890 <__divdf3+0x576>
    4704:	1bf60f63          	beq	a2,t6,48c2 <__divdf3+0x5a8>
    4708:	88be                	mv	a7,a5
    470a:	0018e893          	ori	a7,a7,1
    470e:	b511                	j	4512 <__divdf3+0x1f8>
    4710:	854a                	mv	a0,s2
    4712:	7a7000ef          	jal	ra,56b8 <__clzsi2>
    4716:	01550713          	addi	a4,a0,21
    471a:	45f1                	li	a1,28
    471c:	02050493          	addi	s1,a0,32
    4720:	4622                	lw	a2,8(sp)
    4722:	46b2                	lw	a3,12(sp)
    4724:	d4e5dae3          	bge	a1,a4,4478 <__divdf3+0x15e>
    4728:	ff850413          	addi	s0,a0,-8
    472c:	00891a33          	sll	s4,s2,s0
    4730:	4b01                	li	s6,0
    4732:	b385                	j	4492 <__divdf3+0x178>
    4734:	8532                	mv	a0,a2
    4736:	c432                	sw	a2,8(sp)
    4738:	781000ef          	jal	ra,56b8 <__clzsi2>
    473c:	01550713          	addi	a4,a0,21
    4740:	46f1                	li	a3,28
    4742:	87aa                	mv	a5,a0
    4744:	4622                	lw	a2,8(sp)
    4746:	02050513          	addi	a0,a0,32
    474a:	cee6d6e3          	bge	a3,a4,4436 <__divdf3+0x11c>
    474e:	17e1                	addi	a5,a5,-8
    4750:	00f61733          	sll	a4,a2,a5
    4754:	4881                	li	a7,0
    4756:	b9e5                	j	444e <__divdf3+0x134>
    4758:	eecb70e3          	bgeu	s6,a2,4638 <__divdf3+0x31e>
    475c:	9b72                	add	s6,s6,t3
    475e:	01cb3533          	sltu	a0,s6,t3
    4762:	951a                	add	a0,a0,t1
    4764:	96aa                	add	a3,a3,a0
    4766:	fff70513          	addi	a0,a4,-1
    476a:	02d37863          	bgeu	t1,a3,479a <__divdf3+0x480>
    476e:	10b6e663          	bltu	a3,a1,487a <__divdf3+0x560>
    4772:	10d58263          	beq	a1,a3,4876 <__divdf3+0x55c>
    4776:	872a                	mv	a4,a0
    4778:	b5c1                	j	4638 <__divdf3+0x31e>
    477a:	df1b65e3          	bltu	s6,a7,4564 <__divdf3+0x24a>
    477e:	001b5593          	srli	a1,s6,0x1
    4782:	01fa1693          	slli	a3,s4,0x1f
    4786:	001a5413          	srli	s0,s4,0x1
    478a:	8ecd                	or	a3,a3,a1
    478c:	0b7e                	slli	s6,s6,0x1f
    478e:	bbf9                	j	456c <__divdf3+0x252>
    4790:	f7f61de3          	bne	a2,t6,470a <__divdf3+0x3f0>
    4794:	d6068fe3          	beqz	a3,4512 <__divdf3+0x1f8>
    4798:	bfb9                	j	46f6 <__divdf3+0x3dc>
    479a:	fcd31ee3          	bne	t1,a3,4776 <__divdf3+0x45c>
    479e:	fdcb78e3          	bgeu	s6,t3,476e <__divdf3+0x454>
    47a2:	872a                	mv	a4,a0
    47a4:	bd51                	j	4638 <__divdf3+0x31e>
    47a6:	00f8f793          	andi	a5,a7,15
    47aa:	4691                	li	a3,4
    47ac:	d6d789e3          	beq	a5,a3,451e <__divdf3+0x204>
    47b0:	ffc8b793          	sltiu	a5,a7,-4
    47b4:	00488693          	addi	a3,a7,4
    47b8:	0017c793          	xori	a5,a5,1
    47bc:	828d                	srli	a3,a3,0x3
    47be:	973e                	add	a4,a4,a5
    47c0:	b38d                	j	4522 <__divdf3+0x208>
    47c2:	4681                	li	a3,0
    47c4:	4785                	li	a5,1
    47c6:	fea04ce3          	bgtz	a0,47be <__divdf3+0x4a4>
    47ca:	58fd                	li	a7,-1
    47cc:	d0051ce3          	bnez	a0,44e4 <__divdf3+0x1ca>
    47d0:	c0100493          	li	s1,-1023
    47d4:	4785                	li	a5,1
    47d6:	41e48513          	addi	a0,s1,1054
    47da:	00a716b3          	sll	a3,a4,a0
    47de:	00f8d633          	srl	a2,a7,a5
    47e2:	00a89533          	sll	a0,a7,a0
    47e6:	8ed1                	or	a3,a3,a2
    47e8:	00a03533          	snez	a0,a0
    47ec:	8ec9                	or	a3,a3,a0
    47ee:	0076f613          	andi	a2,a3,7
    47f2:	00f75733          	srl	a4,a4,a5
    47f6:	ce01                	beqz	a2,480e <__divdf3+0x4f4>
    47f8:	00f6f793          	andi	a5,a3,15
    47fc:	4611                	li	a2,4
    47fe:	00c78863          	beq	a5,a2,480e <__divdf3+0x4f4>
    4802:	00468793          	addi	a5,a3,4
    4806:	00d7b6b3          	sltu	a3,a5,a3
    480a:	9736                	add	a4,a4,a3
    480c:	86be                	mv	a3,a5
    480e:	00871793          	slli	a5,a4,0x8
    4812:	0407d863          	bgez	a5,4862 <__divdf3+0x548>
    4816:	4605                	li	a2,1
    4818:	4781                	li	a5,0
    481a:	4701                	li	a4,0
    481c:	b6f1                	j	43e8 <__divdf3+0xce>
    481e:	8736                	mv	a4,a3
    4820:	bb7d                	j	45de <__divdf3+0x2c4>
    4822:	87b2                	mv	a5,a2
    4824:	b379                	j	45b2 <__divdf3+0x298>
    4826:	46fd                	li	a3,31
    4828:	faf6d7e3          	bge	a3,a5,47d6 <__divdf3+0x4bc>
    482c:	5605                	li	a2,-31
    482e:	8e09                	sub	a2,a2,a0
    4830:	02000693          	li	a3,32
    4834:	00c75633          	srl	a2,a4,a2
    4838:	00d78863          	beq	a5,a3,4848 <__divdf3+0x52e>
    483c:	43e48793          	addi	a5,s1,1086
    4840:	00f717b3          	sll	a5,a4,a5
    4844:	00f8e8b3          	or	a7,a7,a5
    4848:	011036b3          	snez	a3,a7
    484c:	8ed1                	or	a3,a3,a2
    484e:	0076f613          	andi	a2,a3,7
    4852:	4781                	li	a5,0
    4854:	ce01                	beqz	a2,486c <__divdf3+0x552>
    4856:	00f6f793          	andi	a5,a3,15
    485a:	4611                	li	a2,4
    485c:	4701                	li	a4,0
    485e:	fac792e3          	bne	a5,a2,4802 <__divdf3+0x4e8>
    4862:	00971793          	slli	a5,a4,0x9
    4866:	01d71613          	slli	a2,a4,0x1d
    486a:	83b1                	srli	a5,a5,0xc
    486c:	0036d713          	srli	a4,a3,0x3
    4870:	8f51                	or	a4,a4,a2
    4872:	4601                	li	a2,0
    4874:	be95                	j	43e8 <__divdf3+0xce>
    4876:	f0cb70e3          	bgeu	s6,a2,4776 <__divdf3+0x45c>
    487a:	9b72                	add	s6,s6,t3
    487c:	01cb3533          	sltu	a0,s6,t3
    4880:	951a                	add	a0,a0,t1
    4882:	1779                	addi	a4,a4,-2
    4884:	96aa                	add	a3,a3,a0
    4886:	bb4d                	j	4638 <__divdf3+0x31e>
    4888:	88ae                	mv	a7,a1
    488a:	bbc5                	j	467a <__divdf3+0x360>
    488c:	86ae                	mv	a3,a1
    488e:	bd31                	j	46aa <__divdf3+0x390>
    4890:	001e1793          	slli	a5,t3,0x1
    4894:	01c7be33          	sltu	t3,a5,t3
    4898:	9372                	add	t1,t1,t3
    489a:	961a                	add	a2,a2,t1
    489c:	18f9                	addi	a7,a7,-2
    489e:	8e3e                	mv	t3,a5
    48a0:	e7f615e3          	bne	a2,t6,470a <__divdf3+0x3f0>
    48a4:	c6de07e3          	beq	t3,a3,4512 <__divdf3+0x1f8>
    48a8:	0018e893          	ori	a7,a7,1
    48ac:	b19d                	j	4512 <__divdf3+0x1f8>
    48ae:	88be                	mv	a7,a5
    48b0:	fff60ae3          	beq	a2,t6,48a4 <__divdf3+0x58a>
    48b4:	bd99                	j	470a <__divdf3+0x3f0>
    48b6:	8836                	mv	a6,a3
    48b8:	7ff00613          	li	a2,2047
    48bc:	4781                	li	a5,0
    48be:	4701                	li	a4,0
    48c0:	b625                	j	43e8 <__divdf3+0xce>
    48c2:	fcde67e3          	bltu	t3,a3,4890 <__divdf3+0x576>
    48c6:	88be                	mv	a7,a5
    48c8:	fede10e3          	bne	t3,a3,48a8 <__divdf3+0x58e>
    48cc:	b199                	j	4512 <__divdf3+0x1f8>

000048ce <__eqdf2>:
__eqdf2():
    48ce:	0145d713          	srli	a4,a1,0x14
    48d2:	001007b7          	lui	a5,0x100
    48d6:	17fd                	addi	a5,a5,-1
    48d8:	0146d813          	srli	a6,a3,0x14
    48dc:	7ff77713          	andi	a4,a4,2047
    48e0:	7ff00893          	li	a7,2047
    48e4:	00b7fe33          	and	t3,a5,a1
    48e8:	8eaa                	mv	t4,a0
    48ea:	8ff5                	and	a5,a5,a3
    48ec:	81fd                	srli	a1,a1,0x1f
    48ee:	8f32                	mv	t5,a2
    48f0:	7ff87813          	andi	a6,a6,2047
    48f4:	82fd                	srli	a3,a3,0x1f
    48f6:	01170b63          	beq	a4,a7,490c <__eqdf2+0x3e>
    48fa:	4305                	li	t1,1
    48fc:	01180663          	beq	a6,a7,4908 <__eqdf2+0x3a>
    4900:	01071463          	bne	a4,a6,4908 <__eqdf2+0x3a>
    4904:	00fe0d63          	beq	t3,a5,491e <__eqdf2+0x50>
    4908:	851a                	mv	a0,t1
    490a:	8082                	ret
    490c:	00ae68b3          	or	a7,t3,a0
    4910:	4305                	li	t1,1
    4912:	fe089be3          	bnez	a7,4908 <__eqdf2+0x3a>
    4916:	fee819e3          	bne	a6,a4,4908 <__eqdf2+0x3a>
    491a:	8fd1                	or	a5,a5,a2
    491c:	f7f5                	bnez	a5,4908 <__eqdf2+0x3a>
    491e:	4305                	li	t1,1
    4920:	ffee94e3          	bne	t4,t5,4908 <__eqdf2+0x3a>
    4924:	4301                	li	t1,0
    4926:	fed581e3          	beq	a1,a3,4908 <__eqdf2+0x3a>
    492a:	4305                	li	t1,1
    492c:	ff71                	bnez	a4,4908 <__eqdf2+0x3a>
    492e:	00ae6533          	or	a0,t3,a0
    4932:	00a03333          	snez	t1,a0
    4936:	bfc9                	j	4908 <__eqdf2+0x3a>

00004938 <__ledf2>:
__ltdf2():
    4938:	0145d713          	srli	a4,a1,0x14
    493c:	001007b7          	lui	a5,0x100
    4940:	17fd                	addi	a5,a5,-1
    4942:	0146d813          	srli	a6,a3,0x14
    4946:	7ff77713          	andi	a4,a4,2047
    494a:	7ff00893          	li	a7,2047
    494e:	00b7fe33          	and	t3,a5,a1
    4952:	8eaa                	mv	t4,a0
    4954:	8ff5                	and	a5,a5,a3
    4956:	81fd                	srli	a1,a1,0x1f
    4958:	8f32                	mv	t5,a2
    495a:	7ff87813          	andi	a6,a6,2047
    495e:	82fd                	srli	a3,a3,0x1f
    4960:	03170e63          	beq	a4,a7,499c <__ledf2+0x64>
    4964:	01180d63          	beq	a6,a7,497e <__ledf2+0x46>
    4968:	e329                	bnez	a4,49aa <__ledf2+0x72>
    496a:	00ae68b3          	or	a7,t3,a0
    496e:	00081f63          	bnez	a6,498c <__ledf2+0x54>
    4972:	8e5d                	or	a2,a2,a5
    4974:	ee01                	bnez	a2,498c <__ledf2+0x54>
    4976:	4301                	li	t1,0
    4978:	04088c63          	beqz	a7,49d0 <__ledf2+0x98>
    497c:	a821                	j	4994 <__ledf2+0x5c>
    497e:	00c7e8b3          	or	a7,a5,a2
    4982:	4309                	li	t1,2
    4984:	04089663          	bnez	a7,49d0 <__ledf2+0x98>
    4988:	d36d                	beqz	a4,496a <__ledf2+0x32>
    498a:	a005                	j	49aa <__ledf2+0x72>
    498c:	04088463          	beqz	a7,49d4 <__ledf2+0x9c>
    4990:	02d58563          	beq	a1,a3,49ba <__ledf2+0x82>
    4994:	4305                	li	t1,1
    4996:	cd8d                	beqz	a1,49d0 <__ledf2+0x98>
    4998:	537d                	li	t1,-1
    499a:	a81d                	j	49d0 <__ledf2+0x98>
    499c:	00ae68b3          	or	a7,t3,a0
    49a0:	4309                	li	t1,2
    49a2:	02089763          	bnez	a7,49d0 <__ledf2+0x98>
    49a6:	02e80a63          	beq	a6,a4,49da <__ledf2+0xa2>
    49aa:	00081463          	bnez	a6,49b2 <__ledf2+0x7a>
    49ae:	8e5d                	or	a2,a2,a5
    49b0:	d275                	beqz	a2,4994 <__ledf2+0x5c>
    49b2:	fed591e3          	bne	a1,a3,4994 <__ledf2+0x5c>
    49b6:	fce84fe3          	blt	a6,a4,4994 <__ledf2+0x5c>
    49ba:	01074963          	blt	a4,a6,49cc <__ledf2+0x94>
    49be:	fdc7ebe3          	bltu	a5,t3,4994 <__ledf2+0x5c>
    49c2:	00fe0f63          	beq	t3,a5,49e0 <__ledf2+0xa8>
    49c6:	4301                	li	t1,0
    49c8:	00fe7463          	bgeu	t3,a5,49d0 <__ledf2+0x98>
    49cc:	d5f1                	beqz	a1,4998 <__ledf2+0x60>
    49ce:	4305                	li	t1,1
    49d0:	851a                	mv	a0,t1
    49d2:	8082                	ret
    49d4:	feed                	bnez	a3,49ce <__ledf2+0x96>
    49d6:	537d                	li	t1,-1
    49d8:	bfe5                	j	49d0 <__ledf2+0x98>
    49da:	8e5d                	or	a2,a2,a5
    49dc:	da79                	beqz	a2,49b2 <__ledf2+0x7a>
    49de:	bfcd                	j	49d0 <__ledf2+0x98>
    49e0:	fbdf6ae3          	bltu	t5,t4,4994 <__ledf2+0x5c>
    49e4:	4301                	li	t1,0
    49e6:	ffeef5e3          	bgeu	t4,t5,49d0 <__ledf2+0x98>
    49ea:	f1f5                	bnez	a1,49ce <__ledf2+0x96>
    49ec:	b775                	j	4998 <__ledf2+0x60>

000049ee <__muldf3>:
__muldf3():
    49ee:	7139                	addi	sp,sp,-64
    49f0:	d84a                	sw	s2,48(sp)
    49f2:	0145d913          	srli	s2,a1,0x14
    49f6:	d64e                	sw	s3,44(sp)
    49f8:	d452                	sw	s4,40(sp)
    49fa:	d256                	sw	s5,36(sp)
    49fc:	00c59993          	slli	s3,a1,0xc
    4a00:	de06                	sw	ra,60(sp)
    4a02:	dc22                	sw	s0,56(sp)
    4a04:	da26                	sw	s1,52(sp)
    4a06:	d05a                	sw	s6,32(sp)
    4a08:	ce5e                	sw	s7,28(sp)
    4a0a:	7ff97913          	andi	s2,s2,2047
    4a0e:	8a2a                	mv	s4,a0
    4a10:	00c9d993          	srli	s3,s3,0xc
    4a14:	01f5da93          	srli	s5,a1,0x1f
    4a18:	0e090d63          	beqz	s2,4b12 <__muldf3+0x124>
    4a1c:	7ff00793          	li	a5,2047
    4a20:	18f90663          	beq	s2,a5,4bac <__muldf3+0x1be>
    4a24:	01d55413          	srli	s0,a0,0x1d
    4a28:	098e                	slli	s3,s3,0x3
    4a2a:	013469b3          	or	s3,s0,s3
    4a2e:	00800437          	lui	s0,0x800
    4a32:	0089e433          	or	s0,s3,s0
    4a36:	00351493          	slli	s1,a0,0x3
    4a3a:	c0190913          	addi	s2,s2,-1023
    4a3e:	4981                	li	s3,0
    4a40:	4b81                	li	s7,0
    4a42:	0146d713          	srli	a4,a3,0x14
    4a46:	00c69a13          	slli	s4,a3,0xc
    4a4a:	7ff77713          	andi	a4,a4,2047
    4a4e:	85b2                	mv	a1,a2
    4a50:	00ca5a13          	srli	s4,s4,0xc
    4a54:	01f6db13          	srli	s6,a3,0x1f
    4a58:	10070b63          	beqz	a4,4b6e <__muldf3+0x180>
    4a5c:	7ff00793          	li	a5,2047
    4a60:	04f70363          	beq	a4,a5,4aa6 <__muldf3+0xb8>
    4a64:	01d65793          	srli	a5,a2,0x1d
    4a68:	0a0e                	slli	s4,s4,0x3
    4a6a:	0147ea33          	or	s4,a5,s4
    4a6e:	c0170713          	addi	a4,a4,-1023
    4a72:	008007b7          	lui	a5,0x800
    4a76:	00fa67b3          	or	a5,s4,a5
    4a7a:	00361593          	slli	a1,a2,0x3
    4a7e:	993a                	add	s2,s2,a4
    4a80:	4881                	li	a7,0
    4a82:	016ac733          	xor	a4,s5,s6
    4a86:	46bd                	li	a3,15
    4a88:	853a                	mv	a0,a4
    4a8a:	00190813          	addi	a6,s2,1
    4a8e:	1736e863          	bltu	a3,s3,4bfe <__muldf3+0x210>
    4a92:	00004617          	auipc	a2,0x4
    4a96:	fca60613          	addi	a2,a2,-54 # 8a5c <MyUSBQUADescHD+0x108>
    4a9a:	098a                	slli	s3,s3,0x2
    4a9c:	99b2                	add	s3,s3,a2
    4a9e:	0009a683          	lw	a3,0(s3)
    4aa2:	96b2                	add	a3,a3,a2
    4aa4:	8682                	jr	a3
    4aa6:	00ca67b3          	or	a5,s4,a2
    4aaa:	7ff90913          	addi	s2,s2,2047
    4aae:	12079963          	bnez	a5,4be0 <__muldf3+0x1f2>
    4ab2:	0029e993          	ori	s3,s3,2
    4ab6:	4581                	li	a1,0
    4ab8:	4889                	li	a7,2
    4aba:	b7e1                	j	4a82 <__muldf3+0x94>
    4abc:	4701                	li	a4,0
    4abe:	7ff00793          	li	a5,2047
    4ac2:	00080437          	lui	s0,0x80
    4ac6:	4481                	li	s1,0
    4ac8:	0432                	slli	s0,s0,0xc
    4aca:	07d2                	slli	a5,a5,0x14
    4acc:	8031                	srli	s0,s0,0xc
    4ace:	077e                	slli	a4,a4,0x1f
    4ad0:	8c5d                	or	s0,s0,a5
    4ad2:	8c59                	or	s0,s0,a4
    4ad4:	85a2                	mv	a1,s0
    4ad6:	50f2                	lw	ra,60(sp)
    4ad8:	5462                	lw	s0,56(sp)
    4ada:	8526                	mv	a0,s1
    4adc:	5942                	lw	s2,48(sp)
    4ade:	54d2                	lw	s1,52(sp)
    4ae0:	59b2                	lw	s3,44(sp)
    4ae2:	5a22                	lw	s4,40(sp)
    4ae4:	5a92                	lw	s5,36(sp)
    4ae6:	5b02                	lw	s6,32(sp)
    4ae8:	4bf2                	lw	s7,28(sp)
    4aea:	6121                	addi	sp,sp,64
    4aec:	8082                	ret
    4aee:	855a                	mv	a0,s6
    4af0:	843e                	mv	s0,a5
    4af2:	84ae                	mv	s1,a1
    4af4:	8bc6                	mv	s7,a7
    4af6:	4789                	li	a5,2
    4af8:	0efb8d63          	beq	s7,a5,4bf2 <__muldf3+0x204>
    4afc:	478d                	li	a5,3
    4afe:	fafb8fe3          	beq	s7,a5,4abc <__muldf3+0xce>
    4b02:	4785                	li	a5,1
    4b04:	872a                	mv	a4,a0
    4b06:	38fb9e63          	bne	s7,a5,4ea2 <__muldf3+0x4b4>
    4b0a:	4781                	li	a5,0
    4b0c:	4401                	li	s0,0
    4b0e:	4481                	li	s1,0
    4b10:	bf65                	j	4ac8 <__muldf3+0xda>
    4b12:	00a9e433          	or	s0,s3,a0
    4b16:	c061                	beqz	s0,4bd6 <__muldf3+0x1e8>
    4b18:	c636                	sw	a3,12(sp)
    4b1a:	c432                	sw	a2,8(sp)
    4b1c:	2a098c63          	beqz	s3,4dd4 <__muldf3+0x3e6>
    4b20:	854e                	mv	a0,s3
    4b22:	397000ef          	jal	ra,56b8 <__clzsi2>
    4b26:	4622                	lw	a2,8(sp)
    4b28:	46b2                	lw	a3,12(sp)
    4b2a:	87aa                	mv	a5,a0
    4b2c:	ff550713          	addi	a4,a0,-11
    4b30:	4475                	li	s0,29
    4b32:	ff878493          	addi	s1,a5,-8 # 7ffff8 <_data_lma+0x7f7134>
    4b36:	8c19                	sub	s0,s0,a4
    4b38:	009999b3          	sll	s3,s3,s1
    4b3c:	008a5433          	srl	s0,s4,s0
    4b40:	01346433          	or	s0,s0,s3
    4b44:	009a14b3          	sll	s1,s4,s1
    4b48:	0146d713          	srli	a4,a3,0x14
    4b4c:	c0d00913          	li	s2,-1011
    4b50:	00c69a13          	slli	s4,a3,0xc
    4b54:	7ff77713          	andi	a4,a4,2047
    4b58:	40f90933          	sub	s2,s2,a5
    4b5c:	4981                	li	s3,0
    4b5e:	4b81                	li	s7,0
    4b60:	85b2                	mv	a1,a2
    4b62:	00ca5a13          	srli	s4,s4,0xc
    4b66:	01f6db13          	srli	s6,a3,0x1f
    4b6a:	ee0719e3          	bnez	a4,4a5c <__muldf3+0x6e>
    4b6e:	00ca67b3          	or	a5,s4,a2
    4b72:	c7b1                	beqz	a5,4bbe <__muldf3+0x1d0>
    4b74:	220a0f63          	beqz	s4,4db2 <__muldf3+0x3c4>
    4b78:	8552                	mv	a0,s4
    4b7a:	c432                	sw	a2,8(sp)
    4b7c:	33d000ef          	jal	ra,56b8 <__clzsi2>
    4b80:	4622                	lw	a2,8(sp)
    4b82:	872a                	mv	a4,a0
    4b84:	ff550693          	addi	a3,a0,-11
    4b88:	47f5                	li	a5,29
    4b8a:	ff870593          	addi	a1,a4,-8
    4b8e:	8f95                	sub	a5,a5,a3
    4b90:	00ba1a33          	sll	s4,s4,a1
    4b94:	00f657b3          	srl	a5,a2,a5
    4b98:	0147e7b3          	or	a5,a5,s4
    4b9c:	00b615b3          	sll	a1,a2,a1
    4ba0:	40e90933          	sub	s2,s2,a4
    4ba4:	c0d90913          	addi	s2,s2,-1011
    4ba8:	4881                	li	a7,0
    4baa:	bde1                	j	4a82 <__muldf3+0x94>
    4bac:	00a9e433          	or	s0,s3,a0
    4bb0:	ec01                	bnez	s0,4bc8 <__muldf3+0x1da>
    4bb2:	49a1                	li	s3,8
    4bb4:	4481                	li	s1,0
    4bb6:	7ff00913          	li	s2,2047
    4bba:	4b89                	li	s7,2
    4bbc:	b559                	j	4a42 <__muldf3+0x54>
    4bbe:	0019e993          	ori	s3,s3,1
    4bc2:	4581                	li	a1,0
    4bc4:	4885                	li	a7,1
    4bc6:	bd75                	j	4a82 <__muldf3+0x94>
    4bc8:	844e                	mv	s0,s3
    4bca:	84aa                	mv	s1,a0
    4bcc:	49b1                	li	s3,12
    4bce:	7ff00913          	li	s2,2047
    4bd2:	4b8d                	li	s7,3
    4bd4:	b5bd                	j	4a42 <__muldf3+0x54>
    4bd6:	4991                	li	s3,4
    4bd8:	4481                	li	s1,0
    4bda:	4901                	li	s2,0
    4bdc:	4b85                	li	s7,1
    4bde:	b595                	j	4a42 <__muldf3+0x54>
    4be0:	0039e993          	ori	s3,s3,3
    4be4:	87d2                	mv	a5,s4
    4be6:	488d                	li	a7,3
    4be8:	bd69                	j	4a82 <__muldf3+0x94>
    4bea:	4789                	li	a5,2
    4bec:	8556                	mv	a0,s5
    4bee:	f0fb97e3          	bne	s7,a5,4afc <__muldf3+0x10e>
    4bf2:	872a                	mv	a4,a0
    4bf4:	7ff00793          	li	a5,2047
    4bf8:	4401                	li	s0,0
    4bfa:	4481                	li	s1,0
    4bfc:	b5f1                	j	4ac8 <__muldf3+0xda>
    4bfe:	6ec1                	lui	t4,0x10
    4c00:	fffe8613          	addi	a2,t4,-1 # ffff <_data_lma+0x713b>
    4c04:	0104d693          	srli	a3,s1,0x10
    4c08:	0105de13          	srli	t3,a1,0x10
    4c0c:	8cf1                	and	s1,s1,a2
    4c0e:	8df1                	and	a1,a1,a2
    4c10:	02958633          	mul	a2,a1,s1
    4c14:	02b68333          	mul	t1,a3,a1
    4c18:	01065893          	srli	a7,a2,0x10
    4c1c:	029e0533          	mul	a0,t3,s1
    4c20:	951a                	add	a0,a0,t1
    4c22:	98aa                	add	a7,a7,a0
    4c24:	03c682b3          	mul	t0,a3,t3
    4c28:	0068f363          	bgeu	a7,t1,4c2e <__muldf3+0x240>
    4c2c:	92f6                	add	t0,t0,t4
    4c2e:	6fc1                	lui	t6,0x10
    4c30:	ffff8313          	addi	t1,t6,-1 # ffff <_data_lma+0x713b>
    4c34:	0067f533          	and	a0,a5,t1
    4c38:	0107d393          	srli	t2,a5,0x10
    4c3c:	0068f7b3          	and	a5,a7,t1
    4c40:	07c2                	slli	a5,a5,0x10
    4c42:	00667333          	and	t1,a2,t1
    4c46:	933e                	add	t1,t1,a5
    4c48:	02950633          	mul	a2,a0,s1
    4c4c:	0108d893          	srli	a7,a7,0x10
    4c50:	02a687b3          	mul	a5,a3,a0
    4c54:	01065f13          	srli	t5,a2,0x10
    4c58:	029384b3          	mul	s1,t2,s1
    4c5c:	94be                	add	s1,s1,a5
    4c5e:	94fa                	add	s1,s1,t5
    4c60:	02768eb3          	mul	t4,a3,t2
    4c64:	00f4f363          	bgeu	s1,a5,4c6a <__muldf3+0x27c>
    4c68:	9efe                	add	t4,t4,t6
    4c6a:	6a41                	lui	s4,0x10
    4c6c:	fffa0793          	addi	a5,s4,-1 # ffff <_data_lma+0x713b>
    4c70:	01045f93          	srli	t6,s0,0x10
    4c74:	00f476b3          	and	a3,s0,a5
    4c78:	00f4f9b3          	and	s3,s1,a5
    4c7c:	8e7d                	and	a2,a2,a5
    4c7e:	80c1                	srli	s1,s1,0x10
    4c80:	02d58433          	mul	s0,a1,a3
    4c84:	09c2                	slli	s3,s3,0x10
    4c86:	01d48f33          	add	t5,s1,t4
    4c8a:	99b2                	add	s3,s3,a2
    4c8c:	98ce                	add	a7,a7,s3
    4c8e:	02de07b3          	mul	a5,t3,a3
    4c92:	01045e93          	srli	t4,s0,0x10
    4c96:	02bf85b3          	mul	a1,t6,a1
    4c9a:	97ae                	add	a5,a5,a1
    4c9c:	9ebe                	add	t4,t4,a5
    4c9e:	03fe0e33          	mul	t3,t3,t6
    4ca2:	00bef363          	bgeu	t4,a1,4ca8 <__muldf3+0x2ba>
    4ca6:	9e52                	add	t3,t3,s4
    4ca8:	67c1                	lui	a5,0x10
    4caa:	fff78593          	addi	a1,a5,-1 # ffff <_data_lma+0x713b>
    4cae:	00bef633          	and	a2,t4,a1
    4cb2:	8c6d                	and	s0,s0,a1
    4cb4:	0642                	slli	a2,a2,0x10
    4cb6:	9622                	add	a2,a2,s0
    4cb8:	010ede93          	srli	t4,t4,0x10
    4cbc:	02d505b3          	mul	a1,a0,a3
    4cc0:	9e76                	add	t3,t3,t4
    4cc2:	02af8533          	mul	a0,t6,a0
    4cc6:	0105d413          	srli	s0,a1,0x10
    4cca:	02d386b3          	mul	a3,t2,a3
    4cce:	96aa                	add	a3,a3,a0
    4cd0:	96a2                	add	a3,a3,s0
    4cd2:	03f38fb3          	mul	t6,t2,t6
    4cd6:	00a6f363          	bgeu	a3,a0,4cdc <__muldf3+0x2ee>
    4cda:	9fbe                	add	t6,t6,a5
    4cdc:	6541                	lui	a0,0x10
    4cde:	157d                	addi	a0,a0,-1
    4ce0:	00a6f7b3          	and	a5,a3,a0
    4ce4:	07c2                	slli	a5,a5,0x10
    4ce6:	8d6d                	and	a0,a0,a1
    4ce8:	97aa                	add	a5,a5,a0
    4cea:	005885b3          	add	a1,a7,t0
    4cee:	0135b9b3          	sltu	s3,a1,s3
    4cf2:	97fa                	add	a5,a5,t5
    4cf4:	95b2                	add	a1,a1,a2
    4cf6:	01378433          	add	s0,a5,s3
    4cfa:	00c5b633          	sltu	a2,a1,a2
    4cfe:	01c40eb3          	add	t4,s0,t3
    4d02:	00ce8533          	add	a0,t4,a2
    4d06:	01343433          	sltu	s0,s0,s3
    4d0a:	01e7b7b3          	sltu	a5,a5,t5
    4d0e:	8fc1                	or	a5,a5,s0
    4d10:	01cebe33          	sltu	t3,t4,t3
    4d14:	0106d413          	srli	s0,a3,0x10
    4d18:	00c53633          	sltu	a2,a0,a2
    4d1c:	943e                	add	s0,s0,a5
    4d1e:	00ce6633          	or	a2,t3,a2
    4d22:	00959493          	slli	s1,a1,0x9
    4d26:	9432                	add	s0,s0,a2
    4d28:	947e                	add	s0,s0,t6
    4d2a:	0064e4b3          	or	s1,s1,t1
    4d2e:	0426                	slli	s0,s0,0x9
    4d30:	01755693          	srli	a3,a0,0x17
    4d34:	009034b3          	snez	s1,s1
    4d38:	81dd                	srli	a1,a1,0x17
    4d3a:	00951793          	slli	a5,a0,0x9
    4d3e:	8ccd                	or	s1,s1,a1
    4d40:	8c55                	or	s0,s0,a3
    4d42:	8cdd                	or	s1,s1,a5
    4d44:	00741793          	slli	a5,s0,0x7
    4d48:	0007db63          	bgez	a5,4d5e <__muldf3+0x370>
    4d4c:	0014d793          	srli	a5,s1,0x1
    4d50:	8885                	andi	s1,s1,1
    4d52:	01f41693          	slli	a3,s0,0x1f
    4d56:	8cdd                	or	s1,s1,a5
    4d58:	8cd5                	or	s1,s1,a3
    4d5a:	8005                	srli	s0,s0,0x1
    4d5c:	8942                	mv	s2,a6
    4d5e:	3ff90793          	addi	a5,s2,1023
    4d62:	08f05963          	blez	a5,4df4 <__muldf3+0x406>
    4d66:	0074f693          	andi	a3,s1,7
    4d6a:	ce81                	beqz	a3,4d82 <__muldf3+0x394>
    4d6c:	00f4f693          	andi	a3,s1,15
    4d70:	4611                	li	a2,4
    4d72:	00c68863          	beq	a3,a2,4d82 <__muldf3+0x394>
    4d76:	00448693          	addi	a3,s1,4
    4d7a:	0096b4b3          	sltu	s1,a3,s1
    4d7e:	9426                	add	s0,s0,s1
    4d80:	84b6                	mv	s1,a3
    4d82:	00741693          	slli	a3,s0,0x7
    4d86:	0006d863          	bgez	a3,4d96 <__muldf3+0x3a8>
    4d8a:	ff0007b7          	lui	a5,0xff000
    4d8e:	17fd                	addi	a5,a5,-1
    4d90:	8c7d                	and	s0,s0,a5
    4d92:	40090793          	addi	a5,s2,1024
    4d96:	7fe00693          	li	a3,2046
    4d9a:	0ef6cf63          	blt	a3,a5,4e98 <__muldf3+0x4aa>
    4d9e:	0034d693          	srli	a3,s1,0x3
    4da2:	01d41493          	slli	s1,s0,0x1d
    4da6:	0426                	slli	s0,s0,0x9
    4da8:	8cd5                	or	s1,s1,a3
    4daa:	8031                	srli	s0,s0,0xc
    4dac:	7ff7f793          	andi	a5,a5,2047
    4db0:	bb21                	j	4ac8 <__muldf3+0xda>
    4db2:	8532                	mv	a0,a2
    4db4:	c432                	sw	a2,8(sp)
    4db6:	103000ef          	jal	ra,56b8 <__clzsi2>
    4dba:	01550693          	addi	a3,a0,21 # 10015 <_data_lma+0x7151>
    4dbe:	47f1                	li	a5,28
    4dc0:	02050713          	addi	a4,a0,32
    4dc4:	4622                	lw	a2,8(sp)
    4dc6:	dcd7d1e3          	bge	a5,a3,4b88 <__muldf3+0x19a>
    4dca:	1561                	addi	a0,a0,-8
    4dcc:	00a617b3          	sll	a5,a2,a0
    4dd0:	4581                	li	a1,0
    4dd2:	b3f9                	j	4ba0 <__muldf3+0x1b2>
    4dd4:	0e5000ef          	jal	ra,56b8 <__clzsi2>
    4dd8:	01550713          	addi	a4,a0,21
    4ddc:	45f1                	li	a1,28
    4dde:	02050793          	addi	a5,a0,32
    4de2:	4622                	lw	a2,8(sp)
    4de4:	46b2                	lw	a3,12(sp)
    4de6:	d4e5d5e3          	bge	a1,a4,4b30 <__muldf3+0x142>
    4dea:	1561                	addi	a0,a0,-8
    4dec:	00aa1433          	sll	s0,s4,a0
    4df0:	4481                	li	s1,0
    4df2:	bb99                	j	4b48 <__muldf3+0x15a>
    4df4:	4685                	li	a3,1
    4df6:	8e9d                	sub	a3,a3,a5
    4df8:	e7b1                	bnez	a5,4e44 <__muldf3+0x456>
    4dfa:	41e90913          	addi	s2,s2,1054
    4dfe:	012497b3          	sll	a5,s1,s2
    4e02:	00d4d4b3          	srl	s1,s1,a3
    4e06:	01241933          	sll	s2,s0,s2
    4e0a:	00f037b3          	snez	a5,a5
    4e0e:	009964b3          	or	s1,s2,s1
    4e12:	8cdd                	or	s1,s1,a5
    4e14:	0074f793          	andi	a5,s1,7
    4e18:	00d456b3          	srl	a3,s0,a3
    4e1c:	cf81                	beqz	a5,4e34 <__muldf3+0x446>
    4e1e:	00f4f793          	andi	a5,s1,15
    4e22:	4611                	li	a2,4
    4e24:	00c78863          	beq	a5,a2,4e34 <__muldf3+0x446>
    4e28:	00448793          	addi	a5,s1,4
    4e2c:	0097b4b3          	sltu	s1,a5,s1
    4e30:	96a6                	add	a3,a3,s1
    4e32:	84be                	mv	s1,a5
    4e34:	00869793          	slli	a5,a3,0x8
    4e38:	0407d863          	bgez	a5,4e88 <__muldf3+0x49a>
    4e3c:	4785                	li	a5,1
    4e3e:	4401                	li	s0,0
    4e40:	4481                	li	s1,0
    4e42:	b159                	j	4ac8 <__muldf3+0xda>
    4e44:	03800613          	li	a2,56
    4e48:	ccd641e3          	blt	a2,a3,4b0a <__muldf3+0x11c>
    4e4c:	467d                	li	a2,31
    4e4e:	fad656e3          	bge	a2,a3,4dfa <__muldf3+0x40c>
    4e52:	5605                	li	a2,-31
    4e54:	40f607b3          	sub	a5,a2,a5
    4e58:	02000593          	li	a1,32
    4e5c:	00f45633          	srl	a2,s0,a5
    4e60:	00b68763          	beq	a3,a1,4e6e <__muldf3+0x480>
    4e64:	43e90913          	addi	s2,s2,1086
    4e68:	012417b3          	sll	a5,s0,s2
    4e6c:	8cdd                	or	s1,s1,a5
    4e6e:	009034b3          	snez	s1,s1
    4e72:	8cd1                	or	s1,s1,a2
    4e74:	0074f693          	andi	a3,s1,7
    4e78:	4401                	li	s0,0
    4e7a:	ca99                	beqz	a3,4e90 <__muldf3+0x4a2>
    4e7c:	00f4f793          	andi	a5,s1,15
    4e80:	4611                	li	a2,4
    4e82:	4681                	li	a3,0
    4e84:	fac792e3          	bne	a5,a2,4e28 <__muldf3+0x43a>
    4e88:	00969413          	slli	s0,a3,0x9
    4e8c:	8031                	srli	s0,s0,0xc
    4e8e:	06f6                	slli	a3,a3,0x1d
    4e90:	808d                	srli	s1,s1,0x3
    4e92:	8cd5                	or	s1,s1,a3
    4e94:	4781                	li	a5,0
    4e96:	b90d                	j	4ac8 <__muldf3+0xda>
    4e98:	7ff00793          	li	a5,2047
    4e9c:	4401                	li	s0,0
    4e9e:	4481                	li	s1,0
    4ea0:	b125                	j	4ac8 <__muldf3+0xda>
    4ea2:	8942                	mv	s2,a6
    4ea4:	bd6d                	j	4d5e <__muldf3+0x370>

00004ea6 <__subdf3>:
__subdf3():
    4ea6:	00100737          	lui	a4,0x100
    4eaa:	177d                	addi	a4,a4,-1
    4eac:	1101                	addi	sp,sp,-32
    4eae:	00b77333          	and	t1,a4,a1
    4eb2:	0146d893          	srli	a7,a3,0x14
    4eb6:	8f75                	and	a4,a4,a3
    4eb8:	01d65e93          	srli	t4,a2,0x1d
    4ebc:	cc22                	sw	s0,24(sp)
    4ebe:	ca26                	sw	s1,20(sp)
    4ec0:	030e                	slli	t1,t1,0x3
    4ec2:	0145d493          	srli	s1,a1,0x14
    4ec6:	01d55793          	srli	a5,a0,0x1d
    4eca:	070e                	slli	a4,a4,0x3
    4ecc:	ce06                	sw	ra,28(sp)
    4ece:	c84a                	sw	s2,16(sp)
    4ed0:	c64e                	sw	s3,12(sp)
    4ed2:	7ff8f893          	andi	a7,a7,2047
    4ed6:	7ff00e13          	li	t3,2047
    4eda:	00eee733          	or	a4,t4,a4
    4ede:	7ff4f493          	andi	s1,s1,2047
    4ee2:	01f5d413          	srli	s0,a1,0x1f
    4ee6:	0067e333          	or	t1,a5,t1
    4eea:	00351f13          	slli	t5,a0,0x3
    4eee:	82fd                	srli	a3,a3,0x1f
    4ef0:	00361e93          	slli	t4,a2,0x3
    4ef4:	17c88f63          	beq	a7,t3,5072 <__subdf3+0x1cc>
    4ef8:	0016c693          	xori	a3,a3,1
    4efc:	411485b3          	sub	a1,s1,a7
    4f00:	12d40463          	beq	s0,a3,5028 <__subdf3+0x182>
    4f04:	18b05063          	blez	a1,5084 <__subdf3+0x1de>
    4f08:	1a088a63          	beqz	a7,50bc <__subdf3+0x216>
    4f0c:	008007b7          	lui	a5,0x800
    4f10:	8f5d                	or	a4,a4,a5
    4f12:	57c48f63          	beq	s1,t3,5490 <__subdf3+0x5ea>
    4f16:	03800793          	li	a5,56
    4f1a:	34b7c263          	blt	a5,a1,525e <__subdf3+0x3b8>
    4f1e:	47fd                	li	a5,31
    4f20:	48b7c363          	blt	a5,a1,53a6 <__subdf3+0x500>
    4f24:	02000793          	li	a5,32
    4f28:	8f8d                	sub	a5,a5,a1
    4f2a:	00bed9b3          	srl	s3,t4,a1
    4f2e:	00f71833          	sll	a6,a4,a5
    4f32:	00fe9eb3          	sll	t4,t4,a5
    4f36:	01386833          	or	a6,a6,s3
    4f3a:	00b75733          	srl	a4,a4,a1
    4f3e:	01d039b3          	snez	s3,t4
    4f42:	01386833          	or	a6,a6,s3
    4f46:	40e30333          	sub	t1,t1,a4
    4f4a:	410f09b3          	sub	s3,t5,a6
    4f4e:	013f37b3          	sltu	a5,t5,s3
    4f52:	40f30633          	sub	a2,t1,a5
    4f56:	00861793          	slli	a5,a2,0x8
    4f5a:	2407d263          	bgez	a5,519e <__subdf3+0x2f8>
    4f5e:	00800937          	lui	s2,0x800
    4f62:	197d                	addi	s2,s2,-1
    4f64:	01267933          	and	s2,a2,s2
    4f68:	2c090e63          	beqz	s2,5244 <__subdf3+0x39e>
    4f6c:	854a                	mv	a0,s2
    4f6e:	27a9                	jal	56b8 <__clzsi2>
    4f70:	ff850713          	addi	a4,a0,-8
    4f74:	02000793          	li	a5,32
    4f78:	8f99                	sub	a5,a5,a4
    4f7a:	00f9d7b3          	srl	a5,s3,a5
    4f7e:	00e91633          	sll	a2,s2,a4
    4f82:	8fd1                	or	a5,a5,a2
    4f84:	00e999b3          	sll	s3,s3,a4
    4f88:	2a974463          	blt	a4,s1,5230 <__subdf3+0x38a>
    4f8c:	8f05                	sub	a4,a4,s1
    4f8e:	00170613          	addi	a2,a4,1 # 100001 <_data_lma+0xf713d>
    4f92:	46fd                	li	a3,31
    4f94:	3ac6c463          	blt	a3,a2,533c <__subdf3+0x496>
    4f98:	02000713          	li	a4,32
    4f9c:	8f11                	sub	a4,a4,a2
    4f9e:	00c9d6b3          	srl	a3,s3,a2
    4fa2:	00e99833          	sll	a6,s3,a4
    4fa6:	00e79733          	sll	a4,a5,a4
    4faa:	8f55                	or	a4,a4,a3
    4fac:	01003833          	snez	a6,a6
    4fb0:	010769b3          	or	s3,a4,a6
    4fb4:	00c7d633          	srl	a2,a5,a2
    4fb8:	4481                	li	s1,0
    4fba:	0079f793          	andi	a5,s3,7
    4fbe:	cf81                	beqz	a5,4fd6 <__subdf3+0x130>
    4fc0:	00f9f693          	andi	a3,s3,15
    4fc4:	4791                	li	a5,4
    4fc6:	00f68863          	beq	a3,a5,4fd6 <__subdf3+0x130>
    4fca:	00498693          	addi	a3,s3,4
    4fce:	0136b833          	sltu	a6,a3,s3
    4fd2:	9642                	add	a2,a2,a6
    4fd4:	89b6                	mv	s3,a3
    4fd6:	00861793          	slli	a5,a2,0x8
    4fda:	1c07d663          	bgez	a5,51a6 <__subdf3+0x300>
    4fde:	00148713          	addi	a4,s1,1
    4fe2:	7ff00793          	li	a5,2047
    4fe6:	8805                	andi	s0,s0,1
    4fe8:	20f70663          	beq	a4,a5,51f4 <__subdf3+0x34e>
    4fec:	ff8007b7          	lui	a5,0xff800
    4ff0:	17fd                	addi	a5,a5,-1
    4ff2:	8ff1                	and	a5,a5,a2
    4ff4:	01d79813          	slli	a6,a5,0x1d
    4ff8:	0039d993          	srli	s3,s3,0x3
    4ffc:	07a6                	slli	a5,a5,0x9
    4ffe:	01386833          	or	a6,a6,s3
    5002:	83b1                	srli	a5,a5,0xc
    5004:	7ff77713          	andi	a4,a4,2047
    5008:	00c79693          	slli	a3,a5,0xc
    500c:	0752                	slli	a4,a4,0x14
    500e:	82b1                	srli	a3,a3,0xc
    5010:	047e                	slli	s0,s0,0x1f
    5012:	8ed9                	or	a3,a3,a4
    5014:	8ec1                	or	a3,a3,s0
    5016:	40f2                	lw	ra,28(sp)
    5018:	4462                	lw	s0,24(sp)
    501a:	44d2                	lw	s1,20(sp)
    501c:	4942                	lw	s2,16(sp)
    501e:	49b2                	lw	s3,12(sp)
    5020:	8542                	mv	a0,a6
    5022:	85b6                	mv	a1,a3
    5024:	6105                	addi	sp,sp,32
    5026:	8082                	ret
    5028:	0ab05663          	blez	a1,50d4 <__subdf3+0x22e>
    502c:	12088a63          	beqz	a7,5160 <__subdf3+0x2ba>
    5030:	008007b7          	lui	a5,0x800
    5034:	8f5d                	or	a4,a4,a5
    5036:	2dc48663          	beq	s1,t3,5302 <__subdf3+0x45c>
    503a:	03800793          	li	a5,56
    503e:	18b7c763          	blt	a5,a1,51cc <__subdf3+0x326>
    5042:	47fd                	li	a5,31
    5044:	3cb7d163          	bge	a5,a1,5406 <__subdf3+0x560>
    5048:	fe058813          	addi	a6,a1,-32 # ffe0 <_data_lma+0x711c>
    504c:	02000793          	li	a5,32
    5050:	010759b3          	srl	s3,a4,a6
    5054:	00f58a63          	beq	a1,a5,5068 <__subdf3+0x1c2>
    5058:	04000793          	li	a5,64
    505c:	40b785b3          	sub	a1,a5,a1
    5060:	00b71733          	sll	a4,a4,a1
    5064:	00eeeeb3          	or	t4,t4,a4
    5068:	01d03833          	snez	a6,t4
    506c:	01386833          	or	a6,a6,s3
    5070:	a295                	j	51d4 <__subdf3+0x32e>
    5072:	01d767b3          	or	a5,a4,t4
    5076:	80148593          	addi	a1,s1,-2047
    507a:	e399                	bnez	a5,5080 <__subdf3+0x1da>
    507c:	0016c693          	xori	a3,a3,1
    5080:	04d40a63          	beq	s0,a3,50d4 <__subdf3+0x22e>
    5084:	e1d1                	bnez	a1,5108 <__subdf3+0x262>
    5086:	00148793          	addi	a5,s1,1
    508a:	7fe7f793          	andi	a5,a5,2046
    508e:	1e079863          	bnez	a5,527e <__subdf3+0x3d8>
    5092:	01e367b3          	or	a5,t1,t5
    5096:	01d76833          	or	a6,a4,t4
    509a:	16049263          	bnez	s1,51fe <__subdf3+0x358>
    509e:	3c078163          	beqz	a5,5460 <__subdf3+0x5ba>
    50a2:	42081563          	bnez	a6,54cc <__subdf3+0x626>
    50a6:	00351813          	slli	a6,a0,0x3
    50aa:	01d31693          	slli	a3,t1,0x1d
    50ae:	00385813          	srli	a6,a6,0x3
    50b2:	0106e833          	or	a6,a3,a6
    50b6:	00335793          	srli	a5,t1,0x3
    50ba:	a219                	j	51c0 <__subdf3+0x31a>
    50bc:	01d767b3          	or	a5,a4,t4
    50c0:	1a078463          	beqz	a5,5268 <__subdf3+0x3c2>
    50c4:	fff58793          	addi	a5,a1,-1
    50c8:	3a078a63          	beqz	a5,547c <__subdf3+0x5d6>
    50cc:	23c58b63          	beq	a1,t3,5302 <__subdf3+0x45c>
    50d0:	85be                	mv	a1,a5
    50d2:	b591                	j	4f16 <__subdf3+0x70>
    50d4:	1c059863          	bnez	a1,52a4 <__subdf3+0x3fe>
    50d8:	00148693          	addi	a3,s1,1
    50dc:	7fe6f793          	andi	a5,a3,2046
    50e0:	efc1                	bnez	a5,5178 <__subdf3+0x2d2>
    50e2:	01e367b3          	or	a5,t1,t5
    50e6:	34049f63          	bnez	s1,5444 <__subdf3+0x59e>
    50ea:	44078c63          	beqz	a5,5542 <__subdf3+0x69c>
    50ee:	01d767b3          	or	a5,a4,t4
    50f2:	46079363          	bnez	a5,5558 <__subdf3+0x6b2>
    50f6:	050e                	slli	a0,a0,0x3
    50f8:	01d31813          	slli	a6,t1,0x1d
    50fc:	810d                	srli	a0,a0,0x3
    50fe:	00a86833          	or	a6,a6,a0
    5102:	00335793          	srli	a5,t1,0x3
    5106:	a86d                	j	51c0 <__subdf3+0x31a>
    5108:	409885b3          	sub	a1,a7,s1
    510c:	20049663          	bnez	s1,5318 <__subdf3+0x472>
    5110:	01e367b3          	or	a5,t1,t5
    5114:	30078c63          	beqz	a5,542c <__subdf3+0x586>
    5118:	fff58793          	addi	a5,a1,-1
    511c:	40078863          	beqz	a5,552c <__subdf3+0x686>
    5120:	7ff00513          	li	a0,2047
    5124:	20a58263          	beq	a1,a0,5328 <__subdf3+0x482>
    5128:	85be                	mv	a1,a5
    512a:	03800793          	li	a5,56
    512e:	2ab7c163          	blt	a5,a1,53d0 <__subdf3+0x52a>
    5132:	47fd                	li	a5,31
    5134:	3cb7c763          	blt	a5,a1,5502 <__subdf3+0x65c>
    5138:	02000793          	li	a5,32
    513c:	8f8d                	sub	a5,a5,a1
    513e:	00f31833          	sll	a6,t1,a5
    5142:	00bf5633          	srl	a2,t5,a1
    5146:	00ff17b3          	sll	a5,t5,a5
    514a:	00c86833          	or	a6,a6,a2
    514e:	00f039b3          	snez	s3,a5
    5152:	00b35333          	srl	t1,t1,a1
    5156:	01386833          	or	a6,a6,s3
    515a:	40670733          	sub	a4,a4,t1
    515e:	acad                	j	53d8 <__subdf3+0x532>
    5160:	01d767b3          	or	a5,a4,t4
    5164:	10078263          	beqz	a5,5268 <__subdf3+0x3c2>
    5168:	fff58793          	addi	a5,a1,-1
    516c:	1e078e63          	beqz	a5,5368 <__subdf3+0x4c2>
    5170:	2dc58f63          	beq	a1,t3,544e <__subdf3+0x5a8>
    5174:	85be                	mv	a1,a5
    5176:	b5d1                	j	503a <__subdf3+0x194>
    5178:	7ff00793          	li	a5,2047
    517c:	06f68b63          	beq	a3,a5,51f2 <__subdf3+0x34c>
    5180:	9efa                	add	t4,t4,t5
    5182:	01eeb633          	sltu	a2,t4,t5
    5186:	00e307b3          	add	a5,t1,a4
    518a:	97b2                	add	a5,a5,a2
    518c:	01f79813          	slli	a6,a5,0x1f
    5190:	001ede93          	srli	t4,t4,0x1
    5194:	01d869b3          	or	s3,a6,t4
    5198:	0017d613          	srli	a2,a5,0x1
    519c:	84b6                	mv	s1,a3
    519e:	0079f793          	andi	a5,s3,7
    51a2:	e0079fe3          	bnez	a5,4fc0 <__subdf3+0x11a>
    51a6:	01d61793          	slli	a5,a2,0x1d
    51aa:	0039d813          	srli	a6,s3,0x3
    51ae:	00f86833          	or	a6,a6,a5
    51b2:	85a6                	mv	a1,s1
    51b4:	00365793          	srli	a5,a2,0x3
    51b8:	7ff00713          	li	a4,2047
    51bc:	06e58063          	beq	a1,a4,521c <__subdf3+0x376>
    51c0:	07b2                	slli	a5,a5,0xc
    51c2:	83b1                	srli	a5,a5,0xc
    51c4:	7ff5f713          	andi	a4,a1,2047
    51c8:	8805                	andi	s0,s0,1
    51ca:	bd3d                	j	5008 <__subdf3+0x162>
    51cc:	01d76733          	or	a4,a4,t4
    51d0:	00e03833          	snez	a6,a4
    51d4:	01e809b3          	add	s3,a6,t5
    51d8:	01e9b7b3          	sltu	a5,s3,t5
    51dc:	00678633          	add	a2,a5,t1
    51e0:	00861793          	slli	a5,a2,0x8
    51e4:	fa07dde3          	bgez	a5,519e <__subdf3+0x2f8>
    51e8:	0485                	addi	s1,s1,1
    51ea:	7ff00793          	li	a5,2047
    51ee:	18f49b63          	bne	s1,a5,5384 <__subdf3+0x4de>
    51f2:	8805                	andi	s0,s0,1
    51f4:	7ff00713          	li	a4,2047
    51f8:	4781                	li	a5,0
    51fa:	4801                	li	a6,0
    51fc:	b531                	j	5008 <__subdf3+0x162>
    51fe:	10079063          	bnez	a5,52fe <__subdf3+0x458>
    5202:	3c080063          	beqz	a6,55c2 <__subdf3+0x71c>
    5206:	00361813          	slli	a6,a2,0x3
    520a:	01d71793          	slli	a5,a4,0x1d
    520e:	00385813          	srli	a6,a6,0x3
    5212:	00f86833          	or	a6,a6,a5
    5216:	8436                	mv	s0,a3
    5218:	00375793          	srli	a5,a4,0x3
    521c:	00f867b3          	or	a5,a6,a5
    5220:	dbe9                	beqz	a5,51f2 <__subdf3+0x34c>
    5222:	4401                	li	s0,0
    5224:	7ff00713          	li	a4,2047
    5228:	000807b7          	lui	a5,0x80
    522c:	4801                	li	a6,0
    522e:	bbe9                	j	5008 <__subdf3+0x162>
    5230:	ff800637          	lui	a2,0xff800
    5234:	167d                	addi	a2,a2,-1
    5236:	8e7d                	and	a2,a2,a5
    5238:	0079f793          	andi	a5,s3,7
    523c:	8c99                	sub	s1,s1,a4
    523e:	d80791e3          	bnez	a5,4fc0 <__subdf3+0x11a>
    5242:	b795                	j	51a6 <__subdf3+0x300>
    5244:	854e                	mv	a0,s3
    5246:	298d                	jal	56b8 <__clzsi2>
    5248:	01850713          	addi	a4,a0,24
    524c:	47fd                	li	a5,31
    524e:	d2e7d3e3          	bge	a5,a4,4f74 <__subdf3+0xce>
    5252:	ff850613          	addi	a2,a0,-8
    5256:	00c997b3          	sll	a5,s3,a2
    525a:	4981                	li	s3,0
    525c:	b335                	j	4f88 <__subdf3+0xe2>
    525e:	01d76833          	or	a6,a4,t4
    5262:	01003833          	snez	a6,a6
    5266:	b1d5                	j	4f4a <__subdf3+0xa4>
    5268:	00351813          	slli	a6,a0,0x3
    526c:	01d31793          	slli	a5,t1,0x1d
    5270:	00385813          	srli	a6,a6,0x3
    5274:	00f86833          	or	a6,a6,a5
    5278:	00335793          	srli	a5,t1,0x3
    527c:	bf35                	j	51b8 <__subdf3+0x312>
    527e:	41df09b3          	sub	s3,t5,t4
    5282:	40e30933          	sub	s2,t1,a4
    5286:	013f3633          	sltu	a2,t5,s3
    528a:	40c90933          	sub	s2,s2,a2
    528e:	00891793          	slli	a5,s2,0x8
    5292:	2007ca63          	bltz	a5,54a6 <__subdf3+0x600>
    5296:	0129e833          	or	a6,s3,s2
    529a:	cc0817e3          	bnez	a6,4f68 <__subdf3+0xc2>
    529e:	4781                	li	a5,0
    52a0:	4401                	li	s0,0
    52a2:	bf39                	j	51c0 <__subdf3+0x31a>
    52a4:	409885b3          	sub	a1,a7,s1
    52a8:	14048163          	beqz	s1,53ea <__subdf3+0x544>
    52ac:	008006b7          	lui	a3,0x800
    52b0:	7ff00793          	li	a5,2047
    52b4:	00d36333          	or	t1,t1,a3
    52b8:	20f88163          	beq	a7,a5,54ba <__subdf3+0x614>
    52bc:	03800793          	li	a5,56
    52c0:	22b7cc63          	blt	a5,a1,54f8 <__subdf3+0x652>
    52c4:	47fd                	li	a5,31
    52c6:	2cb7c963          	blt	a5,a1,5598 <__subdf3+0x6f2>
    52ca:	02000793          	li	a5,32
    52ce:	8f8d                	sub	a5,a5,a1
    52d0:	00f31833          	sll	a6,t1,a5
    52d4:	00bf56b3          	srl	a3,t5,a1
    52d8:	00ff17b3          	sll	a5,t5,a5
    52dc:	00d86833          	or	a6,a6,a3
    52e0:	00f039b3          	snez	s3,a5
    52e4:	00b35333          	srl	t1,t1,a1
    52e8:	01386833          	or	a6,a6,s3
    52ec:	971a                	add	a4,a4,t1
    52ee:	01d809b3          	add	s3,a6,t4
    52f2:	01d9b7b3          	sltu	a5,s3,t4
    52f6:	00e78633          	add	a2,a5,a4
    52fa:	84c6                	mv	s1,a7
    52fc:	b5d5                	j	51e0 <__subdf3+0x33a>
    52fe:	f20812e3          	bnez	a6,5222 <__subdf3+0x37c>
    5302:	00351813          	slli	a6,a0,0x3
    5306:	01d31793          	slli	a5,t1,0x1d
    530a:	00385813          	srli	a6,a6,0x3
    530e:	00f86833          	or	a6,a6,a5
    5312:	00335793          	srli	a5,t1,0x3
    5316:	b719                	j	521c <__subdf3+0x376>
    5318:	00800537          	lui	a0,0x800
    531c:	7ff00793          	li	a5,2047
    5320:	00a36333          	or	t1,t1,a0
    5324:	e0f893e3          	bne	a7,a5,512a <__subdf3+0x284>
    5328:	060e                	slli	a2,a2,0x3
    532a:	01d71813          	slli	a6,a4,0x1d
    532e:	820d                	srli	a2,a2,0x3
    5330:	00c86833          	or	a6,a6,a2
    5334:	00375793          	srli	a5,a4,0x3
    5338:	8436                	mv	s0,a3
    533a:	b5cd                	j	521c <__subdf3+0x376>
    533c:	1705                	addi	a4,a4,-31
    533e:	02000693          	li	a3,32
    5342:	00e7d733          	srl	a4,a5,a4
    5346:	00d60a63          	beq	a2,a3,535a <__subdf3+0x4b4>
    534a:	04000693          	li	a3,64
    534e:	40c68633          	sub	a2,a3,a2
    5352:	00c79633          	sll	a2,a5,a2
    5356:	00c9e9b3          	or	s3,s3,a2
    535a:	01303833          	snez	a6,s3
    535e:	00e869b3          	or	s3,a6,a4
    5362:	4601                	li	a2,0
    5364:	4481                	li	s1,0
    5366:	bd25                	j	519e <__subdf3+0x2f8>
    5368:	01df09b3          	add	s3,t5,t4
    536c:	00e307b3          	add	a5,t1,a4
    5370:	01e9bf33          	sltu	t5,s3,t5
    5374:	01e78633          	add	a2,a5,t5
    5378:	00861793          	slli	a5,a2,0x8
    537c:	4485                	li	s1,1
    537e:	e207d0e3          	bgez	a5,519e <__subdf3+0x2f8>
    5382:	4489                	li	s1,2
    5384:	ff8007b7          	lui	a5,0xff800
    5388:	17fd                	addi	a5,a5,-1
    538a:	8ff1                	and	a5,a5,a2
    538c:	0019d713          	srli	a4,s3,0x1
    5390:	0019f813          	andi	a6,s3,1
    5394:	01076833          	or	a6,a4,a6
    5398:	01f79993          	slli	s3,a5,0x1f
    539c:	0109e9b3          	or	s3,s3,a6
    53a0:	0017d613          	srli	a2,a5,0x1
    53a4:	b919                	j	4fba <__subdf3+0x114>
    53a6:	fe058813          	addi	a6,a1,-32
    53aa:	02000793          	li	a5,32
    53ae:	010759b3          	srl	s3,a4,a6
    53b2:	00f58a63          	beq	a1,a5,53c6 <__subdf3+0x520>
    53b6:	04000793          	li	a5,64
    53ba:	40b785b3          	sub	a1,a5,a1
    53be:	00b71733          	sll	a4,a4,a1
    53c2:	00eeeeb3          	or	t4,t4,a4
    53c6:	01d03833          	snez	a6,t4
    53ca:	01386833          	or	a6,a6,s3
    53ce:	beb5                	j	4f4a <__subdf3+0xa4>
    53d0:	01e36333          	or	t1,t1,t5
    53d4:	00603833          	snez	a6,t1
    53d8:	410e89b3          	sub	s3,t4,a6
    53dc:	013eb7b3          	sltu	a5,t4,s3
    53e0:	40f70633          	sub	a2,a4,a5
    53e4:	84c6                	mv	s1,a7
    53e6:	8436                	mv	s0,a3
    53e8:	b6bd                	j	4f56 <__subdf3+0xb0>
    53ea:	01e367b3          	or	a5,t1,t5
    53ee:	18078763          	beqz	a5,557c <__subdf3+0x6d6>
    53f2:	fff58793          	addi	a5,a1,-1
    53f6:	1c078c63          	beqz	a5,55ce <__subdf3+0x728>
    53fa:	7ff00693          	li	a3,2047
    53fe:	0ad58e63          	beq	a1,a3,54ba <__subdf3+0x614>
    5402:	85be                	mv	a1,a5
    5404:	bd65                	j	52bc <__subdf3+0x416>
    5406:	02000793          	li	a5,32
    540a:	8f8d                	sub	a5,a5,a1
    540c:	00bed9b3          	srl	s3,t4,a1
    5410:	00f71833          	sll	a6,a4,a5
    5414:	00fe9eb3          	sll	t4,t4,a5
    5418:	01386833          	or	a6,a6,s3
    541c:	00b75733          	srl	a4,a4,a1
    5420:	01d039b3          	snez	s3,t4
    5424:	01386833          	or	a6,a6,s3
    5428:	933a                	add	t1,t1,a4
    542a:	b36d                	j	51d4 <__subdf3+0x32e>
    542c:	00361813          	slli	a6,a2,0x3
    5430:	01d71793          	slli	a5,a4,0x1d
    5434:	00385813          	srli	a6,a6,0x3
    5438:	0107e833          	or	a6,a5,a6
    543c:	8436                	mv	s0,a3
    543e:	00375793          	srli	a5,a4,0x3
    5442:	bb9d                	j	51b8 <__subdf3+0x312>
    5444:	cbbd                	beqz	a5,54ba <__subdf3+0x614>
    5446:	01d76733          	or	a4,a4,t4
    544a:	dc071ce3          	bnez	a4,5222 <__subdf3+0x37c>
    544e:	050e                	slli	a0,a0,0x3
    5450:	01d31813          	slli	a6,t1,0x1d
    5454:	810d                	srli	a0,a0,0x3
    5456:	00a86833          	or	a6,a6,a0
    545a:	00335793          	srli	a5,t1,0x3
    545e:	bb7d                	j	521c <__subdf3+0x376>
    5460:	e2080fe3          	beqz	a6,529e <__subdf3+0x3f8>
    5464:	00361813          	slli	a6,a2,0x3
    5468:	01d71793          	slli	a5,a4,0x1d
    546c:	00385813          	srli	a6,a6,0x3
    5470:	00f86833          	or	a6,a6,a5
    5474:	8436                	mv	s0,a3
    5476:	00375793          	srli	a5,a4,0x3
    547a:	b399                	j	51c0 <__subdf3+0x31a>
    547c:	41df09b3          	sub	s3,t5,t4
    5480:	40e307b3          	sub	a5,t1,a4
    5484:	013f3f33          	sltu	t5,t5,s3
    5488:	41e78633          	sub	a2,a5,t5
    548c:	4485                	li	s1,1
    548e:	b4e1                	j	4f56 <__subdf3+0xb0>
    5490:	00351813          	slli	a6,a0,0x3
    5494:	01d31693          	slli	a3,t1,0x1d
    5498:	00385813          	srli	a6,a6,0x3
    549c:	0106e833          	or	a6,a3,a6
    54a0:	00335793          	srli	a5,t1,0x3
    54a4:	bba5                	j	521c <__subdf3+0x376>
    54a6:	41ee89b3          	sub	s3,t4,t5
    54aa:	40670633          	sub	a2,a4,t1
    54ae:	013eb933          	sltu	s2,t4,s3
    54b2:	41260933          	sub	s2,a2,s2
    54b6:	8436                	mv	s0,a3
    54b8:	bc45                	j	4f68 <__subdf3+0xc2>
    54ba:	060e                	slli	a2,a2,0x3
    54bc:	01d71813          	slli	a6,a4,0x1d
    54c0:	820d                	srli	a2,a2,0x3
    54c2:	00c86833          	or	a6,a6,a2
    54c6:	00375793          	srli	a5,a4,0x3
    54ca:	bb89                	j	521c <__subdf3+0x376>
    54cc:	41df09b3          	sub	s3,t5,t4
    54d0:	40e307b3          	sub	a5,t1,a4
    54d4:	013f3633          	sltu	a2,t5,s3
    54d8:	40c78633          	sub	a2,a5,a2
    54dc:	00861793          	slli	a5,a2,0x8
    54e0:	0a07d763          	bgez	a5,558e <__subdf3+0x6e8>
    54e4:	41ee89b3          	sub	s3,t4,t5
    54e8:	406707b3          	sub	a5,a4,t1
    54ec:	013ebeb3          	sltu	t4,t4,s3
    54f0:	41d78633          	sub	a2,a5,t4
    54f4:	8436                	mv	s0,a3
    54f6:	b4d1                	j	4fba <__subdf3+0x114>
    54f8:	01e36333          	or	t1,t1,t5
    54fc:	00603833          	snez	a6,t1
    5500:	b3fd                	j	52ee <__subdf3+0x448>
    5502:	fe058813          	addi	a6,a1,-32
    5506:	02000793          	li	a5,32
    550a:	010359b3          	srl	s3,t1,a6
    550e:	00f58a63          	beq	a1,a5,5522 <__subdf3+0x67c>
    5512:	04000793          	li	a5,64
    5516:	40b785b3          	sub	a1,a5,a1
    551a:	00b31333          	sll	t1,t1,a1
    551e:	006f6f33          	or	t5,t5,t1
    5522:	01e03833          	snez	a6,t5
    5526:	01386833          	or	a6,a6,s3
    552a:	b57d                	j	53d8 <__subdf3+0x532>
    552c:	41ee89b3          	sub	s3,t4,t5
    5530:	406707b3          	sub	a5,a4,t1
    5534:	013ebeb3          	sltu	t4,t4,s3
    5538:	41d78633          	sub	a2,a5,t4
    553c:	8436                	mv	s0,a3
    553e:	4485                	li	s1,1
    5540:	bc19                	j	4f56 <__subdf3+0xb0>
    5542:	00361813          	slli	a6,a2,0x3
    5546:	01d71793          	slli	a5,a4,0x1d
    554a:	00385813          	srli	a6,a6,0x3
    554e:	00f86833          	or	a6,a6,a5
    5552:	00375793          	srli	a5,a4,0x3
    5556:	b1ad                	j	51c0 <__subdf3+0x31a>
    5558:	01df09b3          	add	s3,t5,t4
    555c:	00e307b3          	add	a5,t1,a4
    5560:	01e9bf33          	sltu	t5,s3,t5
    5564:	01e78633          	add	a2,a5,t5
    5568:	00861793          	slli	a5,a2,0x8
    556c:	c207d9e3          	bgez	a5,519e <__subdf3+0x2f8>
    5570:	ff8007b7          	lui	a5,0xff800
    5574:	17fd                	addi	a5,a5,-1
    5576:	8e7d                	and	a2,a2,a5
    5578:	4485                	li	s1,1
    557a:	b115                	j	519e <__subdf3+0x2f8>
    557c:	060e                	slli	a2,a2,0x3
    557e:	01d71813          	slli	a6,a4,0x1d
    5582:	820d                	srli	a2,a2,0x3
    5584:	00c86833          	or	a6,a6,a2
    5588:	00375793          	srli	a5,a4,0x3
    558c:	b135                	j	51b8 <__subdf3+0x312>
    558e:	00c9e833          	or	a6,s3,a2
    5592:	d00806e3          	beqz	a6,529e <__subdf3+0x3f8>
    5596:	b121                	j	519e <__subdf3+0x2f8>
    5598:	fe058813          	addi	a6,a1,-32
    559c:	02000793          	li	a5,32
    55a0:	010359b3          	srl	s3,t1,a6
    55a4:	00f58a63          	beq	a1,a5,55b8 <__subdf3+0x712>
    55a8:	04000793          	li	a5,64
    55ac:	40b785b3          	sub	a1,a5,a1
    55b0:	00b31333          	sll	t1,t1,a1
    55b4:	006f6f33          	or	t5,t5,t1
    55b8:	01e03833          	snez	a6,t5
    55bc:	01386833          	or	a6,a6,s3
    55c0:	b33d                	j	52ee <__subdf3+0x448>
    55c2:	4401                	li	s0,0
    55c4:	7ff00713          	li	a4,2047
    55c8:	000807b7          	lui	a5,0x80
    55cc:	bc35                	j	5008 <__subdf3+0x162>
    55ce:	01df09b3          	add	s3,t5,t4
    55d2:	00e307b3          	add	a5,t1,a4
    55d6:	01d9beb3          	sltu	t4,s3,t4
    55da:	01d78633          	add	a2,a5,t4
    55de:	bb69                	j	5378 <__subdf3+0x4d2>

000055e0 <__fixdfsi>:
__fixdfsi():
    55e0:	0145d793          	srli	a5,a1,0x14
    55e4:	001006b7          	lui	a3,0x100
    55e8:	fff68713          	addi	a4,a3,-1 # fffff <_data_lma+0xf713b>
    55ec:	7ff7f793          	andi	a5,a5,2047
    55f0:	3fe00613          	li	a2,1022
    55f4:	8f6d                	and	a4,a4,a1
    55f6:	81fd                	srli	a1,a1,0x1f
    55f8:	00f65c63          	bge	a2,a5,5610 <__fixdfsi+0x30>
    55fc:	41d00613          	li	a2,1053
    5600:	00f65a63          	bge	a2,a5,5614 <__fixdfsi+0x34>
    5604:	80000537          	lui	a0,0x80000
    5608:	fff54513          	not	a0,a0
    560c:	952e                	add	a0,a0,a1
    560e:	8082                	ret
    5610:	4501                	li	a0,0
    5612:	8082                	ret
    5614:	43300613          	li	a2,1075
    5618:	8e1d                	sub	a2,a2,a5
    561a:	487d                	li	a6,31
    561c:	8f55                	or	a4,a4,a3
    561e:	00c85d63          	bge	a6,a2,5638 <__fixdfsi+0x58>
    5622:	41300693          	li	a3,1043
    5626:	40f687b3          	sub	a5,a3,a5
    562a:	00f757b3          	srl	a5,a4,a5
    562e:	40f00533          	neg	a0,a5
    5632:	f1e5                	bnez	a1,5612 <__fixdfsi+0x32>
    5634:	853e                	mv	a0,a5
    5636:	8082                	ret
    5638:	bed78793          	addi	a5,a5,-1043 # 7fbed <_data_lma+0x76d29>
    563c:	00f717b3          	sll	a5,a4,a5
    5640:	00c55533          	srl	a0,a0,a2
    5644:	8fc9                	or	a5,a5,a0
    5646:	b7e5                	j	562e <__fixdfsi+0x4e>

00005648 <__floatsidf>:
__floatsidf():
    5648:	1141                	addi	sp,sp,-16
    564a:	c606                	sw	ra,12(sp)
    564c:	c422                	sw	s0,8(sp)
    564e:	c226                	sw	s1,4(sp)
    5650:	cd05                	beqz	a0,5688 <__floatsidf+0x40>
    5652:	41f55793          	srai	a5,a0,0x1f
    5656:	00a7c4b3          	xor	s1,a5,a0
    565a:	8c9d                	sub	s1,s1,a5
    565c:	842a                	mv	s0,a0
    565e:	8526                	mv	a0,s1
    5660:	28a1                	jal	56b8 <__clzsi2>
    5662:	41e00693          	li	a3,1054
    5666:	8e89                	sub	a3,a3,a0
    5668:	47a9                	li	a5,10
    566a:	807d                	srli	s0,s0,0x1f
    566c:	7ff6f693          	andi	a3,a3,2047
    5670:	02a7cd63          	blt	a5,a0,56aa <__floatsidf+0x62>
    5674:	472d                	li	a4,11
    5676:	8f09                	sub	a4,a4,a0
    5678:	00e4d7b3          	srl	a5,s1,a4
    567c:	0555                	addi	a0,a0,21
    567e:	07b2                	slli	a5,a5,0xc
    5680:	00a494b3          	sll	s1,s1,a0
    5684:	83b1                	srli	a5,a5,0xc
    5686:	a029                	j	5690 <__floatsidf+0x48>
    5688:	4401                	li	s0,0
    568a:	4681                	li	a3,0
    568c:	4781                	li	a5,0
    568e:	4481                	li	s1,0
    5690:	07b2                	slli	a5,a5,0xc
    5692:	06d2                	slli	a3,a3,0x14
    5694:	83b1                	srli	a5,a5,0xc
    5696:	047e                	slli	s0,s0,0x1f
    5698:	8fd5                	or	a5,a5,a3
    569a:	8fc1                	or	a5,a5,s0
    569c:	40b2                	lw	ra,12(sp)
    569e:	4422                	lw	s0,8(sp)
    56a0:	8526                	mv	a0,s1
    56a2:	85be                	mv	a1,a5
    56a4:	4492                	lw	s1,4(sp)
    56a6:	0141                	addi	sp,sp,16
    56a8:	8082                	ret
    56aa:	1555                	addi	a0,a0,-11
    56ac:	00a497b3          	sll	a5,s1,a0
    56b0:	07b2                	slli	a5,a5,0xc
    56b2:	83b1                	srli	a5,a5,0xc
    56b4:	4481                	li	s1,0
    56b6:	bfe9                	j	5690 <__floatsidf+0x48>

000056b8 <__clzsi2>:
__clzsi2():
    56b8:	67c1                	lui	a5,0x10
    56ba:	02f57e63          	bgeu	a0,a5,56f6 <__clzsi2+0x3e>
    56be:	0ff00793          	li	a5,255
    56c2:	02000713          	li	a4,32
    56c6:	00a7ec63          	bltu	a5,a0,56de <__clzsi2+0x26>
    56ca:	00003797          	auipc	a5,0x3
    56ce:	3d278793          	addi	a5,a5,978 # 8a9c <__clz_tab>
    56d2:	97aa                	add	a5,a5,a0
    56d4:	0007c503          	lbu	a0,0(a5)
    56d8:	40a70533          	sub	a0,a4,a0
    56dc:	8082                	ret
    56de:	8121                	srli	a0,a0,0x8
    56e0:	00003797          	auipc	a5,0x3
    56e4:	3bc78793          	addi	a5,a5,956 # 8a9c <__clz_tab>
    56e8:	97aa                	add	a5,a5,a0
    56ea:	0007c503          	lbu	a0,0(a5)
    56ee:	4761                	li	a4,24
    56f0:	40a70533          	sub	a0,a4,a0
    56f4:	8082                	ret
    56f6:	010007b7          	lui	a5,0x1000
    56fa:	00f56e63          	bltu	a0,a5,5716 <__clzsi2+0x5e>
    56fe:	8161                	srli	a0,a0,0x18
    5700:	00003797          	auipc	a5,0x3
    5704:	39c78793          	addi	a5,a5,924 # 8a9c <__clz_tab>
    5708:	97aa                	add	a5,a5,a0
    570a:	0007c503          	lbu	a0,0(a5)
    570e:	4721                	li	a4,8
    5710:	40a70533          	sub	a0,a4,a0
    5714:	8082                	ret
    5716:	8141                	srli	a0,a0,0x10
    5718:	00003797          	auipc	a5,0x3
    571c:	38478793          	addi	a5,a5,900 # 8a9c <__clz_tab>
    5720:	97aa                	add	a5,a5,a0
    5722:	0007c503          	lbu	a0,0(a5)
    5726:	4741                	li	a4,16
    5728:	40a70533          	sub	a0,a4,a0
    572c:	8082                	ret

0000572e <memcpy>:
memcpy():
    572e:	00a5c7b3          	xor	a5,a1,a0
    5732:	8b8d                	andi	a5,a5,3
    5734:	00c50733          	add	a4,a0,a2
    5738:	e781                	bnez	a5,5740 <memcpy+0x12>
    573a:	478d                	li	a5,3
    573c:	00c7ee63          	bltu	a5,a2,5758 <memcpy+0x2a>
    5740:	87aa                	mv	a5,a0
    5742:	0ae57063          	bgeu	a0,a4,57e2 <memcpy+0xb4>
    5746:	0005c683          	lbu	a3,0(a1)
    574a:	0785                	addi	a5,a5,1
    574c:	0585                	addi	a1,a1,1
    574e:	fed78fa3          	sb	a3,-1(a5)
    5752:	fee7eae3          	bltu	a5,a4,5746 <memcpy+0x18>
    5756:	8082                	ret
    5758:	00357693          	andi	a3,a0,3
    575c:	87aa                	mv	a5,a0
    575e:	ca91                	beqz	a3,5772 <memcpy+0x44>
    5760:	0005c683          	lbu	a3,0(a1)
    5764:	0785                	addi	a5,a5,1
    5766:	0585                	addi	a1,a1,1
    5768:	fed78fa3          	sb	a3,-1(a5)
    576c:	0037f693          	andi	a3,a5,3
    5770:	b7fd                	j	575e <memcpy+0x30>
    5772:	ffc77693          	andi	a3,a4,-4
    5776:	fe068613          	addi	a2,a3,-32
    577a:	06c7f063          	bgeu	a5,a2,57da <memcpy+0xac>
    577e:	0005a383          	lw	t2,0(a1)
    5782:	0045a283          	lw	t0,4(a1)
    5786:	0085af83          	lw	t6,8(a1)
    578a:	00c5af03          	lw	t5,12(a1)
    578e:	0105ae83          	lw	t4,16(a1)
    5792:	0145ae03          	lw	t3,20(a1)
    5796:	0185a303          	lw	t1,24(a1)
    579a:	01c5a883          	lw	a7,28(a1)
    579e:	02458593          	addi	a1,a1,36
    57a2:	0077a023          	sw	t2,0(a5)
    57a6:	ffc5a803          	lw	a6,-4(a1)
    57aa:	0057a223          	sw	t0,4(a5)
    57ae:	01f7a423          	sw	t6,8(a5)
    57b2:	01e7a623          	sw	t5,12(a5)
    57b6:	01d7a823          	sw	t4,16(a5)
    57ba:	01c7aa23          	sw	t3,20(a5)
    57be:	0067ac23          	sw	t1,24(a5)
    57c2:	0117ae23          	sw	a7,28(a5)
    57c6:	02478793          	addi	a5,a5,36
    57ca:	ff07ae23          	sw	a6,-4(a5)
    57ce:	b775                	j	577a <memcpy+0x4c>
    57d0:	4190                	lw	a2,0(a1)
    57d2:	0791                	addi	a5,a5,4
    57d4:	0591                	addi	a1,a1,4
    57d6:	fec7ae23          	sw	a2,-4(a5)
    57da:	fed7ebe3          	bltu	a5,a3,57d0 <memcpy+0xa2>
    57de:	f6e7e4e3          	bltu	a5,a4,5746 <memcpy+0x18>
    57e2:	8082                	ret

000057e4 <__cvt>:
__cvt():
    57e4:	7179                	addi	sp,sp,-48
    57e6:	d422                	sw	s0,40(sp)
    57e8:	d04a                	sw	s2,32(sp)
    57ea:	cc52                	sw	s4,24(sp)
    57ec:	ca56                	sw	s5,20(sp)
    57ee:	c85a                	sw	s6,16(sp)
    57f0:	d606                	sw	ra,44(sp)
    57f2:	d226                	sw	s1,36(sp)
    57f4:	ce4e                	sw	s3,28(sp)
    57f6:	8a3a                	mv	s4,a4
    57f8:	8aae                	mv	s5,a1
    57fa:	8432                	mv	s0,a2
    57fc:	8936                	mv	s2,a3
    57fe:	8b42                	mv	s6,a6
    5800:	4701                	li	a4,0
    5802:	00065863          	bgez	a2,5812 <__cvt+0x2e>
    5806:	80000737          	lui	a4,0x80000
    580a:	00c74433          	xor	s0,a4,a2
    580e:	02d00713          	li	a4,45
    5812:	00e78023          	sb	a4,0(a5)
    5816:	fdf8f493          	andi	s1,a7,-33
    581a:	04600793          	li	a5,70
    581e:	468d                	li	a3,3
    5820:	00f48863          	beq	s1,a5,5830 <__cvt+0x4c>
    5824:	04500793          	li	a5,69
    5828:	4689                	li	a3,2
    582a:	00f49363          	bne	s1,a5,5830 <__cvt+0x4c>
    582e:	0905                	addi	s2,s2,1
    5830:	87da                	mv	a5,s6
    5832:	00c10893          	addi	a7,sp,12
    5836:	00810813          	addi	a6,sp,8
    583a:	874a                	mv	a4,s2
    583c:	85d6                	mv	a1,s5
    583e:	8622                	mv	a2,s0
    5840:	501000ef          	jal	ra,6540 <_dtoa_r>
    5844:	04700793          	li	a5,71
    5848:	89aa                	mv	s3,a0
    584a:	00f49663          	bne	s1,a5,5856 <__cvt+0x72>
    584e:	001a7a13          	andi	s4,s4,1
    5852:	040a0a63          	beqz	s4,58a6 <__cvt+0xc2>
    5856:	04600793          	li	a5,70
    585a:	01298a33          	add	s4,s3,s2
    585e:	02f49763          	bne	s1,a5,588c <__cvt+0xa8>
    5862:	0009c703          	lbu	a4,0(s3)
    5866:	03000793          	li	a5,48
    586a:	00f71e63          	bne	a4,a5,5886 <__cvt+0xa2>
    586e:	4601                	li	a2,0
    5870:	4681                	li	a3,0
    5872:	8556                	mv	a0,s5
    5874:	85a2                	mv	a1,s0
    5876:	858ff0ef          	jal	ra,48ce <__eqdf2>
    587a:	c511                	beqz	a0,5886 <__cvt+0xa2>
    587c:	4785                	li	a5,1
    587e:	41278933          	sub	s2,a5,s2
    5882:	012b2023          	sw	s2,0(s6)
    5886:	000b2783          	lw	a5,0(s6)
    588a:	9a3e                	add	s4,s4,a5
    588c:	4601                	li	a2,0
    588e:	4681                	li	a3,0
    5890:	8556                	mv	a0,s5
    5892:	85a2                	mv	a1,s0
    5894:	83aff0ef          	jal	ra,48ce <__eqdf2>
    5898:	e111                	bnez	a0,589c <__cvt+0xb8>
    589a:	c652                	sw	s4,12(sp)
    589c:	03000713          	li	a4,48
    58a0:	47b2                	lw	a5,12(sp)
    58a2:	0347e263          	bltu	a5,s4,58c6 <__cvt+0xe2>
    58a6:	47b2                	lw	a5,12(sp)
    58a8:	5742                	lw	a4,48(sp)
    58aa:	50b2                	lw	ra,44(sp)
    58ac:	5422                	lw	s0,40(sp)
    58ae:	413787b3          	sub	a5,a5,s3
    58b2:	c31c                	sw	a5,0(a4)
    58b4:	854e                	mv	a0,s3
    58b6:	5492                	lw	s1,36(sp)
    58b8:	5902                	lw	s2,32(sp)
    58ba:	49f2                	lw	s3,28(sp)
    58bc:	4a62                	lw	s4,24(sp)
    58be:	4ad2                	lw	s5,20(sp)
    58c0:	4b42                	lw	s6,16(sp)
    58c2:	6145                	addi	sp,sp,48
    58c4:	8082                	ret
    58c6:	00178693          	addi	a3,a5,1
    58ca:	c636                	sw	a3,12(sp)
    58cc:	00e78023          	sb	a4,0(a5)
    58d0:	bfc1                	j	58a0 <__cvt+0xbc>

000058d2 <__exponent>:
__exponent():
    58d2:	00c50023          	sb	a2,0(a0) # 80000000 <_eusrstack+0x5fff0000>
    58d6:	00250713          	addi	a4,a0,2
    58da:	02b00793          	li	a5,43
    58de:	0005d663          	bgez	a1,58ea <__exponent+0x18>
    58e2:	40b005b3          	neg	a1,a1
    58e6:	02d00793          	li	a5,45
    58ea:	00f500a3          	sb	a5,1(a0)
    58ee:	47a5                	li	a5,9
    58f0:	04b7da63          	bge	a5,a1,5944 <__exponent+0x72>
    58f4:	1141                	addi	sp,sp,-16
    58f6:	00f10793          	addi	a5,sp,15
    58fa:	88be                	mv	a7,a5
    58fc:	4829                	li	a6,10
    58fe:	06300313          	li	t1,99
    5902:	0305e6b3          	rem	a3,a1,a6
    5906:	fff78613          	addi	a2,a5,-1
    590a:	03068693          	addi	a3,a3,48
    590e:	fed78fa3          	sb	a3,-1(a5)
    5912:	0305c6b3          	div	a3,a1,a6
    5916:	00b34d63          	blt	t1,a1,5930 <__exponent+0x5e>
    591a:	03068693          	addi	a3,a3,48
    591e:	17f9                	addi	a5,a5,-2
    5920:	fed60fa3          	sb	a3,-1(a2) # ff7fffff <_eusrstack+0xdf7effff>
    5924:	0117e963          	bltu	a5,a7,5936 <__exponent+0x64>
    5928:	40a70533          	sub	a0,a4,a0
    592c:	0141                	addi	sp,sp,16
    592e:	8082                	ret
    5930:	87b2                	mv	a5,a2
    5932:	85b6                	mv	a1,a3
    5934:	b7f9                	j	5902 <__exponent+0x30>
    5936:	0785                	addi	a5,a5,1
    5938:	fff7c683          	lbu	a3,-1(a5)
    593c:	0705                	addi	a4,a4,1
    593e:	fed70fa3          	sb	a3,-1(a4) # 7fffffff <_eusrstack+0x5ffeffff>
    5942:	b7cd                	j	5924 <__exponent+0x52>
    5944:	03000793          	li	a5,48
    5948:	00450713          	addi	a4,a0,4
    594c:	03058593          	addi	a1,a1,48
    5950:	00f50123          	sb	a5,2(a0)
    5954:	00b501a3          	sb	a1,3(a0)
    5958:	40a70533          	sub	a0,a4,a0
    595c:	8082                	ret

0000595e <_printf_float>:
_printf_float():
    595e:	7119                	addi	sp,sp,-128
    5960:	ce3a                	sw	a4,28(sp)
    5962:	de86                	sw	ra,124(sp)
    5964:	dca2                	sw	s0,120(sp)
    5966:	daa6                	sw	s1,116(sp)
    5968:	842e                	mv	s0,a1
    596a:	d8ca                	sw	s2,112(sp)
    596c:	d6ce                	sw	s3,108(sp)
    596e:	d4d2                	sw	s4,104(sp)
    5970:	89b6                	mv	s3,a3
    5972:	d0da                	sw	s6,96(sp)
    5974:	cede                	sw	s7,92(sp)
    5976:	cce2                	sw	s8,88(sp)
    5978:	8932                	mv	s2,a2
    597a:	d2d6                	sw	s5,100(sp)
    597c:	cae6                	sw	s9,84(sp)
    597e:	c8ea                	sw	s10,80(sp)
    5980:	c6ee                	sw	s11,76(sp)
    5982:	84aa                	mv	s1,a0
    5984:	3b3010ef          	jal	ra,7536 <_localeconv_r>
    5988:	00052b83          	lw	s7,0(a0)
    598c:	855e                	mv	a0,s7
    598e:	08f000ef          	jal	ra,621c <strlen>
    5992:	00042b03          	lw	s6,0(s0) # 80000 <_data_lma+0x7713c>
    5996:	4772                	lw	a4,28(sp)
    5998:	dc02                	sw	zero,56(sp)
    599a:	100b7693          	andi	a3,s6,256
    599e:	8c2a                	mv	s8,a0
    59a0:	01844a03          	lbu	s4,24(s0)
    59a4:	431c                	lw	a5,0(a4)
    59a6:	caf1                	beqz	a3,5a7a <_printf_float+0x11c>
    59a8:	00478693          	addi	a3,a5,4
    59ac:	c314                	sw	a3,0(a4)
    59ae:	439c                	lw	a5,0(a5)
    59b0:	1008                	addi	a0,sp,32
    59b2:	4398                	lw	a4,0(a5)
    59b4:	d03a                	sw	a4,32(sp)
    59b6:	43d8                	lw	a4,4(a5)
    59b8:	d23a                	sw	a4,36(sp)
    59ba:	4798                	lw	a4,8(a5)
    59bc:	d43a                	sw	a4,40(sp)
    59be:	47dc                	lw	a5,12(a5)
    59c0:	d63e                	sw	a5,44(sp)
    59c2:	3df020ef          	jal	ra,85a0 <__trunctfdf2>
    59c6:	c428                	sw	a0,72(s0)
    59c8:	c46c                	sw	a1,76(s0)
    59ca:	04c42c83          	lw	s9,76(s0)
    59ce:	00003717          	auipc	a4,0x3
    59d2:	1d270713          	addi	a4,a4,466 # 8ba0 <__clz_tab+0x104>
    59d6:	04842a83          	lw	s5,72(s0)
    59da:	00072d03          	lw	s10,0(a4)
    59de:	00472d83          	lw	s11,4(a4)
    59e2:	001c9793          	slli	a5,s9,0x1
    59e6:	8385                	srli	a5,a5,0x1
    59e8:	866a                	mv	a2,s10
    59ea:	86ee                	mv	a3,s11
    59ec:	8556                	mv	a0,s5
    59ee:	85be                	mv	a1,a5
    59f0:	ce3e                	sw	a5,28(sp)
    59f2:	30b020ef          	jal	ra,84fc <__unorddf2>
    59f6:	ed41                	bnez	a0,5a8e <_printf_float+0x130>
    59f8:	47f2                	lw	a5,28(sp)
    59fa:	866a                	mv	a2,s10
    59fc:	86ee                	mv	a3,s11
    59fe:	8556                	mv	a0,s5
    5a00:	85be                	mv	a1,a5
    5a02:	f37fe0ef          	jal	ra,4938 <__ledf2>
    5a06:	08a05463          	blez	a0,5a8e <_printf_float+0x130>
    5a0a:	4601                	li	a2,0
    5a0c:	4681                	li	a3,0
    5a0e:	8556                	mv	a0,s5
    5a10:	85e6                	mv	a1,s9
    5a12:	f27fe0ef          	jal	ra,4938 <__ledf2>
    5a16:	00055663          	bgez	a0,5a22 <_printf_float+0xc4>
    5a1a:	02d00793          	li	a5,45
    5a1e:	04f401a3          	sb	a5,67(s0)
    5a22:	04700793          	li	a5,71
    5a26:	00003a97          	auipc	s5,0x3
    5a2a:	182a8a93          	addi	s5,s5,386 # 8ba8 <__clz_tab+0x10c>
    5a2e:	0147f663          	bgeu	a5,s4,5a3a <_printf_float+0xdc>
    5a32:	00003a97          	auipc	s5,0x3
    5a36:	17aa8a93          	addi	s5,s5,378 # 8bac <__clz_tab+0x110>
    5a3a:	ffbb7b13          	andi	s6,s6,-5
    5a3e:	478d                	li	a5,3
    5a40:	01642023          	sw	s6,0(s0)
    5a44:	c81c                	sw	a5,16(s0)
    5a46:	4b01                	li	s6,0
    5a48:	874e                	mv	a4,s3
    5a4a:	86ca                	mv	a3,s2
    5a4c:	1870                	addi	a2,sp,60
    5a4e:	85a2                	mv	a1,s0
    5a50:	8526                	mv	a0,s1
    5a52:	2ec1                	jal	5e22 <_printf_common>
    5a54:	5cfd                	li	s9,-1
    5a56:	15951e63          	bne	a0,s9,5bb2 <_printf_float+0x254>
    5a5a:	557d                	li	a0,-1
    5a5c:	50f6                	lw	ra,124(sp)
    5a5e:	5466                	lw	s0,120(sp)
    5a60:	54d6                	lw	s1,116(sp)
    5a62:	5946                	lw	s2,112(sp)
    5a64:	59b6                	lw	s3,108(sp)
    5a66:	5a26                	lw	s4,104(sp)
    5a68:	5a96                	lw	s5,100(sp)
    5a6a:	5b06                	lw	s6,96(sp)
    5a6c:	4bf6                	lw	s7,92(sp)
    5a6e:	4c66                	lw	s8,88(sp)
    5a70:	4cd6                	lw	s9,84(sp)
    5a72:	4d46                	lw	s10,80(sp)
    5a74:	4db6                	lw	s11,76(sp)
    5a76:	6109                	addi	sp,sp,128
    5a78:	8082                	ret
    5a7a:	079d                	addi	a5,a5,7
    5a7c:	9be1                	andi	a5,a5,-8
    5a7e:	00878693          	addi	a3,a5,8
    5a82:	c314                	sw	a3,0(a4)
    5a84:	4398                	lw	a4,0(a5)
    5a86:	43dc                	lw	a5,4(a5)
    5a88:	c438                	sw	a4,72(s0)
    5a8a:	c47c                	sw	a5,76(s0)
    5a8c:	bf3d                	j	59ca <_printf_float+0x6c>
    5a8e:	8656                	mv	a2,s5
    5a90:	86e6                	mv	a3,s9
    5a92:	8556                	mv	a0,s5
    5a94:	85e6                	mv	a1,s9
    5a96:	267020ef          	jal	ra,84fc <__unorddf2>
    5a9a:	cd11                	beqz	a0,5ab6 <_printf_float+0x158>
    5a9c:	04700793          	li	a5,71
    5aa0:	00003a97          	auipc	s5,0x3
    5aa4:	110a8a93          	addi	s5,s5,272 # 8bb0 <__clz_tab+0x114>
    5aa8:	f947f9e3          	bgeu	a5,s4,5a3a <_printf_float+0xdc>
    5aac:	00003a97          	auipc	s5,0x3
    5ab0:	108a8a93          	addi	s5,s5,264 # 8bb4 <__clz_tab+0x118>
    5ab4:	b759                	j	5a3a <_printf_float+0xdc>
    5ab6:	405c                	lw	a5,4(s0)
    5ab8:	577d                	li	a4,-1
    5aba:	0dfa7d13          	andi	s10,s4,223
    5abe:	08e79563          	bne	a5,a4,5b48 <_printf_float+0x1ea>
    5ac2:	4799                	li	a5,6
    5ac4:	c05c                	sw	a5,4(s0)
    5ac6:	4054                	lw	a3,4(s0)
    5ac8:	400b6713          	ori	a4,s6,1024
    5acc:	183c                	addi	a5,sp,56
    5ace:	85d6                	mv	a1,s5
    5ad0:	c03e                	sw	a5,0(sp)
    5ad2:	c018                	sw	a4,0(s0)
    5ad4:	03310793          	addi	a5,sp,51
    5ad8:	c202                	sw	zero,4(sp)
    5ada:	88d2                	mv	a7,s4
    5adc:	03410813          	addi	a6,sp,52
    5ae0:	8666                	mv	a2,s9
    5ae2:	8526                	mv	a0,s1
    5ae4:	d01ff0ef          	jal	ra,57e4 <__cvt>
    5ae8:	04700793          	li	a5,71
    5aec:	8aaa                	mv	s5,a0
    5aee:	55d2                	lw	a1,52(sp)
    5af0:	00fd1b63          	bne	s10,a5,5b06 <_printf_float+0x1a8>
    5af4:	57f5                	li	a5,-3
    5af6:	00f5c563          	blt	a1,a5,5b00 <_printf_float+0x1a2>
    5afa:	405c                	lw	a5,4(s0)
    5afc:	08b7d863          	bge	a5,a1,5b8c <_printf_float+0x22e>
    5b00:	1a79                	addi	s4,s4,-2
    5b02:	0ffa7a13          	andi	s4,s4,255
    5b06:	06500793          	li	a5,101
    5b0a:	0547e663          	bltu	a5,s4,5b56 <_printf_float+0x1f8>
    5b0e:	15fd                	addi	a1,a1,-1
    5b10:	8652                	mv	a2,s4
    5b12:	05040513          	addi	a0,s0,80
    5b16:	da2e                	sw	a1,52(sp)
    5b18:	dbbff0ef          	jal	ra,58d2 <__exponent>
    5b1c:	5762                	lw	a4,56(sp)
    5b1e:	4685                	li	a3,1
    5b20:	8b2a                	mv	s6,a0
    5b22:	00a707b3          	add	a5,a4,a0
    5b26:	c81c                	sw	a5,16(s0)
    5b28:	00e6c563          	blt	a3,a4,5b32 <_printf_float+0x1d4>
    5b2c:	4018                	lw	a4,0(s0)
    5b2e:	8b05                	andi	a4,a4,1
    5b30:	c319                	beqz	a4,5b36 <_printf_float+0x1d8>
    5b32:	0785                	addi	a5,a5,1
    5b34:	c81c                	sw	a5,16(s0)
    5b36:	03314783          	lbu	a5,51(sp)
    5b3a:	f00787e3          	beqz	a5,5a48 <_printf_float+0xea>
    5b3e:	02d00793          	li	a5,45
    5b42:	04f401a3          	sb	a5,67(s0)
    5b46:	b709                	j	5a48 <_printf_float+0xea>
    5b48:	04700713          	li	a4,71
    5b4c:	f6ed1de3          	bne	s10,a4,5ac6 <_printf_float+0x168>
    5b50:	fbbd                	bnez	a5,5ac6 <_printf_float+0x168>
    5b52:	4785                	li	a5,1
    5b54:	bf85                	j	5ac4 <_printf_float+0x166>
    5b56:	06600793          	li	a5,102
    5b5a:	02fa1b63          	bne	s4,a5,5b90 <_printf_float+0x232>
    5b5e:	405c                	lw	a5,4(s0)
    5b60:	00b05b63          	blez	a1,5b76 <_printf_float+0x218>
    5b64:	c80c                	sw	a1,16(s0)
    5b66:	e781                	bnez	a5,5b6e <_printf_float+0x210>
    5b68:	4018                	lw	a4,0(s0)
    5b6a:	8b05                	andi	a4,a4,1
    5b6c:	cf09                	beqz	a4,5b86 <_printf_float+0x228>
    5b6e:	0785                	addi	a5,a5,1
    5b70:	97ae                	add	a5,a5,a1
    5b72:	c81c                	sw	a5,16(s0)
    5b74:	a809                	j	5b86 <_printf_float+0x228>
    5b76:	e789                	bnez	a5,5b80 <_printf_float+0x222>
    5b78:	4018                	lw	a4,0(s0)
    5b7a:	4685                	li	a3,1
    5b7c:	8b05                	andi	a4,a4,1
    5b7e:	c319                	beqz	a4,5b84 <_printf_float+0x226>
    5b80:	00278693          	addi	a3,a5,2
    5b84:	c814                	sw	a3,16(s0)
    5b86:	cc2c                	sw	a1,88(s0)
    5b88:	4b01                	li	s6,0
    5b8a:	b775                	j	5b36 <_printf_float+0x1d8>
    5b8c:	06700a13          	li	s4,103
    5b90:	57e2                	lw	a5,56(sp)
    5b92:	00f5c963          	blt	a1,a5,5ba4 <_printf_float+0x246>
    5b96:	401c                	lw	a5,0(s0)
    5b98:	c80c                	sw	a1,16(s0)
    5b9a:	8b85                	andi	a5,a5,1
    5b9c:	d7ed                	beqz	a5,5b86 <_printf_float+0x228>
    5b9e:	00158793          	addi	a5,a1,1
    5ba2:	bfc1                	j	5b72 <_printf_float+0x214>
    5ba4:	4705                	li	a4,1
    5ba6:	00b04463          	bgtz	a1,5bae <_printf_float+0x250>
    5baa:	4709                	li	a4,2
    5bac:	8f0d                	sub	a4,a4,a1
    5bae:	97ba                	add	a5,a5,a4
    5bb0:	b7c9                	j	5b72 <_printf_float+0x214>
    5bb2:	401c                	lw	a5,0(s0)
    5bb4:	4007f713          	andi	a4,a5,1024
    5bb8:	e315                	bnez	a4,5bdc <_printf_float+0x27e>
    5bba:	4814                	lw	a3,16(s0)
    5bbc:	8656                	mv	a2,s5
    5bbe:	85ca                	mv	a1,s2
    5bc0:	8526                	mv	a0,s1
    5bc2:	9982                	jalr	s3
    5bc4:	e9950be3          	beq	a0,s9,5a5a <_printf_float+0xfc>
    5bc8:	401c                	lw	a5,0(s0)
    5bca:	8b89                	andi	a5,a5,2
    5bcc:	24079663          	bnez	a5,5e18 <_printf_float+0x4ba>
    5bd0:	57f2                	lw	a5,60(sp)
    5bd2:	4448                	lw	a0,12(s0)
    5bd4:	e8f554e3          	bge	a0,a5,5a5c <_printf_float+0xfe>
    5bd8:	853e                	mv	a0,a5
    5bda:	b549                	j	5a5c <_printf_float+0xfe>
    5bdc:	06500713          	li	a4,101
    5be0:	19477b63          	bgeu	a4,s4,5d76 <_printf_float+0x418>
    5be4:	4428                	lw	a0,72(s0)
    5be6:	446c                	lw	a1,76(s0)
    5be8:	4601                	li	a2,0
    5bea:	4681                	li	a3,0
    5bec:	ce3fe0ef          	jal	ra,48ce <__eqdf2>
    5bf0:	e939                	bnez	a0,5c46 <_printf_float+0x2e8>
    5bf2:	4685                	li	a3,1
    5bf4:	00003617          	auipc	a2,0x3
    5bf8:	fc460613          	addi	a2,a2,-60 # 8bb8 <__clz_tab+0x11c>
    5bfc:	85ca                	mv	a1,s2
    5bfe:	8526                	mv	a0,s1
    5c00:	9982                	jalr	s3
    5c02:	e5950ce3          	beq	a0,s9,5a5a <_printf_float+0xfc>
    5c06:	5752                	lw	a4,52(sp)
    5c08:	57e2                	lw	a5,56(sp)
    5c0a:	00f74563          	blt	a4,a5,5c14 <_printf_float+0x2b6>
    5c0e:	401c                	lw	a5,0(s0)
    5c10:	8b85                	andi	a5,a5,1
    5c12:	dbdd                	beqz	a5,5bc8 <_printf_float+0x26a>
    5c14:	86e2                	mv	a3,s8
    5c16:	865e                	mv	a2,s7
    5c18:	85ca                	mv	a1,s2
    5c1a:	8526                	mv	a0,s1
    5c1c:	9982                	jalr	s3
    5c1e:	57fd                	li	a5,-1
    5c20:	e2f50de3          	beq	a0,a5,5a5a <_printf_float+0xfc>
    5c24:	4a01                	li	s4,0
    5c26:	01a40a93          	addi	s5,s0,26
    5c2a:	5b7d                	li	s6,-1
    5c2c:	57e2                	lw	a5,56(sp)
    5c2e:	17fd                	addi	a5,a5,-1
    5c30:	f8fa5ce3          	bge	s4,a5,5bc8 <_printf_float+0x26a>
    5c34:	4685                	li	a3,1
    5c36:	8656                	mv	a2,s5
    5c38:	85ca                	mv	a1,s2
    5c3a:	8526                	mv	a0,s1
    5c3c:	9982                	jalr	s3
    5c3e:	e1650ee3          	beq	a0,s6,5a5a <_printf_float+0xfc>
    5c42:	0a05                	addi	s4,s4,1
    5c44:	b7e5                	j	5c2c <_printf_float+0x2ce>
    5c46:	57d2                	lw	a5,52(sp)
    5c48:	06f04663          	bgtz	a5,5cb4 <_printf_float+0x356>
    5c4c:	4685                	li	a3,1
    5c4e:	00003617          	auipc	a2,0x3
    5c52:	f6a60613          	addi	a2,a2,-150 # 8bb8 <__clz_tab+0x11c>
    5c56:	85ca                	mv	a1,s2
    5c58:	8526                	mv	a0,s1
    5c5a:	9982                	jalr	s3
    5c5c:	df950fe3          	beq	a0,s9,5a5a <_printf_float+0xfc>
    5c60:	57d2                	lw	a5,52(sp)
    5c62:	5762                	lw	a4,56(sp)
    5c64:	8fd9                	or	a5,a5,a4
    5c66:	e781                	bnez	a5,5c6e <_printf_float+0x310>
    5c68:	401c                	lw	a5,0(s0)
    5c6a:	8b85                	andi	a5,a5,1
    5c6c:	dfb1                	beqz	a5,5bc8 <_printf_float+0x26a>
    5c6e:	86e2                	mv	a3,s8
    5c70:	865e                	mv	a2,s7
    5c72:	85ca                	mv	a1,s2
    5c74:	8526                	mv	a0,s1
    5c76:	9982                	jalr	s3
    5c78:	57fd                	li	a5,-1
    5c7a:	def500e3          	beq	a0,a5,5a5a <_printf_float+0xfc>
    5c7e:	4a01                	li	s4,0
    5c80:	01a40b13          	addi	s6,s0,26
    5c84:	5bfd                	li	s7,-1
    5c86:	57d2                	lw	a5,52(sp)
    5c88:	40f007b3          	neg	a5,a5
    5c8c:	00fa4b63          	blt	s4,a5,5ca2 <_printf_float+0x344>
    5c90:	56e2                	lw	a3,56(sp)
    5c92:	8656                	mv	a2,s5
    5c94:	85ca                	mv	a1,s2
    5c96:	8526                	mv	a0,s1
    5c98:	9982                	jalr	s3
    5c9a:	57fd                	li	a5,-1
    5c9c:	f2f516e3          	bne	a0,a5,5bc8 <_printf_float+0x26a>
    5ca0:	bb6d                	j	5a5a <_printf_float+0xfc>
    5ca2:	4685                	li	a3,1
    5ca4:	865a                	mv	a2,s6
    5ca6:	85ca                	mv	a1,s2
    5ca8:	8526                	mv	a0,s1
    5caa:	9982                	jalr	s3
    5cac:	db7507e3          	beq	a0,s7,5a5a <_printf_float+0xfc>
    5cb0:	0a05                	addi	s4,s4,1
    5cb2:	bfd1                	j	5c86 <_printf_float+0x328>
    5cb4:	4c3c                	lw	a5,88(s0)
    5cb6:	5a62                	lw	s4,56(sp)
    5cb8:	0147d363          	bge	a5,s4,5cbe <_printf_float+0x360>
    5cbc:	8a3e                	mv	s4,a5
    5cbe:	01405a63          	blez	s4,5cd2 <_printf_float+0x374>
    5cc2:	86d2                	mv	a3,s4
    5cc4:	8656                	mv	a2,s5
    5cc6:	85ca                	mv	a1,s2
    5cc8:	8526                	mv	a0,s1
    5cca:	9982                	jalr	s3
    5ccc:	57fd                	li	a5,-1
    5cce:	d8f506e3          	beq	a0,a5,5a5a <_printf_float+0xfc>
    5cd2:	4c81                	li	s9,0
    5cd4:	01a40d13          	addi	s10,s0,26
    5cd8:	5dfd                	li	s11,-1
    5cda:	a809                	j	5cec <_printf_float+0x38e>
    5cdc:	4685                	li	a3,1
    5cde:	866a                	mv	a2,s10
    5ce0:	85ca                	mv	a1,s2
    5ce2:	8526                	mv	a0,s1
    5ce4:	9982                	jalr	s3
    5ce6:	d7b50ae3          	beq	a0,s11,5a5a <_printf_float+0xfc>
    5cea:	0c85                	addi	s9,s9,1
    5cec:	05842b03          	lw	s6,88(s0)
    5cf0:	87d2                	mv	a5,s4
    5cf2:	000a5363          	bgez	s4,5cf8 <_printf_float+0x39a>
    5cf6:	4781                	li	a5,0
    5cf8:	40fb07b3          	sub	a5,s6,a5
    5cfc:	fefcc0e3          	blt	s9,a5,5cdc <_printf_float+0x37e>
    5d00:	5752                	lw	a4,52(sp)
    5d02:	57e2                	lw	a5,56(sp)
    5d04:	02f74d63          	blt	a4,a5,5d3e <_printf_float+0x3e0>
    5d08:	401c                	lw	a5,0(s0)
    5d0a:	8b85                	andi	a5,a5,1
    5d0c:	eb8d                	bnez	a5,5d3e <_printf_float+0x3e0>
    5d0e:	57e2                	lw	a5,56(sp)
    5d10:	5752                	lw	a4,52(sp)
    5d12:	40e78a33          	sub	s4,a5,a4
    5d16:	00eb4463          	blt	s6,a4,5d1e <_printf_float+0x3c0>
    5d1a:	41678a33          	sub	s4,a5,s6
    5d1e:	01405b63          	blez	s4,5d34 <_printf_float+0x3d6>
    5d22:	86d2                	mv	a3,s4
    5d24:	016a8633          	add	a2,s5,s6
    5d28:	85ca                	mv	a1,s2
    5d2a:	8526                	mv	a0,s1
    5d2c:	9982                	jalr	s3
    5d2e:	57fd                	li	a5,-1
    5d30:	d2f505e3          	beq	a0,a5,5a5a <_printf_float+0xfc>
    5d34:	4a81                	li	s5,0
    5d36:	01a40b13          	addi	s6,s0,26
    5d3a:	5bfd                	li	s7,-1
    5d3c:	a015                	j	5d60 <_printf_float+0x402>
    5d3e:	86e2                	mv	a3,s8
    5d40:	865e                	mv	a2,s7
    5d42:	85ca                	mv	a1,s2
    5d44:	8526                	mv	a0,s1
    5d46:	9982                	jalr	s3
    5d48:	57fd                	li	a5,-1
    5d4a:	fcf512e3          	bne	a0,a5,5d0e <_printf_float+0x3b0>
    5d4e:	b331                	j	5a5a <_printf_float+0xfc>
    5d50:	4685                	li	a3,1
    5d52:	865a                	mv	a2,s6
    5d54:	85ca                	mv	a1,s2
    5d56:	8526                	mv	a0,s1
    5d58:	9982                	jalr	s3
    5d5a:	d17500e3          	beq	a0,s7,5a5a <_printf_float+0xfc>
    5d5e:	0a85                	addi	s5,s5,1
    5d60:	5752                	lw	a4,52(sp)
    5d62:	57e2                	lw	a5,56(sp)
    5d64:	8f99                	sub	a5,a5,a4
    5d66:	8752                	mv	a4,s4
    5d68:	000a5363          	bgez	s4,5d6e <_printf_float+0x410>
    5d6c:	4701                	li	a4,0
    5d6e:	8f99                	sub	a5,a5,a4
    5d70:	fefac0e3          	blt	s5,a5,5d50 <_printf_float+0x3f2>
    5d74:	bd91                	j	5bc8 <_printf_float+0x26a>
    5d76:	56e2                	lw	a3,56(sp)
    5d78:	4705                	li	a4,1
    5d7a:	00d74463          	blt	a4,a3,5d82 <_printf_float+0x424>
    5d7e:	8b85                	andi	a5,a5,1
    5d80:	c7b5                	beqz	a5,5dec <_printf_float+0x48e>
    5d82:	4685                	li	a3,1
    5d84:	8656                	mv	a2,s5
    5d86:	85ca                	mv	a1,s2
    5d88:	8526                	mv	a0,s1
    5d8a:	9982                	jalr	s3
    5d8c:	5a7d                	li	s4,-1
    5d8e:	cd4506e3          	beq	a0,s4,5a5a <_printf_float+0xfc>
    5d92:	86e2                	mv	a3,s8
    5d94:	865e                	mv	a2,s7
    5d96:	85ca                	mv	a1,s2
    5d98:	8526                	mv	a0,s1
    5d9a:	9982                	jalr	s3
    5d9c:	cb450fe3          	beq	a0,s4,5a5a <_printf_float+0xfc>
    5da0:	4428                	lw	a0,72(s0)
    5da2:	446c                	lw	a1,76(s0)
    5da4:	4601                	li	a2,0
    5da6:	4681                	li	a3,0
    5da8:	b27fe0ef          	jal	ra,48ce <__eqdf2>
    5dac:	c91d                	beqz	a0,5de2 <_printf_float+0x484>
    5dae:	56e2                	lw	a3,56(sp)
    5db0:	001a8613          	addi	a2,s5,1
    5db4:	85ca                	mv	a1,s2
    5db6:	16fd                	addi	a3,a3,-1
    5db8:	8526                	mv	a0,s1
    5dba:	9982                	jalr	s3
    5dbc:	c9450fe3          	beq	a0,s4,5a5a <_printf_float+0xfc>
    5dc0:	86da                	mv	a3,s6
    5dc2:	05040613          	addi	a2,s0,80
    5dc6:	b5f9                	j	5c94 <_printf_float+0x336>
    5dc8:	4685                	li	a3,1
    5dca:	8656                	mv	a2,s5
    5dcc:	85ca                	mv	a1,s2
    5dce:	8526                	mv	a0,s1
    5dd0:	9982                	jalr	s3
    5dd2:	c97504e3          	beq	a0,s7,5a5a <_printf_float+0xfc>
    5dd6:	0a05                	addi	s4,s4,1
    5dd8:	57e2                	lw	a5,56(sp)
    5dda:	17fd                	addi	a5,a5,-1
    5ddc:	fefa46e3          	blt	s4,a5,5dc8 <_printf_float+0x46a>
    5de0:	b7c5                	j	5dc0 <_printf_float+0x462>
    5de2:	4a01                	li	s4,0
    5de4:	01a40a93          	addi	s5,s0,26
    5de8:	5bfd                	li	s7,-1
    5dea:	b7fd                	j	5dd8 <_printf_float+0x47a>
    5dec:	4685                	li	a3,1
    5dee:	8656                	mv	a2,s5
    5df0:	85ca                	mv	a1,s2
    5df2:	8526                	mv	a0,s1
    5df4:	9982                	jalr	s3
    5df6:	fd9515e3          	bne	a0,s9,5dc0 <_printf_float+0x462>
    5dfa:	b185                	j	5a5a <_printf_float+0xfc>
    5dfc:	4685                	li	a3,1
    5dfe:	8656                	mv	a2,s5
    5e00:	85ca                	mv	a1,s2
    5e02:	8526                	mv	a0,s1
    5e04:	9982                	jalr	s3
    5e06:	c5650ae3          	beq	a0,s6,5a5a <_printf_float+0xfc>
    5e0a:	0a05                	addi	s4,s4,1
    5e0c:	445c                	lw	a5,12(s0)
    5e0e:	5772                	lw	a4,60(sp)
    5e10:	8f99                	sub	a5,a5,a4
    5e12:	fefa45e3          	blt	s4,a5,5dfc <_printf_float+0x49e>
    5e16:	bb6d                	j	5bd0 <_printf_float+0x272>
    5e18:	4a01                	li	s4,0
    5e1a:	01940a93          	addi	s5,s0,25
    5e1e:	5b7d                	li	s6,-1
    5e20:	b7f5                	j	5e0c <_printf_float+0x4ae>

00005e22 <_printf_common>:
_printf_common():
    5e22:	7179                	addi	sp,sp,-48
    5e24:	ca56                	sw	s5,20(sp)
    5e26:	499c                	lw	a5,16(a1)
    5e28:	8aba                	mv	s5,a4
    5e2a:	4598                	lw	a4,8(a1)
    5e2c:	d422                	sw	s0,40(sp)
    5e2e:	d226                	sw	s1,36(sp)
    5e30:	ce4e                	sw	s3,28(sp)
    5e32:	cc52                	sw	s4,24(sp)
    5e34:	d606                	sw	ra,44(sp)
    5e36:	d04a                	sw	s2,32(sp)
    5e38:	c85a                	sw	s6,16(sp)
    5e3a:	c65e                	sw	s7,12(sp)
    5e3c:	89aa                	mv	s3,a0
    5e3e:	842e                	mv	s0,a1
    5e40:	84b2                	mv	s1,a2
    5e42:	8a36                	mv	s4,a3
    5e44:	00e7d363          	bge	a5,a4,5e4a <_printf_common+0x28>
    5e48:	87ba                	mv	a5,a4
    5e4a:	c09c                	sw	a5,0(s1)
    5e4c:	04344703          	lbu	a4,67(s0)
    5e50:	c319                	beqz	a4,5e56 <_printf_common+0x34>
    5e52:	0785                	addi	a5,a5,1
    5e54:	c09c                	sw	a5,0(s1)
    5e56:	401c                	lw	a5,0(s0)
    5e58:	0207f793          	andi	a5,a5,32
    5e5c:	c781                	beqz	a5,5e64 <_printf_common+0x42>
    5e5e:	409c                	lw	a5,0(s1)
    5e60:	0789                	addi	a5,a5,2
    5e62:	c09c                	sw	a5,0(s1)
    5e64:	00042903          	lw	s2,0(s0)
    5e68:	00697913          	andi	s2,s2,6
    5e6c:	00091a63          	bnez	s2,5e80 <_printf_common+0x5e>
    5e70:	01940b13          	addi	s6,s0,25
    5e74:	5bfd                	li	s7,-1
    5e76:	445c                	lw	a5,12(s0)
    5e78:	4098                	lw	a4,0(s1)
    5e7a:	8f99                	sub	a5,a5,a4
    5e7c:	04f94c63          	blt	s2,a5,5ed4 <_printf_common+0xb2>
    5e80:	401c                	lw	a5,0(s0)
    5e82:	04344683          	lbu	a3,67(s0)
    5e86:	0207f793          	andi	a5,a5,32
    5e8a:	00d036b3          	snez	a3,a3
    5e8e:	eba5                	bnez	a5,5efe <_printf_common+0xdc>
    5e90:	04340613          	addi	a2,s0,67
    5e94:	85d2                	mv	a1,s4
    5e96:	854e                	mv	a0,s3
    5e98:	9a82                	jalr	s5
    5e9a:	57fd                	li	a5,-1
    5e9c:	04f50363          	beq	a0,a5,5ee2 <_printf_common+0xc0>
    5ea0:	401c                	lw	a5,0(s0)
    5ea2:	4611                	li	a2,4
    5ea4:	4098                	lw	a4,0(s1)
    5ea6:	8b99                	andi	a5,a5,6
    5ea8:	4454                	lw	a3,12(s0)
    5eaa:	4481                	li	s1,0
    5eac:	00c79763          	bne	a5,a2,5eba <_printf_common+0x98>
    5eb0:	40e684b3          	sub	s1,a3,a4
    5eb4:	0004d363          	bgez	s1,5eba <_printf_common+0x98>
    5eb8:	4481                	li	s1,0
    5eba:	441c                	lw	a5,8(s0)
    5ebc:	4818                	lw	a4,16(s0)
    5ebe:	00f75463          	bge	a4,a5,5ec6 <_printf_common+0xa4>
    5ec2:	8f99                	sub	a5,a5,a4
    5ec4:	94be                	add	s1,s1,a5
    5ec6:	4901                	li	s2,0
    5ec8:	0469                	addi	s0,s0,26
    5eca:	5b7d                	li	s6,-1
    5ecc:	05249863          	bne	s1,s2,5f1c <_printf_common+0xfa>
    5ed0:	4501                	li	a0,0
    5ed2:	a809                	j	5ee4 <_printf_common+0xc2>
    5ed4:	4685                	li	a3,1
    5ed6:	865a                	mv	a2,s6
    5ed8:	85d2                	mv	a1,s4
    5eda:	854e                	mv	a0,s3
    5edc:	9a82                	jalr	s5
    5ede:	01751e63          	bne	a0,s7,5efa <_printf_common+0xd8>
    5ee2:	557d                	li	a0,-1
    5ee4:	50b2                	lw	ra,44(sp)
    5ee6:	5422                	lw	s0,40(sp)
    5ee8:	5492                	lw	s1,36(sp)
    5eea:	5902                	lw	s2,32(sp)
    5eec:	49f2                	lw	s3,28(sp)
    5eee:	4a62                	lw	s4,24(sp)
    5ef0:	4ad2                	lw	s5,20(sp)
    5ef2:	4b42                	lw	s6,16(sp)
    5ef4:	4bb2                	lw	s7,12(sp)
    5ef6:	6145                	addi	sp,sp,48
    5ef8:	8082                	ret
    5efa:	0905                	addi	s2,s2,1
    5efc:	bfad                	j	5e76 <_printf_common+0x54>
    5efe:	00d40733          	add	a4,s0,a3
    5f02:	03000613          	li	a2,48
    5f06:	04c701a3          	sb	a2,67(a4)
    5f0a:	04544703          	lbu	a4,69(s0)
    5f0e:	00168793          	addi	a5,a3,1
    5f12:	97a2                	add	a5,a5,s0
    5f14:	0689                	addi	a3,a3,2
    5f16:	04e781a3          	sb	a4,67(a5)
    5f1a:	bf9d                	j	5e90 <_printf_common+0x6e>
    5f1c:	4685                	li	a3,1
    5f1e:	8622                	mv	a2,s0
    5f20:	85d2                	mv	a1,s4
    5f22:	854e                	mv	a0,s3
    5f24:	9a82                	jalr	s5
    5f26:	fb650ee3          	beq	a0,s6,5ee2 <_printf_common+0xc0>
    5f2a:	0905                	addi	s2,s2,1
    5f2c:	b745                	j	5ecc <_printf_common+0xaa>

00005f2e <_printf_i>:
_printf_i():
    5f2e:	7179                	addi	sp,sp,-48
    5f30:	d422                	sw	s0,40(sp)
    5f32:	d226                	sw	s1,36(sp)
    5f34:	d04a                	sw	s2,32(sp)
    5f36:	ce4e                	sw	s3,28(sp)
    5f38:	d606                	sw	ra,44(sp)
    5f3a:	cc52                	sw	s4,24(sp)
    5f3c:	ca56                	sw	s5,20(sp)
    5f3e:	c85a                	sw	s6,16(sp)
    5f40:	89b6                	mv	s3,a3
    5f42:	0185c683          	lbu	a3,24(a1)
    5f46:	06900793          	li	a5,105
    5f4a:	8932                	mv	s2,a2
    5f4c:	84aa                	mv	s1,a0
    5f4e:	842e                	mv	s0,a1
    5f50:	04358613          	addi	a2,a1,67
    5f54:	02f68d63          	beq	a3,a5,5f8e <_printf_i+0x60>
    5f58:	06d7e263          	bltu	a5,a3,5fbc <_printf_i+0x8e>
    5f5c:	05800793          	li	a5,88
    5f60:	18f68963          	beq	a3,a5,60f2 <_printf_i+0x1c4>
    5f64:	00d7ed63          	bltu	a5,a3,5f7e <_printf_i+0x50>
    5f68:	22068263          	beqz	a3,618c <_printf_i+0x25e>
    5f6c:	04300793          	li	a5,67
    5f70:	0af68f63          	beq	a3,a5,602e <_printf_i+0x100>
    5f74:	04240a93          	addi	s5,s0,66
    5f78:	04d40123          	sb	a3,66(s0)
    5f7c:	a0d1                	j	6040 <_printf_i+0x112>
    5f7e:	06300793          	li	a5,99
    5f82:	0af68663          	beq	a3,a5,602e <_printf_i+0x100>
    5f86:	06400793          	li	a5,100
    5f8a:	fef695e3          	bne	a3,a5,5f74 <_printf_i+0x46>
    5f8e:	401c                	lw	a5,0(s0)
    5f90:	4308                	lw	a0,0(a4)
    5f92:	0807f693          	andi	a3,a5,128
    5f96:	00450593          	addi	a1,a0,4
    5f9a:	c6cd                	beqz	a3,6044 <_printf_i+0x116>
    5f9c:	411c                	lw	a5,0(a0)
    5f9e:	c30c                	sw	a1,0(a4)
    5fa0:	0007d863          	bgez	a5,5fb0 <_printf_i+0x82>
    5fa4:	02d00713          	li	a4,45
    5fa8:	40f007b3          	neg	a5,a5
    5fac:	04e401a3          	sb	a4,67(s0)
    5fb0:	00003697          	auipc	a3,0x3
    5fb4:	c0c68693          	addi	a3,a3,-1012 # 8bbc <__clz_tab+0x120>
    5fb8:	4729                	li	a4,10
    5fba:	a875                	j	6076 <_printf_i+0x148>
    5fbc:	07000793          	li	a5,112
    5fc0:	16f68563          	beq	a3,a5,612a <_printf_i+0x1fc>
    5fc4:	02d7e563          	bltu	a5,a3,5fee <_printf_i+0xc0>
    5fc8:	06e00793          	li	a5,110
    5fcc:	18f68c63          	beq	a3,a5,6164 <_printf_i+0x236>
    5fd0:	06f00793          	li	a5,111
    5fd4:	faf690e3          	bne	a3,a5,5f74 <_printf_i+0x46>
    5fd8:	400c                	lw	a1,0(s0)
    5fda:	431c                	lw	a5,0(a4)
    5fdc:	0805f813          	andi	a6,a1,128
    5fe0:	00478513          	addi	a0,a5,4
    5fe4:	06080863          	beqz	a6,6054 <_printf_i+0x126>
    5fe8:	c308                	sw	a0,0(a4)
    5fea:	439c                	lw	a5,0(a5)
    5fec:	a895                	j	6060 <_printf_i+0x132>
    5fee:	07500793          	li	a5,117
    5ff2:	fef683e3          	beq	a3,a5,5fd8 <_printf_i+0xaa>
    5ff6:	07800793          	li	a5,120
    5ffa:	12f68c63          	beq	a3,a5,6132 <_printf_i+0x204>
    5ffe:	07300793          	li	a5,115
    6002:	f6f699e3          	bne	a3,a5,5f74 <_printf_i+0x46>
    6006:	431c                	lw	a5,0(a4)
    6008:	41d0                	lw	a2,4(a1)
    600a:	4581                	li	a1,0
    600c:	00478693          	addi	a3,a5,4
    6010:	c314                	sw	a3,0(a4)
    6012:	0007aa83          	lw	s5,0(a5)
    6016:	8556                	mv	a0,s5
    6018:	63e010ef          	jal	ra,7656 <memchr>
    601c:	c501                	beqz	a0,6024 <_printf_i+0xf6>
    601e:	41550533          	sub	a0,a0,s5
    6022:	c048                	sw	a0,4(s0)
    6024:	405c                	lw	a5,4(s0)
    6026:	c81c                	sw	a5,16(s0)
    6028:	040401a3          	sb	zero,67(s0)
    602c:	a871                	j	60c8 <_printf_i+0x19a>
    602e:	431c                	lw	a5,0(a4)
    6030:	04240a93          	addi	s5,s0,66
    6034:	00478693          	addi	a3,a5,4
    6038:	439c                	lw	a5,0(a5)
    603a:	c314                	sw	a3,0(a4)
    603c:	04f40123          	sb	a5,66(s0)
    6040:	4785                	li	a5,1
    6042:	b7d5                	j	6026 <_printf_i+0xf8>
    6044:	0407f693          	andi	a3,a5,64
    6048:	411c                	lw	a5,0(a0)
    604a:	c30c                	sw	a1,0(a4)
    604c:	dab1                	beqz	a3,5fa0 <_printf_i+0x72>
    604e:	07c2                	slli	a5,a5,0x10
    6050:	87c1                	srai	a5,a5,0x10
    6052:	b7b9                	j	5fa0 <_printf_i+0x72>
    6054:	0405f593          	andi	a1,a1,64
    6058:	c308                	sw	a0,0(a4)
    605a:	d9c1                	beqz	a1,5fea <_printf_i+0xbc>
    605c:	0007d783          	lhu	a5,0(a5)
    6060:	06f00713          	li	a4,111
    6064:	0ee68863          	beq	a3,a4,6154 <_printf_i+0x226>
    6068:	00003697          	auipc	a3,0x3
    606c:	b5468693          	addi	a3,a3,-1196 # 8bbc <__clz_tab+0x120>
    6070:	4729                	li	a4,10
    6072:	040401a3          	sb	zero,67(s0)
    6076:	404c                	lw	a1,4(s0)
    6078:	c40c                	sw	a1,8(s0)
    607a:	0005c563          	bltz	a1,6084 <_printf_i+0x156>
    607e:	4008                	lw	a0,0(s0)
    6080:	996d                	andi	a0,a0,-5
    6082:	c008                	sw	a0,0(s0)
    6084:	e399                	bnez	a5,608a <_printf_i+0x15c>
    6086:	8ab2                	mv	s5,a2
    6088:	cd91                	beqz	a1,60a4 <_printf_i+0x176>
    608a:	8ab2                	mv	s5,a2
    608c:	02e7f5b3          	remu	a1,a5,a4
    6090:	1afd                	addi	s5,s5,-1
    6092:	95b6                	add	a1,a1,a3
    6094:	0005c583          	lbu	a1,0(a1)
    6098:	00ba8023          	sb	a1,0(s5)
    609c:	02e7d5b3          	divu	a1,a5,a4
    60a0:	0ce7f063          	bgeu	a5,a4,6160 <_printf_i+0x232>
    60a4:	47a1                	li	a5,8
    60a6:	00f71e63          	bne	a4,a5,60c2 <_printf_i+0x194>
    60aa:	401c                	lw	a5,0(s0)
    60ac:	8b85                	andi	a5,a5,1
    60ae:	cb91                	beqz	a5,60c2 <_printf_i+0x194>
    60b0:	4058                	lw	a4,4(s0)
    60b2:	481c                	lw	a5,16(s0)
    60b4:	00e7c763          	blt	a5,a4,60c2 <_printf_i+0x194>
    60b8:	03000793          	li	a5,48
    60bc:	fefa8fa3          	sb	a5,-1(s5)
    60c0:	1afd                	addi	s5,s5,-1
    60c2:	41560633          	sub	a2,a2,s5
    60c6:	c810                	sw	a2,16(s0)
    60c8:	874e                	mv	a4,s3
    60ca:	86ca                	mv	a3,s2
    60cc:	0070                	addi	a2,sp,12
    60ce:	85a2                	mv	a1,s0
    60d0:	8526                	mv	a0,s1
    60d2:	d51ff0ef          	jal	ra,5e22 <_printf_common>
    60d6:	5a7d                	li	s4,-1
    60d8:	0b451e63          	bne	a0,s4,6194 <_printf_i+0x266>
    60dc:	557d                	li	a0,-1
    60de:	50b2                	lw	ra,44(sp)
    60e0:	5422                	lw	s0,40(sp)
    60e2:	5492                	lw	s1,36(sp)
    60e4:	5902                	lw	s2,32(sp)
    60e6:	49f2                	lw	s3,28(sp)
    60e8:	4a62                	lw	s4,24(sp)
    60ea:	4ad2                	lw	s5,20(sp)
    60ec:	4b42                	lw	s6,16(sp)
    60ee:	6145                	addi	sp,sp,48
    60f0:	8082                	ret
    60f2:	04d582a3          	sb	a3,69(a1)
    60f6:	00003697          	auipc	a3,0x3
    60fa:	ac668693          	addi	a3,a3,-1338 # 8bbc <__clz_tab+0x120>
    60fe:	400c                	lw	a1,0(s0)
    6100:	4308                	lw	a0,0(a4)
    6102:	0805f813          	andi	a6,a1,128
    6106:	411c                	lw	a5,0(a0)
    6108:	0511                	addi	a0,a0,4
    610a:	02080d63          	beqz	a6,6144 <_printf_i+0x216>
    610e:	c308                	sw	a0,0(a4)
    6110:	0015f713          	andi	a4,a1,1
    6114:	c701                	beqz	a4,611c <_printf_i+0x1ee>
    6116:	0205e593          	ori	a1,a1,32
    611a:	c00c                	sw	a1,0(s0)
    611c:	4741                	li	a4,16
    611e:	fbb1                	bnez	a5,6072 <_printf_i+0x144>
    6120:	400c                	lw	a1,0(s0)
    6122:	fdf5f593          	andi	a1,a1,-33
    6126:	c00c                	sw	a1,0(s0)
    6128:	b7a9                	j	6072 <_printf_i+0x144>
    612a:	419c                	lw	a5,0(a1)
    612c:	0207e793          	ori	a5,a5,32
    6130:	c19c                	sw	a5,0(a1)
    6132:	07800793          	li	a5,120
    6136:	04f402a3          	sb	a5,69(s0)
    613a:	00003697          	auipc	a3,0x3
    613e:	a9668693          	addi	a3,a3,-1386 # 8bd0 <__clz_tab+0x134>
    6142:	bf75                	j	60fe <_printf_i+0x1d0>
    6144:	0405f813          	andi	a6,a1,64
    6148:	c308                	sw	a0,0(a4)
    614a:	fc0803e3          	beqz	a6,6110 <_printf_i+0x1e2>
    614e:	07c2                	slli	a5,a5,0x10
    6150:	83c1                	srli	a5,a5,0x10
    6152:	bf7d                	j	6110 <_printf_i+0x1e2>
    6154:	00003697          	auipc	a3,0x3
    6158:	a6868693          	addi	a3,a3,-1432 # 8bbc <__clz_tab+0x120>
    615c:	4721                	li	a4,8
    615e:	bf11                	j	6072 <_printf_i+0x144>
    6160:	87ae                	mv	a5,a1
    6162:	b72d                	j	608c <_printf_i+0x15e>
    6164:	4194                	lw	a3,0(a1)
    6166:	431c                	lw	a5,0(a4)
    6168:	49cc                	lw	a1,20(a1)
    616a:	0806f813          	andi	a6,a3,128
    616e:	00478513          	addi	a0,a5,4
    6172:	00080663          	beqz	a6,617e <_printf_i+0x250>
    6176:	c308                	sw	a0,0(a4)
    6178:	439c                	lw	a5,0(a5)
    617a:	c38c                	sw	a1,0(a5)
    617c:	a801                	j	618c <_printf_i+0x25e>
    617e:	c308                	sw	a0,0(a4)
    6180:	0406f693          	andi	a3,a3,64
    6184:	439c                	lw	a5,0(a5)
    6186:	daf5                	beqz	a3,617a <_printf_i+0x24c>
    6188:	00b79023          	sh	a1,0(a5)
    618c:	00042823          	sw	zero,16(s0)
    6190:	8ab2                	mv	s5,a2
    6192:	bf1d                	j	60c8 <_printf_i+0x19a>
    6194:	4814                	lw	a3,16(s0)
    6196:	8656                	mv	a2,s5
    6198:	85ca                	mv	a1,s2
    619a:	8526                	mv	a0,s1
    619c:	9982                	jalr	s3
    619e:	f3450fe3          	beq	a0,s4,60dc <_printf_i+0x1ae>
    61a2:	401c                	lw	a5,0(s0)
    61a4:	8b89                	andi	a5,a5,2
    61a6:	e78d                	bnez	a5,61d0 <_printf_i+0x2a2>
    61a8:	47b2                	lw	a5,12(sp)
    61aa:	4448                	lw	a0,12(s0)
    61ac:	f2f559e3          	bge	a0,a5,60de <_printf_i+0x1b0>
    61b0:	853e                	mv	a0,a5
    61b2:	b735                	j	60de <_printf_i+0x1b0>
    61b4:	4685                	li	a3,1
    61b6:	8656                	mv	a2,s5
    61b8:	85ca                	mv	a1,s2
    61ba:	8526                	mv	a0,s1
    61bc:	9982                	jalr	s3
    61be:	f1650fe3          	beq	a0,s6,60dc <_printf_i+0x1ae>
    61c2:	0a05                	addi	s4,s4,1
    61c4:	445c                	lw	a5,12(s0)
    61c6:	4732                	lw	a4,12(sp)
    61c8:	8f99                	sub	a5,a5,a4
    61ca:	fefa45e3          	blt	s4,a5,61b4 <_printf_i+0x286>
    61ce:	bfe9                	j	61a8 <_printf_i+0x27a>
    61d0:	4a01                	li	s4,0
    61d2:	01940a93          	addi	s5,s0,25
    61d6:	5b7d                	li	s6,-1
    61d8:	b7f5                	j	61c4 <_printf_i+0x296>

000061da <iprintf>:
printf():
    61da:	7139                	addi	sp,sp,-64
    61dc:	da3e                	sw	a5,52(sp)
    61de:	d22e                	sw	a1,36(sp)
    61e0:	d432                	sw	a2,40(sp)
    61e2:	d636                	sw	a3,44(sp)
    61e4:	d83a                	sw	a4,48(sp)
    61e6:	dc42                	sw	a6,56(sp)
    61e8:	de46                	sw	a7,60(sp)
    61ea:	81018793          	addi	a5,gp,-2032 # 20000230 <_impure_ptr>
    61ee:	cc22                	sw	s0,24(sp)
    61f0:	4380                	lw	s0,0(a5)
    61f2:	ca26                	sw	s1,20(sp)
    61f4:	ce06                	sw	ra,28(sp)
    61f6:	84aa                	mv	s1,a0
    61f8:	c411                	beqz	s0,6204 <iprintf+0x2a>
    61fa:	4c1c                	lw	a5,24(s0)
    61fc:	e781                	bnez	a5,6204 <iprintf+0x2a>
    61fe:	8522                	mv	a0,s0
    6200:	1be010ef          	jal	ra,73be <__sinit>
    6204:	440c                	lw	a1,8(s0)
    6206:	1054                	addi	a3,sp,36
    6208:	8626                	mv	a2,s1
    620a:	8522                	mv	a0,s0
    620c:	c636                	sw	a3,12(sp)
    620e:	561010ef          	jal	ra,7f6e <_vfiprintf_r>
    6212:	40f2                	lw	ra,28(sp)
    6214:	4462                	lw	s0,24(sp)
    6216:	44d2                	lw	s1,20(sp)
    6218:	6121                	addi	sp,sp,64
    621a:	8082                	ret

0000621c <strlen>:
strlen():
    621c:	87aa                	mv	a5,a0
    621e:	0785                	addi	a5,a5,1
    6220:	fff7c703          	lbu	a4,-1(a5)
    6224:	ff6d                	bnez	a4,621e <strlen+0x2>
    6226:	40a78533          	sub	a0,a5,a0
    622a:	157d                	addi	a0,a0,-1
    622c:	8082                	ret

0000622e <__swbuf_r>:
__swbuf_r():
    622e:	1101                	addi	sp,sp,-32
    6230:	cc22                	sw	s0,24(sp)
    6232:	ca26                	sw	s1,20(sp)
    6234:	c84a                	sw	s2,16(sp)
    6236:	ce06                	sw	ra,28(sp)
    6238:	c64e                	sw	s3,12(sp)
    623a:	84aa                	mv	s1,a0
    623c:	892e                	mv	s2,a1
    623e:	8432                	mv	s0,a2
    6240:	c509                	beqz	a0,624a <__swbuf_r+0x1c>
    6242:	4d1c                	lw	a5,24(a0)
    6244:	e399                	bnez	a5,624a <__swbuf_r+0x1c>
    6246:	178010ef          	jal	ra,73be <__sinit>
    624a:	00003797          	auipc	a5,0x3
    624e:	a1678793          	addi	a5,a5,-1514 # 8c60 <__sf_fake_stdin>
    6252:	06f41b63          	bne	s0,a5,62c8 <__swbuf_r+0x9a>
    6256:	40c0                	lw	s0,4(s1)
    6258:	4c1c                	lw	a5,24(s0)
    625a:	c41c                	sw	a5,8(s0)
    625c:	00c45783          	lhu	a5,12(s0)
    6260:	8ba1                	andi	a5,a5,8
    6262:	c3d9                	beqz	a5,62e8 <__swbuf_r+0xba>
    6264:	481c                	lw	a5,16(s0)
    6266:	c3c9                	beqz	a5,62e8 <__swbuf_r+0xba>
    6268:	481c                	lw	a5,16(s0)
    626a:	4008                	lw	a0,0(s0)
    626c:	0ff97993          	andi	s3,s2,255
    6270:	0ff97913          	andi	s2,s2,255
    6274:	8d1d                	sub	a0,a0,a5
    6276:	485c                	lw	a5,20(s0)
    6278:	00f54763          	blt	a0,a5,6286 <__swbuf_r+0x58>
    627c:	85a2                	mv	a1,s0
    627e:	8526                	mv	a0,s1
    6280:	01c010ef          	jal	ra,729c <_fflush_r>
    6284:	e535                	bnez	a0,62f0 <__swbuf_r+0xc2>
    6286:	441c                	lw	a5,8(s0)
    6288:	0505                	addi	a0,a0,1
    628a:	17fd                	addi	a5,a5,-1
    628c:	c41c                	sw	a5,8(s0)
    628e:	401c                	lw	a5,0(s0)
    6290:	00178713          	addi	a4,a5,1
    6294:	c018                	sw	a4,0(s0)
    6296:	01378023          	sb	s3,0(a5)
    629a:	485c                	lw	a5,20(s0)
    629c:	00a78963          	beq	a5,a0,62ae <__swbuf_r+0x80>
    62a0:	00c45783          	lhu	a5,12(s0)
    62a4:	8b85                	andi	a5,a5,1
    62a6:	cb89                	beqz	a5,62b8 <__swbuf_r+0x8a>
    62a8:	47a9                	li	a5,10
    62aa:	00f91763          	bne	s2,a5,62b8 <__swbuf_r+0x8a>
    62ae:	85a2                	mv	a1,s0
    62b0:	8526                	mv	a0,s1
    62b2:	7eb000ef          	jal	ra,729c <_fflush_r>
    62b6:	ed0d                	bnez	a0,62f0 <__swbuf_r+0xc2>
    62b8:	40f2                	lw	ra,28(sp)
    62ba:	4462                	lw	s0,24(sp)
    62bc:	854a                	mv	a0,s2
    62be:	44d2                	lw	s1,20(sp)
    62c0:	4942                	lw	s2,16(sp)
    62c2:	49b2                	lw	s3,12(sp)
    62c4:	6105                	addi	sp,sp,32
    62c6:	8082                	ret
    62c8:	00003797          	auipc	a5,0x3
    62cc:	9b878793          	addi	a5,a5,-1608 # 8c80 <__sf_fake_stdout>
    62d0:	00f41463          	bne	s0,a5,62d8 <__swbuf_r+0xaa>
    62d4:	4480                	lw	s0,8(s1)
    62d6:	b749                	j	6258 <__swbuf_r+0x2a>
    62d8:	00003797          	auipc	a5,0x3
    62dc:	96878793          	addi	a5,a5,-1688 # 8c40 <__sf_fake_stderr>
    62e0:	f6f41ce3          	bne	s0,a5,6258 <__swbuf_r+0x2a>
    62e4:	44c0                	lw	s0,12(s1)
    62e6:	bf8d                	j	6258 <__swbuf_r+0x2a>
    62e8:	85a2                	mv	a1,s0
    62ea:	8526                	mv	a0,s1
    62ec:	2021                	jal	62f4 <__swsetup_r>
    62ee:	dd2d                	beqz	a0,6268 <__swbuf_r+0x3a>
    62f0:	597d                	li	s2,-1
    62f2:	b7d9                	j	62b8 <__swbuf_r+0x8a>

000062f4 <__swsetup_r>:
__swsetup_r():
    62f4:	1141                	addi	sp,sp,-16
    62f6:	81018793          	addi	a5,gp,-2032 # 20000230 <_impure_ptr>
    62fa:	c226                	sw	s1,4(sp)
    62fc:	4384                	lw	s1,0(a5)
    62fe:	c422                	sw	s0,8(sp)
    6300:	c04a                	sw	s2,0(sp)
    6302:	c606                	sw	ra,12(sp)
    6304:	892a                	mv	s2,a0
    6306:	842e                	mv	s0,a1
    6308:	c491                	beqz	s1,6314 <__swsetup_r+0x20>
    630a:	4c9c                	lw	a5,24(s1)
    630c:	e781                	bnez	a5,6314 <__swsetup_r+0x20>
    630e:	8526                	mv	a0,s1
    6310:	0ae010ef          	jal	ra,73be <__sinit>
    6314:	00003797          	auipc	a5,0x3
    6318:	94c78793          	addi	a5,a5,-1716 # 8c60 <__sf_fake_stdin>
    631c:	02f41c63          	bne	s0,a5,6354 <__swsetup_r+0x60>
    6320:	40c0                	lw	s0,4(s1)
    6322:	00c41703          	lh	a4,12(s0)
    6326:	01071793          	slli	a5,a4,0x10
    632a:	83c1                	srli	a5,a5,0x10
    632c:	0087f693          	andi	a3,a5,8
    6330:	eebd                	bnez	a3,63ae <__swsetup_r+0xba>
    6332:	0107f693          	andi	a3,a5,16
    6336:	ee9d                	bnez	a3,6374 <__swsetup_r+0x80>
    6338:	47a5                	li	a5,9
    633a:	00f92023          	sw	a5,0(s2) # 800000 <_data_lma+0x7f713c>
    633e:	04076713          	ori	a4,a4,64
    6342:	00e41623          	sh	a4,12(s0)
    6346:	557d                	li	a0,-1
    6348:	40b2                	lw	ra,12(sp)
    634a:	4422                	lw	s0,8(sp)
    634c:	4492                	lw	s1,4(sp)
    634e:	4902                	lw	s2,0(sp)
    6350:	0141                	addi	sp,sp,16
    6352:	8082                	ret
    6354:	00003797          	auipc	a5,0x3
    6358:	92c78793          	addi	a5,a5,-1748 # 8c80 <__sf_fake_stdout>
    635c:	00f41463          	bne	s0,a5,6364 <__swsetup_r+0x70>
    6360:	4480                	lw	s0,8(s1)
    6362:	b7c1                	j	6322 <__swsetup_r+0x2e>
    6364:	00003797          	auipc	a5,0x3
    6368:	8dc78793          	addi	a5,a5,-1828 # 8c40 <__sf_fake_stderr>
    636c:	faf41be3          	bne	s0,a5,6322 <__swsetup_r+0x2e>
    6370:	44c0                	lw	s0,12(s1)
    6372:	bf45                	j	6322 <__swsetup_r+0x2e>
    6374:	8b91                	andi	a5,a5,4
    6376:	c795                	beqz	a5,63a2 <__swsetup_r+0xae>
    6378:	584c                	lw	a1,52(s0)
    637a:	c991                	beqz	a1,638e <__swsetup_r+0x9a>
    637c:	04440793          	addi	a5,s0,68
    6380:	00f58563          	beq	a1,a5,638a <__swsetup_r+0x96>
    6384:	854a                	mv	a0,s2
    6386:	209010ef          	jal	ra,7d8e <_free_r>
    638a:	02042a23          	sw	zero,52(s0)
    638e:	00c45783          	lhu	a5,12(s0)
    6392:	00042223          	sw	zero,4(s0)
    6396:	fdb7f793          	andi	a5,a5,-37
    639a:	00f41623          	sh	a5,12(s0)
    639e:	481c                	lw	a5,16(s0)
    63a0:	c01c                	sw	a5,0(s0)
    63a2:	00c45783          	lhu	a5,12(s0)
    63a6:	0087e793          	ori	a5,a5,8
    63aa:	00f41623          	sh	a5,12(s0)
    63ae:	481c                	lw	a5,16(s0)
    63b0:	ef89                	bnez	a5,63ca <__swsetup_r+0xd6>
    63b2:	00c45783          	lhu	a5,12(s0)
    63b6:	20000713          	li	a4,512
    63ba:	2807f793          	andi	a5,a5,640
    63be:	00e78663          	beq	a5,a4,63ca <__swsetup_r+0xd6>
    63c2:	85a2                	mv	a1,s0
    63c4:	854a                	mv	a0,s2
    63c6:	1e2010ef          	jal	ra,75a8 <__smakebuf_r>
    63ca:	00c45783          	lhu	a5,12(s0)
    63ce:	0017f713          	andi	a4,a5,1
    63d2:	c705                	beqz	a4,63fa <__swsetup_r+0x106>
    63d4:	485c                	lw	a5,20(s0)
    63d6:	00042423          	sw	zero,8(s0)
    63da:	40f007b3          	neg	a5,a5
    63de:	cc1c                	sw	a5,24(s0)
    63e0:	481c                	lw	a5,16(s0)
    63e2:	4501                	li	a0,0
    63e4:	f3b5                	bnez	a5,6348 <__swsetup_r+0x54>
    63e6:	00c41783          	lh	a5,12(s0)
    63ea:	0807f713          	andi	a4,a5,128
    63ee:	df29                	beqz	a4,6348 <__swsetup_r+0x54>
    63f0:	0407e793          	ori	a5,a5,64
    63f4:	00f41623          	sh	a5,12(s0)
    63f8:	b7b9                	j	6346 <__swsetup_r+0x52>
    63fa:	8b89                	andi	a5,a5,2
    63fc:	4701                	li	a4,0
    63fe:	e391                	bnez	a5,6402 <__swsetup_r+0x10e>
    6400:	4858                	lw	a4,20(s0)
    6402:	c418                	sw	a4,8(s0)
    6404:	bff1                	j	63e0 <__swsetup_r+0xec>

00006406 <quorem>:
quorem():
    6406:	1101                	addi	sp,sp,-32
    6408:	cc22                	sw	s0,24(sp)
    640a:	491c                	lw	a5,16(a0)
    640c:	4980                	lw	s0,16(a1)
    640e:	ce06                	sw	ra,28(sp)
    6410:	ca26                	sw	s1,20(sp)
    6412:	c84a                	sw	s2,16(sp)
    6414:	c64e                	sw	s3,12(sp)
    6416:	c452                	sw	s4,8(sp)
    6418:	c256                	sw	s5,4(sp)
    641a:	1287c163          	blt	a5,s0,653c <quorem+0x136>
    641e:	147d                	addi	s0,s0,-1
    6420:	00241813          	slli	a6,s0,0x2
    6424:	01458993          	addi	s3,a1,20
    6428:	01098a33          	add	s4,s3,a6
    642c:	01450913          	addi	s2,a0,20
    6430:	984a                	add	a6,a6,s2
    6432:	000a2783          	lw	a5,0(s4)
    6436:	00082703          	lw	a4,0(a6)
    643a:	0785                	addi	a5,a5,1
    643c:	02f754b3          	divu	s1,a4,a5
    6440:	06f76663          	bltu	a4,a5,64ac <quorem+0xa6>
    6444:	68c1                	lui	a7,0x10
    6446:	834e                	mv	t1,s3
    6448:	8e4a                	mv	t3,s2
    644a:	4e81                	li	t4,0
    644c:	4f01                	li	t5,0
    644e:	18fd                	addi	a7,a7,-1
    6450:	0311                	addi	t1,t1,4
    6452:	ffc32603          	lw	a2,-4(t1)
    6456:	0e11                	addi	t3,t3,4
    6458:	01167733          	and	a4,a2,a7
    645c:	8241                	srli	a2,a2,0x10
    645e:	02970733          	mul	a4,a4,s1
    6462:	02960633          	mul	a2,a2,s1
    6466:	9776                	add	a4,a4,t4
    6468:	01075693          	srli	a3,a4,0x10
    646c:	011777b3          	and	a5,a4,a7
    6470:	40ff07b3          	sub	a5,t5,a5
    6474:	9636                	add	a2,a2,a3
    6476:	ffce2683          	lw	a3,-4(t3)
    647a:	01065e93          	srli	t4,a2,0x10
    647e:	01167633          	and	a2,a2,a7
    6482:	0116f733          	and	a4,a3,a7
    6486:	97ba                	add	a5,a5,a4
    6488:	82c1                	srli	a3,a3,0x10
    648a:	4107d713          	srai	a4,a5,0x10
    648e:	8e91                	sub	a3,a3,a2
    6490:	96ba                	add	a3,a3,a4
    6492:	4106df13          	srai	t5,a3,0x10
    6496:	0117f7b3          	and	a5,a5,a7
    649a:	06c2                	slli	a3,a3,0x10
    649c:	8fd5                	or	a5,a5,a3
    649e:	fefe2e23          	sw	a5,-4(t3)
    64a2:	fa6a77e3          	bgeu	s4,t1,6450 <quorem+0x4a>
    64a6:	00082783          	lw	a5,0(a6)
    64aa:	cbbd                	beqz	a5,6520 <quorem+0x11a>
    64ac:	8aaa                	mv	s5,a0
    64ae:	6c2010ef          	jal	ra,7b70 <__mcmp>
    64b2:	04054963          	bltz	a0,6504 <quorem+0xfe>
    64b6:	6641                	lui	a2,0x10
    64b8:	0485                	addi	s1,s1,1
    64ba:	85ca                	mv	a1,s2
    64bc:	4501                	li	a0,0
    64be:	167d                	addi	a2,a2,-1
    64c0:	0991                	addi	s3,s3,4
    64c2:	ffc9a803          	lw	a6,-4(s3)
    64c6:	4198                	lw	a4,0(a1)
    64c8:	0591                	addi	a1,a1,4
    64ca:	00c876b3          	and	a3,a6,a2
    64ce:	8d15                	sub	a0,a0,a3
    64d0:	00c776b3          	and	a3,a4,a2
    64d4:	96aa                	add	a3,a3,a0
    64d6:	01075793          	srli	a5,a4,0x10
    64da:	01085813          	srli	a6,a6,0x10
    64de:	4106d713          	srai	a4,a3,0x10
    64e2:	410787b3          	sub	a5,a5,a6
    64e6:	97ba                	add	a5,a5,a4
    64e8:	4107d513          	srai	a0,a5,0x10
    64ec:	8ef1                	and	a3,a3,a2
    64ee:	07c2                	slli	a5,a5,0x10
    64f0:	8fd5                	or	a5,a5,a3
    64f2:	fef5ae23          	sw	a5,-4(a1)
    64f6:	fd3a75e3          	bgeu	s4,s3,64c0 <quorem+0xba>
    64fa:	00241793          	slli	a5,s0,0x2
    64fe:	97ca                	add	a5,a5,s2
    6500:	4398                	lw	a4,0(a5)
    6502:	c71d                	beqz	a4,6530 <quorem+0x12a>
    6504:	8526                	mv	a0,s1
    6506:	40f2                	lw	ra,28(sp)
    6508:	4462                	lw	s0,24(sp)
    650a:	44d2                	lw	s1,20(sp)
    650c:	4942                	lw	s2,16(sp)
    650e:	49b2                	lw	s3,12(sp)
    6510:	4a22                	lw	s4,8(sp)
    6512:	4a92                	lw	s5,4(sp)
    6514:	6105                	addi	sp,sp,32
    6516:	8082                	ret
    6518:	00082783          	lw	a5,0(a6)
    651c:	e789                	bnez	a5,6526 <quorem+0x120>
    651e:	147d                	addi	s0,s0,-1
    6520:	1871                	addi	a6,a6,-4
    6522:	ff096be3          	bltu	s2,a6,6518 <quorem+0x112>
    6526:	c900                	sw	s0,16(a0)
    6528:	b751                	j	64ac <quorem+0xa6>
    652a:	4398                	lw	a4,0(a5)
    652c:	e709                	bnez	a4,6536 <quorem+0x130>
    652e:	147d                	addi	s0,s0,-1
    6530:	17f1                	addi	a5,a5,-4
    6532:	fef96ce3          	bltu	s2,a5,652a <quorem+0x124>
    6536:	008aa823          	sw	s0,16(s5)
    653a:	b7e9                	j	6504 <quorem+0xfe>
    653c:	4501                	li	a0,0
    653e:	b7e1                	j	6506 <quorem+0x100>

00006540 <_dtoa_r>:
_dtoa_r():
    6540:	7175                	addi	sp,sp,-144
    6542:	d83e                	sw	a5,48(sp)
    6544:	515c                	lw	a5,36(a0)
    6546:	c522                	sw	s0,136(sp)
    6548:	c326                	sw	s1,132(sp)
    654a:	c14a                	sw	s2,128(sp)
    654c:	dece                	sw	s3,124(sp)
    654e:	dcd2                	sw	s4,120(sp)
    6550:	d4e2                	sw	s8,104(sp)
    6552:	c706                	sw	ra,140(sp)
    6554:	dad6                	sw	s5,116(sp)
    6556:	d8da                	sw	s6,112(sp)
    6558:	d6de                	sw	s7,108(sp)
    655a:	d2e6                	sw	s9,100(sp)
    655c:	d0ea                	sw	s10,96(sp)
    655e:	ceee                	sw	s11,92(sp)
    6560:	c236                	sw	a3,4(sp)
    6562:	c63a                	sw	a4,12(sp)
    6564:	ca46                	sw	a7,20(sp)
    6566:	84aa                	mv	s1,a0
    6568:	842e                	mv	s0,a1
    656a:	8932                	mv	s2,a2
    656c:	89c2                	mv	s3,a6
    656e:	8a2e                	mv	s4,a1
    6570:	8c32                	mv	s8,a2
    6572:	ef89                	bnez	a5,658c <_dtoa_r+0x4c>
    6574:	4541                	li	a0,16
    6576:	0d4010ef          	jal	ra,764a <malloc>
    657a:	d0c8                	sw	a0,36(s1)
    657c:	00052223          	sw	zero,4(a0)
    6580:	00052423          	sw	zero,8(a0)
    6584:	00052023          	sw	zero,0(a0)
    6588:	00052623          	sw	zero,12(a0)
    658c:	50dc                	lw	a5,36(s1)
    658e:	438c                	lw	a1,0(a5)
    6590:	cd89                	beqz	a1,65aa <_dtoa_r+0x6a>
    6592:	43d8                	lw	a4,4(a5)
    6594:	4785                	li	a5,1
    6596:	8526                	mv	a0,s1
    6598:	00e797b3          	sll	a5,a5,a4
    659c:	c59c                	sw	a5,8(a1)
    659e:	c1d8                	sw	a4,4(a1)
    65a0:	158010ef          	jal	ra,76f8 <_Bfree>
    65a4:	50dc                	lw	a5,36(s1)
    65a6:	0007a023          	sw	zero,0(a5)
    65aa:	04095363          	bgez	s2,65f0 <_dtoa_r+0xb0>
    65ae:	4785                	li	a5,1
    65b0:	00191c13          	slli	s8,s2,0x1
    65b4:	00f9a023          	sw	a5,0(s3)
    65b8:	001c5c13          	srli	s8,s8,0x1
    65bc:	7ff007b7          	lui	a5,0x7ff00
    65c0:	00fc7733          	and	a4,s8,a5
    65c4:	06f71463          	bne	a4,a5,662c <_dtoa_r+0xec>
    65c8:	5742                	lw	a4,48(sp)
    65ca:	6789                	lui	a5,0x2
    65cc:	0c32                	slli	s8,s8,0xc
    65ce:	70f78793          	addi	a5,a5,1807 # 270f <RCC_GetClocksFreq+0x1f5>
    65d2:	00cc5c13          	srli	s8,s8,0xc
    65d6:	c31c                	sw	a5,0(a4)
    65d8:	008c6c33          	or	s8,s8,s0
    65dc:	320c05e3          	beqz	s8,7106 <_dtoa_r+0xbc6>
    65e0:	47d2                	lw	a5,20(sp)
    65e2:	eb91                	bnez	a5,65f6 <_dtoa_r+0xb6>
    65e4:	00002797          	auipc	a5,0x2
    65e8:	65878793          	addi	a5,a5,1624 # 8c3c <__clz_tab+0x1a0>
    65ec:	c03e                	sw	a5,0(sp)
    65ee:	a839                	j	660c <_dtoa_r+0xcc>
    65f0:	0009a023          	sw	zero,0(s3)
    65f4:	b7e1                	j	65bc <_dtoa_r+0x7c>
    65f6:	00002797          	auipc	a5,0x2
    65fa:	64678793          	addi	a5,a5,1606 # 8c3c <__clz_tab+0x1a0>
    65fe:	c03e                	sw	a5,0(sp)
    6600:	00002797          	auipc	a5,0x2
    6604:	63f78793          	addi	a5,a5,1599 # 8c3f <__clz_tab+0x1a3>
    6608:	4752                	lw	a4,20(sp)
    660a:	c31c                	sw	a5,0(a4)
    660c:	40ba                	lw	ra,140(sp)
    660e:	442a                	lw	s0,136(sp)
    6610:	4502                	lw	a0,0(sp)
    6612:	449a                	lw	s1,132(sp)
    6614:	490a                	lw	s2,128(sp)
    6616:	59f6                	lw	s3,124(sp)
    6618:	5a66                	lw	s4,120(sp)
    661a:	5ad6                	lw	s5,116(sp)
    661c:	5b46                	lw	s6,112(sp)
    661e:	5bb6                	lw	s7,108(sp)
    6620:	5c26                	lw	s8,104(sp)
    6622:	5c96                	lw	s9,100(sp)
    6624:	5d06                	lw	s10,96(sp)
    6626:	4df6                	lw	s11,92(sp)
    6628:	6149                	addi	sp,sp,144
    662a:	8082                	ret
    662c:	4601                	li	a2,0
    662e:	4681                	li	a3,0
    6630:	8522                	mv	a0,s0
    6632:	85e2                	mv	a1,s8
    6634:	ce22                	sw	s0,28(sp)
    6636:	d462                	sw	s8,40(sp)
    6638:	a96fe0ef          	jal	ra,48ce <__eqdf2>
    663c:	e105                	bnez	a0,665c <_dtoa_r+0x11c>
    663e:	5742                	lw	a4,48(sp)
    6640:	4785                	li	a5,1
    6642:	c31c                	sw	a5,0(a4)
    6644:	00002797          	auipc	a5,0x2
    6648:	57478793          	addi	a5,a5,1396 # 8bb8 <__clz_tab+0x11c>
    664c:	c03e                	sw	a5,0(sp)
    664e:	47d2                	lw	a5,20(sp)
    6650:	dfd5                	beqz	a5,660c <_dtoa_r+0xcc>
    6652:	00002797          	auipc	a5,0x2
    6656:	56778793          	addi	a5,a5,1383 # 8bb9 <__clz_tab+0x11d>
    665a:	b77d                	j	6608 <_dtoa_r+0xc8>
    665c:	00b8                	addi	a4,sp,72
    665e:	00f4                	addi	a3,sp,76
    6660:	8662                	mv	a2,s8
    6662:	85a2                	mv	a1,s0
    6664:	8526                	mv	a0,s1
    6666:	014c5913          	srli	s2,s8,0x14
    666a:	62a010ef          	jal	ra,7c94 <__d2b>
    666e:	7ff97913          	andi	s2,s2,2047
    6672:	89aa                	mv	s3,a0
    6674:	4aa6                	lw	s5,72(sp)
    6676:	10090d63          	beqz	s2,6790 <_dtoa_r+0x250>
    667a:	57a2                	lw	a5,40(sp)
    667c:	4572                	lw	a0,28(sp)
    667e:	c0190913          	addi	s2,s2,-1023
    6682:	00c79593          	slli	a1,a5,0xc
    6686:	81b1                	srli	a1,a1,0xc
    6688:	3ff007b7          	lui	a5,0x3ff00
    668c:	8ddd                	or	a1,a1,a5
    668e:	dc02                	sw	zero,56(sp)
    6690:	00002797          	auipc	a5,0x2
    6694:	55878793          	addi	a5,a5,1368 # 8be8 <__clz_tab+0x14c>
    6698:	4390                	lw	a2,0(a5)
    669a:	43d4                	lw	a3,4(a5)
    669c:	80bfe0ef          	jal	ra,4ea6 <__subdf3>
    66a0:	00002797          	auipc	a5,0x2
    66a4:	55078793          	addi	a5,a5,1360 # 8bf0 <__clz_tab+0x154>
    66a8:	4390                	lw	a2,0(a5)
    66aa:	43d4                	lw	a3,4(a5)
    66ac:	b42fe0ef          	jal	ra,49ee <__muldf3>
    66b0:	00002797          	auipc	a5,0x2
    66b4:	54878793          	addi	a5,a5,1352 # 8bf8 <__clz_tab+0x15c>
    66b8:	4390                	lw	a2,0(a5)
    66ba:	43d4                	lw	a3,4(a5)
    66bc:	d2efd0ef          	jal	ra,3bea <__adddf3>
    66c0:	8b2a                	mv	s6,a0
    66c2:	854a                	mv	a0,s2
    66c4:	8bae                	mv	s7,a1
    66c6:	f83fe0ef          	jal	ra,5648 <__floatsidf>
    66ca:	00002797          	auipc	a5,0x2
    66ce:	53678793          	addi	a5,a5,1334 # 8c00 <__clz_tab+0x164>
    66d2:	4390                	lw	a2,0(a5)
    66d4:	43d4                	lw	a3,4(a5)
    66d6:	b18fe0ef          	jal	ra,49ee <__muldf3>
    66da:	862a                	mv	a2,a0
    66dc:	86ae                	mv	a3,a1
    66de:	855a                	mv	a0,s6
    66e0:	85de                	mv	a1,s7
    66e2:	d08fd0ef          	jal	ra,3bea <__adddf3>
    66e6:	8b2a                	mv	s6,a0
    66e8:	8bae                	mv	s7,a1
    66ea:	ef7fe0ef          	jal	ra,55e0 <__fixdfsi>
    66ee:	842a                	mv	s0,a0
    66f0:	4601                	li	a2,0
    66f2:	4681                	li	a3,0
    66f4:	855a                	mv	a0,s6
    66f6:	85de                	mv	a1,s7
    66f8:	a40fe0ef          	jal	ra,4938 <__ledf2>
    66fc:	00055b63          	bgez	a0,6712 <_dtoa_r+0x1d2>
    6700:	8522                	mv	a0,s0
    6702:	f47fe0ef          	jal	ra,5648 <__floatsidf>
    6706:	865a                	mv	a2,s6
    6708:	86de                	mv	a3,s7
    670a:	9c4fe0ef          	jal	ra,48ce <__eqdf2>
    670e:	c111                	beqz	a0,6712 <_dtoa_r+0x1d2>
    6710:	147d                	addi	s0,s0,-1
    6712:	4705                	li	a4,1
    6714:	47d9                	li	a5,22
    6716:	d63a                	sw	a4,44(sp)
    6718:	0287e363          	bltu	a5,s0,673e <_dtoa_r+0x1fe>
    671c:	00341713          	slli	a4,s0,0x3
    6720:	00002797          	auipc	a5,0x2
    6724:	5a878793          	addi	a5,a5,1448 # 8cc8 <__mprec_tens>
    6728:	97ba                	add	a5,a5,a4
    672a:	4390                	lw	a2,0(a5)
    672c:	43d4                	lw	a3,4(a5)
    672e:	4572                	lw	a0,28(sp)
    6730:	55a2                	lw	a1,40(sp)
    6732:	a06fe0ef          	jal	ra,4938 <__ledf2>
    6736:	00055363          	bgez	a0,673c <_dtoa_r+0x1fc>
    673a:	147d                	addi	s0,s0,-1
    673c:	d602                	sw	zero,44(sp)
    673e:	412a8933          	sub	s2,s5,s2
    6742:	fff90b93          	addi	s7,s2,-1
    6746:	4b01                	li	s6,0
    6748:	000bd663          	bgez	s7,6754 <_dtoa_r+0x214>
    674c:	4b05                	li	s6,1
    674e:	412b0b33          	sub	s6,s6,s2
    6752:	4b81                	li	s7,0
    6754:	06044e63          	bltz	s0,67d0 <_dtoa_r+0x290>
    6758:	9ba2                	add	s7,s7,s0
    675a:	cc22                	sw	s0,24(sp)
    675c:	4a81                	li	s5,0
    675e:	4712                	lw	a4,4(sp)
    6760:	47a5                	li	a5,9
    6762:	14e7e563          	bltu	a5,a4,68ac <_dtoa_r+0x36c>
    6766:	4795                	li	a5,5
    6768:	4c85                	li	s9,1
    676a:	00e7d663          	bge	a5,a4,6776 <_dtoa_r+0x236>
    676e:	ffc70793          	addi	a5,a4,-4
    6772:	c23e                	sw	a5,4(sp)
    6774:	4c81                	li	s9,0
    6776:	4712                	lw	a4,4(sp)
    6778:	478d                	li	a5,3
    677a:	10f70e63          	beq	a4,a5,6896 <_dtoa_r+0x356>
    677e:	04e7cf63          	blt	a5,a4,67dc <_dtoa_r+0x29c>
    6782:	4789                	li	a5,2
    6784:	c802                	sw	zero,16(sp)
    6786:	06f70d63          	beq	a4,a5,6800 <_dtoa_r+0x2c0>
    678a:	4785                	li	a5,1
    678c:	c83e                	sw	a5,16(sp)
    678e:	a08d                	j	67f0 <_dtoa_r+0x2b0>
    6790:	4936                	lw	s2,76(sp)
    6792:	02000793          	li	a5,32
    6796:	9956                	add	s2,s2,s5
    6798:	43290713          	addi	a4,s2,1074
    679c:	02e7d563          	bge	a5,a4,67c6 <_dtoa_r+0x286>
    67a0:	04000513          	li	a0,64
    67a4:	8d19                	sub	a0,a0,a4
    67a6:	41290793          	addi	a5,s2,1042
    67aa:	00ac1533          	sll	a0,s8,a0
    67ae:	00f45433          	srl	s0,s0,a5
    67b2:	8d41                	or	a0,a0,s0
    67b4:	585010ef          	jal	ra,8538 <__floatunsidf>
    67b8:	fe1007b7          	lui	a5,0xfe100
    67bc:	95be                	add	a1,a1,a5
    67be:	4785                	li	a5,1
    67c0:	197d                	addi	s2,s2,-1
    67c2:	dc3e                	sw	a5,56(sp)
    67c4:	b5f1                	j	6690 <_dtoa_r+0x150>
    67c6:	40e78533          	sub	a0,a5,a4
    67ca:	00a41533          	sll	a0,s0,a0
    67ce:	b7dd                	j	67b4 <_dtoa_r+0x274>
    67d0:	408b0b33          	sub	s6,s6,s0
    67d4:	40800ab3          	neg	s5,s0
    67d8:	cc02                	sw	zero,24(sp)
    67da:	b751                	j	675e <_dtoa_r+0x21e>
    67dc:	4712                	lw	a4,4(sp)
    67de:	4791                	li	a5,4
    67e0:	00f70e63          	beq	a4,a5,67fc <_dtoa_r+0x2bc>
    67e4:	4705                	li	a4,1
    67e6:	c83a                	sw	a4,16(sp)
    67e8:	4712                	lw	a4,4(sp)
    67ea:	4795                	li	a5,5
    67ec:	0af70663          	beq	a4,a5,6898 <_dtoa_r+0x358>
    67f0:	57fd                	li	a5,-1
    67f2:	c43e                	sw	a5,8(sp)
    67f4:	5dfd                	li	s11,-1
    67f6:	47c9                	li	a5,18
    67f8:	c602                	sw	zero,12(sp)
    67fa:	a819                	j	6810 <_dtoa_r+0x2d0>
    67fc:	4785                	li	a5,1
    67fe:	c83e                	sw	a5,16(sp)
    6800:	47b2                	lw	a5,12(sp)
    6802:	0af04863          	bgtz	a5,68b2 <_dtoa_r+0x372>
    6806:	4785                	li	a5,1
    6808:	4705                	li	a4,1
    680a:	c43e                	sw	a5,8(sp)
    680c:	4d85                	li	s11,1
    680e:	c63a                	sw	a4,12(sp)
    6810:	0244a903          	lw	s2,36(s1)
    6814:	4711                	li	a4,4
    6816:	00092223          	sw	zero,4(s2)
    681a:	01470693          	addi	a3,a4,20
    681e:	00492583          	lw	a1,4(s2)
    6822:	08d7fc63          	bgeu	a5,a3,68ba <_dtoa_r+0x37a>
    6826:	8526                	mv	a0,s1
    6828:	649000ef          	jal	ra,7670 <_Balloc>
    682c:	50dc                	lw	a5,36(s1)
    682e:	00a92023          	sw	a0,0(s2)
    6832:	439c                	lw	a5,0(a5)
    6834:	c03e                	sw	a5,0(sp)
    6836:	47b9                	li	a5,14
    6838:	1db7e663          	bltu	a5,s11,6a04 <_dtoa_r+0x4c4>
    683c:	1c0c8463          	beqz	s9,6a04 <_dtoa_r+0x4c4>
    6840:	0a805e63          	blez	s0,68fc <_dtoa_r+0x3bc>
    6844:	00f47793          	andi	a5,s0,15
    6848:	00379713          	slli	a4,a5,0x3
    684c:	40445c93          	srai	s9,s0,0x4
    6850:	00002797          	auipc	a5,0x2
    6854:	47878793          	addi	a5,a5,1144 # 8cc8 <__mprec_tens>
    6858:	97ba                	add	a5,a5,a4
    685a:	010cf693          	andi	a3,s9,16
    685e:	4398                	lw	a4,0(a5)
    6860:	4909                	li	s2,2
    6862:	43dc                	lw	a5,4(a5)
    6864:	c685                	beqz	a3,688c <_dtoa_r+0x34c>
    6866:	00002697          	auipc	a3,0x2
    686a:	43a68693          	addi	a3,a3,1082 # 8ca0 <__mprec_bigtens>
    686e:	5290                	lw	a2,32(a3)
    6870:	4572                	lw	a0,28(sp)
    6872:	52d4                	lw	a3,36(a3)
    6874:	55a2                	lw	a1,40(sp)
    6876:	d03a                	sw	a4,32(sp)
    6878:	d23e                	sw	a5,36(sp)
    687a:	aa1fd0ef          	jal	ra,431a <__divdf3>
    687e:	5702                	lw	a4,32(sp)
    6880:	5792                	lw	a5,36(sp)
    6882:	00fcfc93          	andi	s9,s9,15
    6886:	8a2a                	mv	s4,a0
    6888:	8c2e                	mv	s8,a1
    688a:	490d                	li	s2,3
    688c:	00002d17          	auipc	s10,0x2
    6890:	414d0d13          	addi	s10,s10,1044 # 8ca0 <__mprec_bigtens>
    6894:	a889                	j	68e6 <_dtoa_r+0x3a6>
    6896:	c802                	sw	zero,16(sp)
    6898:	47b2                	lw	a5,12(sp)
    689a:	97a2                	add	a5,a5,s0
    689c:	c43e                	sw	a5,8(sp)
    689e:	00178d93          	addi	s11,a5,1
    68a2:	87ee                	mv	a5,s11
    68a4:	f7b046e3          	bgtz	s11,6810 <_dtoa_r+0x2d0>
    68a8:	4785                	li	a5,1
    68aa:	b79d                	j	6810 <_dtoa_r+0x2d0>
    68ac:	4c85                	li	s9,1
    68ae:	c202                	sw	zero,4(sp)
    68b0:	bde9                	j	678a <_dtoa_r+0x24a>
    68b2:	47b2                	lw	a5,12(sp)
    68b4:	c43e                	sw	a5,8(sp)
    68b6:	8dbe                	mv	s11,a5
    68b8:	bfa1                	j	6810 <_dtoa_r+0x2d0>
    68ba:	0585                	addi	a1,a1,1
    68bc:	00b92223          	sw	a1,4(s2)
    68c0:	0706                	slli	a4,a4,0x1
    68c2:	bfa1                	j	681a <_dtoa_r+0x2da>
    68c4:	001cf693          	andi	a3,s9,1
    68c8:	ce81                	beqz	a3,68e0 <_dtoa_r+0x3a0>
    68ca:	000d2603          	lw	a2,0(s10)
    68ce:	004d2683          	lw	a3,4(s10)
    68d2:	853a                	mv	a0,a4
    68d4:	85be                	mv	a1,a5
    68d6:	918fe0ef          	jal	ra,49ee <__muldf3>
    68da:	0905                	addi	s2,s2,1
    68dc:	872a                	mv	a4,a0
    68de:	87ae                	mv	a5,a1
    68e0:	401cdc93          	srai	s9,s9,0x1
    68e4:	0d21                	addi	s10,s10,8
    68e6:	fc0c9fe3          	bnez	s9,68c4 <_dtoa_r+0x384>
    68ea:	863a                	mv	a2,a4
    68ec:	86be                	mv	a3,a5
    68ee:	8552                	mv	a0,s4
    68f0:	85e2                	mv	a1,s8
    68f2:	a29fd0ef          	jal	ra,431a <__divdf3>
    68f6:	8a2a                	mv	s4,a0
    68f8:	8c2e                	mv	s8,a1
    68fa:	a081                	j	693a <_dtoa_r+0x3fa>
    68fc:	4909                	li	s2,2
    68fe:	cc15                	beqz	s0,693a <_dtoa_r+0x3fa>
    6900:	40800cb3          	neg	s9,s0
    6904:	00fcf793          	andi	a5,s9,15
    6908:	00379713          	slli	a4,a5,0x3
    690c:	00002797          	auipc	a5,0x2
    6910:	3bc78793          	addi	a5,a5,956 # 8cc8 <__mprec_tens>
    6914:	97ba                	add	a5,a5,a4
    6916:	4390                	lw	a2,0(a5)
    6918:	43d4                	lw	a3,4(a5)
    691a:	4572                	lw	a0,28(sp)
    691c:	55a2                	lw	a1,40(sp)
    691e:	404cdc93          	srai	s9,s9,0x4
    6922:	00002d17          	auipc	s10,0x2
    6926:	37ed0d13          	addi	s10,s10,894 # 8ca0 <__mprec_bigtens>
    692a:	8c4fe0ef          	jal	ra,49ee <__muldf3>
    692e:	8a2a                	mv	s4,a0
    6930:	8c2e                	mv	s8,a1
    6932:	4781                	li	a5,0
    6934:	120c9c63          	bnez	s9,6a6c <_dtoa_r+0x52c>
    6938:	ffdd                	bnez	a5,68f6 <_dtoa_r+0x3b6>
    693a:	57b2                	lw	a5,44(sp)
    693c:	14078763          	beqz	a5,6a8a <_dtoa_r+0x54a>
    6940:	00002717          	auipc	a4,0x2
    6944:	2c870713          	addi	a4,a4,712 # 8c08 <__clz_tab+0x16c>
    6948:	4310                	lw	a2,0(a4)
    694a:	4354                	lw	a3,4(a4)
    694c:	8552                	mv	a0,s4
    694e:	85e2                	mv	a1,s8
    6950:	d052                	sw	s4,32(sp)
    6952:	fe7fd0ef          	jal	ra,4938 <__ledf2>
    6956:	12055a63          	bgez	a0,6a8a <_dtoa_r+0x54a>
    695a:	120d8b63          	beqz	s11,6a90 <_dtoa_r+0x550>
    695e:	47a2                	lw	a5,8(sp)
    6960:	0af05063          	blez	a5,6a00 <_dtoa_r+0x4c0>
    6964:	00002717          	auipc	a4,0x2
    6968:	2ac70713          	addi	a4,a4,684 # 8c10 <__clz_tab+0x174>
    696c:	5782                	lw	a5,32(sp)
    696e:	4310                	lw	a2,0(a4)
    6970:	4354                	lw	a3,4(a4)
    6972:	853e                	mv	a0,a5
    6974:	85e2                	mv	a1,s8
    6976:	878fe0ef          	jal	ra,49ee <__muldf3>
    697a:	47a2                	lw	a5,8(sp)
    697c:	fff40d13          	addi	s10,s0,-1
    6980:	8a2a                	mv	s4,a0
    6982:	8c2e                	mv	s8,a1
    6984:	0905                	addi	s2,s2,1
    6986:	8762                	mv	a4,s8
    6988:	854a                	mv	a0,s2
    698a:	de3e                	sw	a5,60(sp)
    698c:	da52                	sw	s4,52(sp)
    698e:	8cba                	mv	s9,a4
    6990:	d03a                	sw	a4,32(sp)
    6992:	cb7fe0ef          	jal	ra,5648 <__floatsidf>
    6996:	5852                	lw	a6,52(sp)
    6998:	5702                	lw	a4,32(sp)
    699a:	fcc00937          	lui	s2,0xfcc00
    699e:	8642                	mv	a2,a6
    69a0:	86ba                	mv	a3,a4
    69a2:	84cfe0ef          	jal	ra,49ee <__muldf3>
    69a6:	00002697          	auipc	a3,0x2
    69aa:	27268693          	addi	a3,a3,626 # 8c18 <__clz_tab+0x17c>
    69ae:	4290                	lw	a2,0(a3)
    69b0:	42d4                	lw	a3,4(a3)
    69b2:	8c52                	mv	s8,s4
    69b4:	a36fd0ef          	jal	ra,3bea <__adddf3>
    69b8:	57f2                	lw	a5,60(sp)
    69ba:	8a2a                	mv	s4,a0
    69bc:	992e                	add	s2,s2,a1
    69be:	efe1                	bnez	a5,6a96 <_dtoa_r+0x556>
    69c0:	00002797          	auipc	a5,0x2
    69c4:	26078793          	addi	a5,a5,608 # 8c20 <__clz_tab+0x184>
    69c8:	5852                	lw	a6,52(sp)
    69ca:	5702                	lw	a4,32(sp)
    69cc:	4390                	lw	a2,0(a5)
    69ce:	43d4                	lw	a3,4(a5)
    69d0:	8542                	mv	a0,a6
    69d2:	85ba                	mv	a1,a4
    69d4:	cd2fe0ef          	jal	ra,4ea6 <__subdf3>
    69d8:	8652                	mv	a2,s4
    69da:	86ca                	mv	a3,s2
    69dc:	8c2a                	mv	s8,a0
    69de:	8cae                	mv	s9,a1
    69e0:	26f010ef          	jal	ra,844e <__gedf2>
    69e4:	54a04a63          	bgtz	a0,6f38 <_dtoa_r+0x9f8>
    69e8:	800007b7          	lui	a5,0x80000
    69ec:	0127c7b3          	xor	a5,a5,s2
    69f0:	8652                	mv	a2,s4
    69f2:	86be                	mv	a3,a5
    69f4:	8562                	mv	a0,s8
    69f6:	85e6                	mv	a1,s9
    69f8:	f41fd0ef          	jal	ra,4938 <__ledf2>
    69fc:	52054b63          	bltz	a0,6f32 <_dtoa_r+0x9f2>
    6a00:	4a72                	lw	s4,28(sp)
    6a02:	5c22                	lw	s8,40(sp)
    6a04:	47b6                	lw	a5,76(sp)
    6a06:	3007c763          	bltz	a5,6d14 <_dtoa_r+0x7d4>
    6a0a:	4739                	li	a4,14
    6a0c:	30874463          	blt	a4,s0,6d14 <_dtoa_r+0x7d4>
    6a10:	00341713          	slli	a4,s0,0x3
    6a14:	00002797          	auipc	a5,0x2
    6a18:	2b478793          	addi	a5,a5,692 # 8cc8 <__mprec_tens>
    6a1c:	97ba                	add	a5,a5,a4
    6a1e:	0007ab03          	lw	s6,0(a5)
    6a22:	0047ab83          	lw	s7,4(a5)
    6a26:	47b2                	lw	a5,12(sp)
    6a28:	2007d263          	bgez	a5,6c2c <_dtoa_r+0x6ec>
    6a2c:	21b04063          	bgtz	s11,6c2c <_dtoa_r+0x6ec>
    6a30:	500d9163          	bnez	s11,6f32 <_dtoa_r+0x9f2>
    6a34:	00002797          	auipc	a5,0x2
    6a38:	1ec78793          	addi	a5,a5,492 # 8c20 <__clz_tab+0x184>
    6a3c:	4390                	lw	a2,0(a5)
    6a3e:	43d4                	lw	a3,4(a5)
    6a40:	855a                	mv	a0,s6
    6a42:	85de                	mv	a1,s7
    6a44:	fabfd0ef          	jal	ra,49ee <__muldf3>
    6a48:	8652                	mv	a2,s4
    6a4a:	86e2                	mv	a3,s8
    6a4c:	203010ef          	jal	ra,844e <__gedf2>
    6a50:	4a81                	li	s5,0
    6a52:	4901                	li	s2,0
    6a54:	4a055763          	bgez	a0,6f02 <_dtoa_r+0x9c2>
    6a58:	4782                	lw	a5,0(sp)
    6a5a:	4702                	lw	a4,0(sp)
    6a5c:	0405                	addi	s0,s0,1
    6a5e:	00178a13          	addi	s4,a5,1
    6a62:	03100793          	li	a5,49
    6a66:	00f70023          	sb	a5,0(a4)
    6a6a:	a145                	j	6f0a <_dtoa_r+0x9ca>
    6a6c:	001cf713          	andi	a4,s9,1
    6a70:	cb09                	beqz	a4,6a82 <_dtoa_r+0x542>
    6a72:	000d2603          	lw	a2,0(s10)
    6a76:	004d2683          	lw	a3,4(s10)
    6a7a:	0905                	addi	s2,s2,1
    6a7c:	f73fd0ef          	jal	ra,49ee <__muldf3>
    6a80:	4785                	li	a5,1
    6a82:	401cdc93          	srai	s9,s9,0x1
    6a86:	0d21                	addi	s10,s10,8
    6a88:	b575                	j	6934 <_dtoa_r+0x3f4>
    6a8a:	8d22                	mv	s10,s0
    6a8c:	87ee                	mv	a5,s11
    6a8e:	bde5                	j	6986 <_dtoa_r+0x446>
    6a90:	8d22                	mv	s10,s0
    6a92:	4781                	li	a5,0
    6a94:	bdcd                	j	6986 <_dtoa_r+0x446>
    6a96:	fff78693          	addi	a3,a5,-1
    6a9a:	00369613          	slli	a2,a3,0x3
    6a9e:	00002697          	auipc	a3,0x2
    6aa2:	22a68693          	addi	a3,a3,554 # 8cc8 <__mprec_tens>
    6aa6:	96b2                	add	a3,a3,a2
    6aa8:	4288                	lw	a0,0(a3)
    6aaa:	42cc                	lw	a1,4(a3)
    6aac:	4682                	lw	a3,0(sp)
    6aae:	97b6                	add	a5,a5,a3
    6ab0:	da3e                	sw	a5,52(sp)
    6ab2:	47c2                	lw	a5,16(sp)
    6ab4:	c3e9                	beqz	a5,6b76 <_dtoa_r+0x636>
    6ab6:	00002797          	auipc	a5,0x2
    6aba:	17278793          	addi	a5,a5,370 # 8c28 <__clz_tab+0x18c>
    6abe:	862a                	mv	a2,a0
    6ac0:	86ae                	mv	a3,a1
    6ac2:	4388                	lw	a0,0(a5)
    6ac4:	43cc                	lw	a1,4(a5)
    6ac6:	de4a                	sw	s2,60(sp)
    6ac8:	d052                	sw	s4,32(sp)
    6aca:	851fd0ef          	jal	ra,431a <__divdf3>
    6ace:	5802                	lw	a6,32(sp)
    6ad0:	5772                	lw	a4,60(sp)
    6ad2:	00002917          	auipc	s2,0x2
    6ad6:	13e90913          	addi	s2,s2,318 # 8c10 <__clz_tab+0x174>
    6ada:	8642                	mv	a2,a6
    6adc:	86ba                	mv	a3,a4
    6ade:	bc8fe0ef          	jal	ra,4ea6 <__subdf3>
    6ae2:	4a02                	lw	s4,0(sp)
    6ae4:	d02a                	sw	a0,32(sp)
    6ae6:	d22e                	sw	a1,36(sp)
    6ae8:	85e6                	mv	a1,s9
    6aea:	8562                	mv	a0,s8
    6aec:	af5fe0ef          	jal	ra,55e0 <__fixdfsi>
    6af0:	de2a                	sw	a0,60(sp)
    6af2:	b57fe0ef          	jal	ra,5648 <__floatsidf>
    6af6:	862a                	mv	a2,a0
    6af8:	86ae                	mv	a3,a1
    6afa:	8562                	mv	a0,s8
    6afc:	85e6                	mv	a1,s9
    6afe:	ba8fe0ef          	jal	ra,4ea6 <__subdf3>
    6b02:	57f2                	lw	a5,60(sp)
    6b04:	8c2a                	mv	s8,a0
    6b06:	8cae                	mv	s9,a1
    6b08:	862a                	mv	a2,a0
    6b0a:	86ae                	mv	a3,a1
    6b0c:	5502                	lw	a0,32(sp)
    6b0e:	5592                	lw	a1,36(sp)
    6b10:	0a05                	addi	s4,s4,1
    6b12:	03078793          	addi	a5,a5,48
    6b16:	fefa0fa3          	sb	a5,-1(s4)
    6b1a:	135010ef          	jal	ra,844e <__gedf2>
    6b1e:	0ea04863          	bgtz	a0,6c0e <_dtoa_r+0x6ce>
    6b22:	00002797          	auipc	a5,0x2
    6b26:	0e678793          	addi	a5,a5,230 # 8c08 <__clz_tab+0x16c>
    6b2a:	4388                	lw	a0,0(a5)
    6b2c:	43cc                	lw	a1,4(a5)
    6b2e:	8662                	mv	a2,s8
    6b30:	86e6                	mv	a3,s9
    6b32:	b74fe0ef          	jal	ra,4ea6 <__subdf3>
    6b36:	862a                	mv	a2,a0
    6b38:	86ae                	mv	a3,a1
    6b3a:	5502                	lw	a0,32(sp)
    6b3c:	5592                	lw	a1,36(sp)
    6b3e:	111010ef          	jal	ra,844e <__gedf2>
    6b42:	18a04263          	bgtz	a0,6cc6 <_dtoa_r+0x786>
    6b46:	57d2                	lw	a5,52(sp)
    6b48:	eafa0ce3          	beq	s4,a5,6a00 <_dtoa_r+0x4c0>
    6b4c:	00092603          	lw	a2,0(s2)
    6b50:	00492683          	lw	a3,4(s2)
    6b54:	5502                	lw	a0,32(sp)
    6b56:	5592                	lw	a1,36(sp)
    6b58:	e97fd0ef          	jal	ra,49ee <__muldf3>
    6b5c:	00092603          	lw	a2,0(s2)
    6b60:	00492683          	lw	a3,4(s2)
    6b64:	d02a                	sw	a0,32(sp)
    6b66:	d22e                	sw	a1,36(sp)
    6b68:	8562                	mv	a0,s8
    6b6a:	85e6                	mv	a1,s9
    6b6c:	e83fd0ef          	jal	ra,49ee <__muldf3>
    6b70:	8c2a                	mv	s8,a0
    6b72:	8cae                	mv	s9,a1
    6b74:	bf95                	j	6ae8 <_dtoa_r+0x5a8>
    6b76:	8652                	mv	a2,s4
    6b78:	86ca                	mv	a3,s2
    6b7a:	e75fd0ef          	jal	ra,49ee <__muldf3>
    6b7e:	5a52                	lw	s4,52(sp)
    6b80:	4902                	lw	s2,0(sp)
    6b82:	d02a                	sw	a0,32(sp)
    6b84:	d22e                	sw	a1,36(sp)
    6b86:	85e6                	mv	a1,s9
    6b88:	8562                	mv	a0,s8
    6b8a:	a57fe0ef          	jal	ra,55e0 <__fixdfsi>
    6b8e:	de2a                	sw	a0,60(sp)
    6b90:	ab9fe0ef          	jal	ra,5648 <__floatsidf>
    6b94:	862a                	mv	a2,a0
    6b96:	86ae                	mv	a3,a1
    6b98:	8562                	mv	a0,s8
    6b9a:	85e6                	mv	a1,s9
    6b9c:	b0afe0ef          	jal	ra,4ea6 <__subdf3>
    6ba0:	5772                	lw	a4,60(sp)
    6ba2:	57d2                	lw	a5,52(sp)
    6ba4:	0905                	addi	s2,s2,1
    6ba6:	03070713          	addi	a4,a4,48
    6baa:	fee90fa3          	sb	a4,-1(s2)
    6bae:	8c2a                	mv	s8,a0
    6bb0:	8cae                	mv	s9,a1
    6bb2:	06f91263          	bne	s2,a5,6c16 <_dtoa_r+0x6d6>
    6bb6:	00002917          	auipc	s2,0x2
    6bba:	07290913          	addi	s2,s2,114 # 8c28 <__clz_tab+0x18c>
    6bbe:	00092603          	lw	a2,0(s2)
    6bc2:	00492683          	lw	a3,4(s2)
    6bc6:	5502                	lw	a0,32(sp)
    6bc8:	5592                	lw	a1,36(sp)
    6bca:	820fd0ef          	jal	ra,3bea <__adddf3>
    6bce:	862a                	mv	a2,a0
    6bd0:	86ae                	mv	a3,a1
    6bd2:	8562                	mv	a0,s8
    6bd4:	85e6                	mv	a1,s9
    6bd6:	079010ef          	jal	ra,844e <__gedf2>
    6bda:	0ea04663          	bgtz	a0,6cc6 <_dtoa_r+0x786>
    6bde:	5602                	lw	a2,32(sp)
    6be0:	5692                	lw	a3,36(sp)
    6be2:	00092503          	lw	a0,0(s2)
    6be6:	00492583          	lw	a1,4(s2)
    6bea:	abcfe0ef          	jal	ra,4ea6 <__subdf3>
    6bee:	862a                	mv	a2,a0
    6bf0:	86ae                	mv	a3,a1
    6bf2:	8562                	mv	a0,s8
    6bf4:	85e6                	mv	a1,s9
    6bf6:	d43fd0ef          	jal	ra,4938 <__ledf2>
    6bfa:	03000793          	li	a5,48
    6bfe:	e00551e3          	bgez	a0,6a00 <_dtoa_r+0x4c0>
    6c02:	fffa4703          	lbu	a4,-1(s4)
    6c06:	fffa0693          	addi	a3,s4,-1
    6c0a:	00f70463          	beq	a4,a5,6c12 <_dtoa_r+0x6d2>
    6c0e:	846a                	mv	s0,s10
    6c10:	a859                	j	6ca6 <_dtoa_r+0x766>
    6c12:	8a36                	mv	s4,a3
    6c14:	b7fd                	j	6c02 <_dtoa_r+0x6c2>
    6c16:	00002797          	auipc	a5,0x2
    6c1a:	ffa78793          	addi	a5,a5,-6 # 8c10 <__clz_tab+0x174>
    6c1e:	4390                	lw	a2,0(a5)
    6c20:	43d4                	lw	a3,4(a5)
    6c22:	dcdfd0ef          	jal	ra,49ee <__muldf3>
    6c26:	8c2a                	mv	s8,a0
    6c28:	8cae                	mv	s9,a1
    6c2a:	bfb1                	j	6b86 <_dtoa_r+0x646>
    6c2c:	87e2                	mv	a5,s8
    6c2e:	8cbe                	mv	s9,a5
    6c30:	4782                	lw	a5,0(sp)
    6c32:	8c52                	mv	s8,s4
    6c34:	00002a97          	auipc	s5,0x2
    6c38:	fdca8a93          	addi	s5,s5,-36 # 8c10 <__clz_tab+0x174>
    6c3c:	00178913          	addi	s2,a5,1
    6c40:	9dbe                	add	s11,s11,a5
    6c42:	865a                	mv	a2,s6
    6c44:	86de                	mv	a3,s7
    6c46:	8562                	mv	a0,s8
    6c48:	85e6                	mv	a1,s9
    6c4a:	ed0fd0ef          	jal	ra,431a <__divdf3>
    6c4e:	993fe0ef          	jal	ra,55e0 <__fixdfsi>
    6c52:	8d2a                	mv	s10,a0
    6c54:	9f5fe0ef          	jal	ra,5648 <__floatsidf>
    6c58:	865a                	mv	a2,s6
    6c5a:	86de                	mv	a3,s7
    6c5c:	d93fd0ef          	jal	ra,49ee <__muldf3>
    6c60:	862a                	mv	a2,a0
    6c62:	86ae                	mv	a3,a1
    6c64:	8562                	mv	a0,s8
    6c66:	85e6                	mv	a1,s9
    6c68:	a3efe0ef          	jal	ra,4ea6 <__subdf3>
    6c6c:	030d0793          	addi	a5,s10,48
    6c70:	fef90fa3          	sb	a5,-1(s2)
    6c74:	862a                	mv	a2,a0
    6c76:	86ae                	mv	a3,a1
    6c78:	8a4a                	mv	s4,s2
    6c7a:	072d9e63          	bne	s11,s2,6cf6 <_dtoa_r+0x7b6>
    6c7e:	f6dfc0ef          	jal	ra,3bea <__adddf3>
    6c82:	865a                	mv	a2,s6
    6c84:	86de                	mv	a3,s7
    6c86:	8c2a                	mv	s8,a0
    6c88:	8cae                	mv	s9,a1
    6c8a:	7c4010ef          	jal	ra,844e <__gedf2>
    6c8e:	02a04b63          	bgtz	a0,6cc4 <_dtoa_r+0x784>
    6c92:	865a                	mv	a2,s6
    6c94:	86de                	mv	a3,s7
    6c96:	8562                	mv	a0,s8
    6c98:	85e6                	mv	a1,s9
    6c9a:	c35fd0ef          	jal	ra,48ce <__eqdf2>
    6c9e:	e501                	bnez	a0,6ca6 <_dtoa_r+0x766>
    6ca0:	001d7793          	andi	a5,s10,1
    6ca4:	e385                	bnez	a5,6cc4 <_dtoa_r+0x784>
    6ca6:	85ce                	mv	a1,s3
    6ca8:	8526                	mv	a0,s1
    6caa:	24f000ef          	jal	ra,76f8 <_Bfree>
    6cae:	57c2                	lw	a5,48(sp)
    6cb0:	000a0023          	sb	zero,0(s4)
    6cb4:	0405                	addi	s0,s0,1
    6cb6:	c380                	sw	s0,0(a5)
    6cb8:	47d2                	lw	a5,20(sp)
    6cba:	940789e3          	beqz	a5,660c <_dtoa_r+0xcc>
    6cbe:	0147a023          	sw	s4,0(a5)
    6cc2:	b2a9                	j	660c <_dtoa_r+0xcc>
    6cc4:	8d22                	mv	s10,s0
    6cc6:	03900713          	li	a4,57
    6cca:	fffa4683          	lbu	a3,-1(s4)
    6cce:	fffa0793          	addi	a5,s4,-1
    6cd2:	00e69a63          	bne	a3,a4,6ce6 <_dtoa_r+0x7a6>
    6cd6:	4682                	lw	a3,0(sp)
    6cd8:	00f69d63          	bne	a3,a5,6cf2 <_dtoa_r+0x7b2>
    6cdc:	03000713          	li	a4,48
    6ce0:	0d05                	addi	s10,s10,1
    6ce2:	00e68023          	sb	a4,0(a3)
    6ce6:	0007c703          	lbu	a4,0(a5)
    6cea:	0705                	addi	a4,a4,1
    6cec:	00e78023          	sb	a4,0(a5)
    6cf0:	bf39                	j	6c0e <_dtoa_r+0x6ce>
    6cf2:	8a3e                	mv	s4,a5
    6cf4:	bfd9                	j	6cca <_dtoa_r+0x78a>
    6cf6:	000aa603          	lw	a2,0(s5)
    6cfa:	004aa683          	lw	a3,4(s5)
    6cfe:	0905                	addi	s2,s2,1
    6d00:	ceffd0ef          	jal	ra,49ee <__muldf3>
    6d04:	4601                	li	a2,0
    6d06:	4681                	li	a3,0
    6d08:	8c2a                	mv	s8,a0
    6d0a:	8cae                	mv	s9,a1
    6d0c:	bc3fd0ef          	jal	ra,48ce <__eqdf2>
    6d10:	f90d                	bnez	a0,6c42 <_dtoa_r+0x702>
    6d12:	bf51                	j	6ca6 <_dtoa_r+0x766>
    6d14:	4742                	lw	a4,16(sp)
    6d16:	10070063          	beqz	a4,6e16 <_dtoa_r+0x8d6>
    6d1a:	4692                	lw	a3,4(sp)
    6d1c:	4705                	li	a4,1
    6d1e:	0cd74563          	blt	a4,a3,6de8 <_dtoa_r+0x8a8>
    6d22:	5762                	lw	a4,56(sp)
    6d24:	43378793          	addi	a5,a5,1075
    6d28:	e709                	bnez	a4,6d32 <_dtoa_r+0x7f2>
    6d2a:	4726                	lw	a4,72(sp)
    6d2c:	03600793          	li	a5,54
    6d30:	8f99                	sub	a5,a5,a4
    6d32:	8d56                	mv	s10,s5
    6d34:	8cda                	mv	s9,s6
    6d36:	4585                	li	a1,1
    6d38:	8526                	mv	a0,s1
    6d3a:	9b3e                	add	s6,s6,a5
    6d3c:	9bbe                	add	s7,s7,a5
    6d3e:	347000ef          	jal	ra,7884 <__i2b>
    6d42:	892a                	mv	s2,a0
    6d44:	01905e63          	blez	s9,6d60 <_dtoa_r+0x820>
    6d48:	01705c63          	blez	s7,6d60 <_dtoa_r+0x820>
    6d4c:	87e6                	mv	a5,s9
    6d4e:	019bd363          	bge	s7,s9,6d54 <_dtoa_r+0x814>
    6d52:	87de                	mv	a5,s7
    6d54:	40fb0b33          	sub	s6,s6,a5
    6d58:	40fc8cb3          	sub	s9,s9,a5
    6d5c:	40fb8bb3          	sub	s7,s7,a5
    6d60:	040a8063          	beqz	s5,6da0 <_dtoa_r+0x860>
    6d64:	47c2                	lw	a5,16(sp)
    6d66:	cfc5                	beqz	a5,6e1e <_dtoa_r+0x8de>
    6d68:	03a05463          	blez	s10,6d90 <_dtoa_r+0x850>
    6d6c:	85ca                	mv	a1,s2
    6d6e:	866a                	mv	a2,s10
    6d70:	8526                	mv	a0,s1
    6d72:	473000ef          	jal	ra,79e4 <__pow5mult>
    6d76:	864e                	mv	a2,s3
    6d78:	85aa                	mv	a1,a0
    6d7a:	892a                	mv	s2,a0
    6d7c:	8526                	mv	a0,s1
    6d7e:	323000ef          	jal	ra,78a0 <__multiply>
    6d82:	ce2a                	sw	a0,28(sp)
    6d84:	85ce                	mv	a1,s3
    6d86:	8526                	mv	a0,s1
    6d88:	171000ef          	jal	ra,76f8 <_Bfree>
    6d8c:	47f2                	lw	a5,28(sp)
    6d8e:	89be                	mv	s3,a5
    6d90:	41aa8633          	sub	a2,s5,s10
    6d94:	c611                	beqz	a2,6da0 <_dtoa_r+0x860>
    6d96:	85ce                	mv	a1,s3
    6d98:	8526                	mv	a0,s1
    6d9a:	44b000ef          	jal	ra,79e4 <__pow5mult>
    6d9e:	89aa                	mv	s3,a0
    6da0:	4585                	li	a1,1
    6da2:	8526                	mv	a0,s1
    6da4:	2e1000ef          	jal	ra,7884 <__i2b>
    6da8:	47e2                	lw	a5,24(sp)
    6daa:	8aaa                	mv	s5,a0
    6dac:	06f05b63          	blez	a5,6e22 <_dtoa_r+0x8e2>
    6db0:	863e                	mv	a2,a5
    6db2:	85aa                	mv	a1,a0
    6db4:	8526                	mv	a0,s1
    6db6:	42f000ef          	jal	ra,79e4 <__pow5mult>
    6dba:	4712                	lw	a4,4(sp)
    6dbc:	4785                	li	a5,1
    6dbe:	8aaa                	mv	s5,a0
    6dc0:	4d01                	li	s10,0
    6dc2:	06e7c863          	blt	a5,a4,6e32 <_dtoa_r+0x8f2>
    6dc6:	4d01                	li	s10,0
    6dc8:	060a1263          	bnez	s4,6e2c <_dtoa_r+0x8ec>
    6dcc:	00cc1793          	slli	a5,s8,0xc
    6dd0:	8d52                	mv	s10,s4
    6dd2:	efa9                	bnez	a5,6e2c <_dtoa_r+0x8ec>
    6dd4:	7ff005b7          	lui	a1,0x7ff00
    6dd8:	00bc7c33          	and	s8,s8,a1
    6ddc:	040c0863          	beqz	s8,6e2c <_dtoa_r+0x8ec>
    6de0:	0b05                	addi	s6,s6,1
    6de2:	0b85                	addi	s7,s7,1
    6de4:	4d05                	li	s10,1
    6de6:	a099                	j	6e2c <_dtoa_r+0x8ec>
    6de8:	fffd8d13          	addi	s10,s11,-1
    6dec:	01aaca63          	blt	s5,s10,6e00 <_dtoa_r+0x8c0>
    6df0:	41aa8d33          	sub	s10,s5,s10
    6df4:	000dde63          	bgez	s11,6e10 <_dtoa_r+0x8d0>
    6df8:	41bb0cb3          	sub	s9,s6,s11
    6dfc:	4781                	li	a5,0
    6dfe:	bf25                	j	6d36 <_dtoa_r+0x7f6>
    6e00:	47e2                	lw	a5,24(sp)
    6e02:	415d0ab3          	sub	s5,s10,s5
    6e06:	97d6                	add	a5,a5,s5
    6e08:	cc3e                	sw	a5,24(sp)
    6e0a:	8aea                	mv	s5,s10
    6e0c:	4d01                	li	s10,0
    6e0e:	b7dd                	j	6df4 <_dtoa_r+0x8b4>
    6e10:	8cda                	mv	s9,s6
    6e12:	87ee                	mv	a5,s11
    6e14:	b70d                	j	6d36 <_dtoa_r+0x7f6>
    6e16:	8d56                	mv	s10,s5
    6e18:	8cda                	mv	s9,s6
    6e1a:	4901                	li	s2,0
    6e1c:	b725                	j	6d44 <_dtoa_r+0x804>
    6e1e:	8656                	mv	a2,s5
    6e20:	bf9d                	j	6d96 <_dtoa_r+0x856>
    6e22:	4712                	lw	a4,4(sp)
    6e24:	4785                	li	a5,1
    6e26:	4d01                	li	s10,0
    6e28:	f8e7dfe3          	bge	a5,a4,6dc6 <_dtoa_r+0x886>
    6e2c:	47e2                	lw	a5,24(sp)
    6e2e:	4505                	li	a0,1
    6e30:	cf89                	beqz	a5,6e4a <_dtoa_r+0x90a>
    6e32:	010aa783          	lw	a5,16(s5)
    6e36:	078d                	addi	a5,a5,3
    6e38:	078a                	slli	a5,a5,0x2
    6e3a:	97d6                	add	a5,a5,s5
    6e3c:	43c8                	lw	a0,4(a5)
    6e3e:	197000ef          	jal	ra,77d4 <__hi0bits>
    6e42:	02000793          	li	a5,32
    6e46:	40a78533          	sub	a0,a5,a0
    6e4a:	955e                	add	a0,a0,s7
    6e4c:	897d                	andi	a0,a0,31
    6e4e:	c151                	beqz	a0,6ed2 <_dtoa_r+0x992>
    6e50:	02000793          	li	a5,32
    6e54:	8f89                	sub	a5,a5,a0
    6e56:	4711                	li	a4,4
    6e58:	06f75a63          	bge	a4,a5,6ecc <_dtoa_r+0x98c>
    6e5c:	47f1                	li	a5,28
    6e5e:	40a78533          	sub	a0,a5,a0
    6e62:	9b2a                	add	s6,s6,a0
    6e64:	9caa                	add	s9,s9,a0
    6e66:	9baa                	add	s7,s7,a0
    6e68:	01605863          	blez	s6,6e78 <_dtoa_r+0x938>
    6e6c:	85ce                	mv	a1,s3
    6e6e:	865a                	mv	a2,s6
    6e70:	8526                	mv	a0,s1
    6e72:	431000ef          	jal	ra,7aa2 <__lshift>
    6e76:	89aa                	mv	s3,a0
    6e78:	01705863          	blez	s7,6e88 <_dtoa_r+0x948>
    6e7c:	85d6                	mv	a1,s5
    6e7e:	865e                	mv	a2,s7
    6e80:	8526                	mv	a0,s1
    6e82:	421000ef          	jal	ra,7aa2 <__lshift>
    6e86:	8aaa                	mv	s5,a0
    6e88:	57b2                	lw	a5,44(sp)
    6e8a:	c7b1                	beqz	a5,6ed6 <_dtoa_r+0x996>
    6e8c:	85d6                	mv	a1,s5
    6e8e:	854e                	mv	a0,s3
    6e90:	4e1000ef          	jal	ra,7b70 <__mcmp>
    6e94:	04055163          	bgez	a0,6ed6 <_dtoa_r+0x996>
    6e98:	85ce                	mv	a1,s3
    6e9a:	4681                	li	a3,0
    6e9c:	4629                	li	a2,10
    6e9e:	8526                	mv	a0,s1
    6ea0:	09d000ef          	jal	ra,773c <__multadd>
    6ea4:	47c2                	lw	a5,16(sp)
    6ea6:	147d                	addi	s0,s0,-1
    6ea8:	89aa                	mv	s3,a0
    6eaa:	26078c63          	beqz	a5,7122 <_dtoa_r+0xbe2>
    6eae:	85ca                	mv	a1,s2
    6eb0:	4681                	li	a3,0
    6eb2:	4629                	li	a2,10
    6eb4:	8526                	mv	a0,s1
    6eb6:	087000ef          	jal	ra,773c <__multadd>
    6eba:	47a2                	lw	a5,8(sp)
    6ebc:	892a                	mv	s2,a0
    6ebe:	08f04563          	bgtz	a5,6f48 <_dtoa_r+0xa08>
    6ec2:	4712                	lw	a4,4(sp)
    6ec4:	4789                	li	a5,2
    6ec6:	08e7d163          	bge	a5,a4,6f48 <_dtoa_r+0xa08>
    6eca:	a829                	j	6ee4 <_dtoa_r+0x9a4>
    6ecc:	f8e78ee3          	beq	a5,a4,6e68 <_dtoa_r+0x928>
    6ed0:	853e                	mv	a0,a5
    6ed2:	0571                	addi	a0,a0,28
    6ed4:	b779                	j	6e62 <_dtoa_r+0x922>
    6ed6:	07b04563          	bgtz	s11,6f40 <_dtoa_r+0xa00>
    6eda:	4712                	lw	a4,4(sp)
    6edc:	4789                	li	a5,2
    6ede:	06e7d163          	bge	a5,a4,6f40 <_dtoa_r+0xa00>
    6ee2:	c46e                	sw	s11,8(sp)
    6ee4:	47a2                	lw	a5,8(sp)
    6ee6:	ef91                	bnez	a5,6f02 <_dtoa_r+0x9c2>
    6ee8:	85d6                	mv	a1,s5
    6eea:	4681                	li	a3,0
    6eec:	4615                	li	a2,5
    6eee:	8526                	mv	a0,s1
    6ef0:	04d000ef          	jal	ra,773c <__multadd>
    6ef4:	8aaa                	mv	s5,a0
    6ef6:	85aa                	mv	a1,a0
    6ef8:	854e                	mv	a0,s3
    6efa:	477000ef          	jal	ra,7b70 <__mcmp>
    6efe:	b4a04de3          	bgtz	a0,6a58 <_dtoa_r+0x518>
    6f02:	47b2                	lw	a5,12(sp)
    6f04:	4a02                	lw	s4,0(sp)
    6f06:	fff7c413          	not	s0,a5
    6f0a:	4b01                	li	s6,0
    6f0c:	85d6                	mv	a1,s5
    6f0e:	8526                	mv	a0,s1
    6f10:	7e8000ef          	jal	ra,76f8 <_Bfree>
    6f14:	d80909e3          	beqz	s2,6ca6 <_dtoa_r+0x766>
    6f18:	000b0863          	beqz	s6,6f28 <_dtoa_r+0x9e8>
    6f1c:	012b0663          	beq	s6,s2,6f28 <_dtoa_r+0x9e8>
    6f20:	85da                	mv	a1,s6
    6f22:	8526                	mv	a0,s1
    6f24:	7d4000ef          	jal	ra,76f8 <_Bfree>
    6f28:	85ca                	mv	a1,s2
    6f2a:	8526                	mv	a0,s1
    6f2c:	7cc000ef          	jal	ra,76f8 <_Bfree>
    6f30:	bb9d                	j	6ca6 <_dtoa_r+0x766>
    6f32:	4a81                	li	s5,0
    6f34:	4901                	li	s2,0
    6f36:	b7f1                	j	6f02 <_dtoa_r+0x9c2>
    6f38:	846a                	mv	s0,s10
    6f3a:	4a81                	li	s5,0
    6f3c:	4901                	li	s2,0
    6f3e:	be29                	j	6a58 <_dtoa_r+0x518>
    6f40:	47c2                	lw	a5,16(sp)
    6f42:	c46e                	sw	s11,8(sp)
    6f44:	1e078663          	beqz	a5,7130 <_dtoa_r+0xbf0>
    6f48:	01905863          	blez	s9,6f58 <_dtoa_r+0xa18>
    6f4c:	85ca                	mv	a1,s2
    6f4e:	8666                	mv	a2,s9
    6f50:	8526                	mv	a0,s1
    6f52:	351000ef          	jal	ra,7aa2 <__lshift>
    6f56:	892a                	mv	s2,a0
    6f58:	854a                	mv	a0,s2
    6f5a:	020d0663          	beqz	s10,6f86 <_dtoa_r+0xa46>
    6f5e:	00492583          	lw	a1,4(s2)
    6f62:	8526                	mv	a0,s1
    6f64:	70c000ef          	jal	ra,7670 <_Balloc>
    6f68:	01092603          	lw	a2,16(s2)
    6f6c:	8b2a                	mv	s6,a0
    6f6e:	00c90593          	addi	a1,s2,12
    6f72:	0609                	addi	a2,a2,2
    6f74:	060a                	slli	a2,a2,0x2
    6f76:	0531                	addi	a0,a0,12
    6f78:	fb6fe0ef          	jal	ra,572e <memcpy>
    6f7c:	4605                	li	a2,1
    6f7e:	85da                	mv	a1,s6
    6f80:	8526                	mv	a0,s1
    6f82:	321000ef          	jal	ra,7aa2 <__lshift>
    6f86:	4782                	lw	a5,0(sp)
    6f88:	4722                	lw	a4,8(sp)
    6f8a:	8b4a                	mv	s6,s2
    6f8c:	00178c13          	addi	s8,a5,1
    6f90:	97ba                	add	a5,a5,a4
    6f92:	c63e                	sw	a5,12(sp)
    6f94:	001a7793          	andi	a5,s4,1
    6f98:	892a                	mv	s2,a0
    6f9a:	c43e                	sw	a5,8(sp)
    6f9c:	85d6                	mv	a1,s5
    6f9e:	854e                	mv	a0,s3
    6fa0:	c66ff0ef          	jal	ra,6406 <quorem>
    6fa4:	85da                	mv	a1,s6
    6fa6:	8d2a                	mv	s10,a0
    6fa8:	03050d93          	addi	s11,a0,48
    6fac:	854e                	mv	a0,s3
    6fae:	3c3000ef          	jal	ra,7b70 <__mcmp>
    6fb2:	864a                	mv	a2,s2
    6fb4:	8baa                	mv	s7,a0
    6fb6:	85d6                	mv	a1,s5
    6fb8:	8526                	mv	a0,s1
    6fba:	3e9000ef          	jal	ra,7ba2 <__mdiff>
    6fbe:	4550                	lw	a2,12(a0)
    6fc0:	fffc0c93          	addi	s9,s8,-1
    6fc4:	8a2a                	mv	s4,a0
    6fc6:	4705                	li	a4,1
    6fc8:	e611                	bnez	a2,6fd4 <_dtoa_r+0xa94>
    6fca:	85aa                	mv	a1,a0
    6fcc:	854e                	mv	a0,s3
    6fce:	3a3000ef          	jal	ra,7b70 <__mcmp>
    6fd2:	872a                	mv	a4,a0
    6fd4:	85d2                	mv	a1,s4
    6fd6:	8526                	mv	a0,s1
    6fd8:	c83a                	sw	a4,16(sp)
    6fda:	71e000ef          	jal	ra,76f8 <_Bfree>
    6fde:	4792                	lw	a5,4(sp)
    6fe0:	4742                	lw	a4,16(sp)
    6fe2:	8a62                	mv	s4,s8
    6fe4:	00e7e6b3          	or	a3,a5,a4
    6fe8:	47a2                	lw	a5,8(sp)
    6fea:	8edd                	or	a3,a3,a5
    6fec:	ee81                	bnez	a3,7004 <_dtoa_r+0xac4>
    6fee:	03900713          	li	a4,57
    6ff2:	04ed8863          	beq	s11,a4,7042 <_dtoa_r+0xb02>
    6ff6:	01705463          	blez	s7,6ffe <_dtoa_r+0xabe>
    6ffa:	031d0d93          	addi	s11,s10,49
    6ffe:	01bc8023          	sb	s11,0(s9)
    7002:	b729                	j	6f0c <_dtoa_r+0x9cc>
    7004:	000bca63          	bltz	s7,7018 <_dtoa_r+0xad8>
    7008:	4792                	lw	a5,4(sp)
    700a:	0177ebb3          	or	s7,a5,s7
    700e:	47a2                	lw	a5,8(sp)
    7010:	00fbebb3          	or	s7,s7,a5
    7014:	040b9563          	bnez	s7,705e <_dtoa_r+0xb1e>
    7018:	fee053e3          	blez	a4,6ffe <_dtoa_r+0xabe>
    701c:	85ce                	mv	a1,s3
    701e:	4605                	li	a2,1
    7020:	8526                	mv	a0,s1
    7022:	281000ef          	jal	ra,7aa2 <__lshift>
    7026:	85d6                	mv	a1,s5
    7028:	89aa                	mv	s3,a0
    702a:	347000ef          	jal	ra,7b70 <__mcmp>
    702e:	00a04663          	bgtz	a0,703a <_dtoa_r+0xafa>
    7032:	f571                	bnez	a0,6ffe <_dtoa_r+0xabe>
    7034:	001df713          	andi	a4,s11,1
    7038:	d379                	beqz	a4,6ffe <_dtoa_r+0xabe>
    703a:	03900713          	li	a4,57
    703e:	faed9ee3          	bne	s11,a4,6ffa <_dtoa_r+0xaba>
    7042:	03900793          	li	a5,57
    7046:	00fc8023          	sb	a5,0(s9)
    704a:	03900693          	li	a3,57
    704e:	fffa4783          	lbu	a5,-1(s4)
    7052:	fffa0713          	addi	a4,s4,-1
    7056:	08d78c63          	beq	a5,a3,70ee <_dtoa_r+0xbae>
    705a:	0785                	addi	a5,a5,1
    705c:	a045                	j	70fc <_dtoa_r+0xbbc>
    705e:	00e05b63          	blez	a4,7074 <_dtoa_r+0xb34>
    7062:	03900713          	li	a4,57
    7066:	fced8ee3          	beq	s11,a4,7042 <_dtoa_r+0xb02>
    706a:	001d8793          	addi	a5,s11,1
    706e:	00fc8023          	sb	a5,0(s9)
    7072:	bd69                	j	6f0c <_dtoa_r+0x9cc>
    7074:	47b2                	lw	a5,12(sp)
    7076:	ffbc0fa3          	sb	s11,-1(s8)
    707a:	05878163          	beq	a5,s8,70bc <_dtoa_r+0xb7c>
    707e:	85ce                	mv	a1,s3
    7080:	4681                	li	a3,0
    7082:	4629                	li	a2,10
    7084:	8526                	mv	a0,s1
    7086:	6b6000ef          	jal	ra,773c <__multadd>
    708a:	89aa                	mv	s3,a0
    708c:	4681                	li	a3,0
    708e:	4629                	li	a2,10
    7090:	85da                	mv	a1,s6
    7092:	8526                	mv	a0,s1
    7094:	012b1863          	bne	s6,s2,70a4 <_dtoa_r+0xb64>
    7098:	6a4000ef          	jal	ra,773c <__multadd>
    709c:	8b2a                	mv	s6,a0
    709e:	892a                	mv	s2,a0
    70a0:	0c05                	addi	s8,s8,1
    70a2:	bded                	j	6f9c <_dtoa_r+0xa5c>
    70a4:	698000ef          	jal	ra,773c <__multadd>
    70a8:	85ca                	mv	a1,s2
    70aa:	8b2a                	mv	s6,a0
    70ac:	4681                	li	a3,0
    70ae:	4629                	li	a2,10
    70b0:	8526                	mv	a0,s1
    70b2:	68a000ef          	jal	ra,773c <__multadd>
    70b6:	892a                	mv	s2,a0
    70b8:	b7e5                	j	70a0 <_dtoa_r+0xb60>
    70ba:	4b01                	li	s6,0
    70bc:	85ce                	mv	a1,s3
    70be:	4605                	li	a2,1
    70c0:	8526                	mv	a0,s1
    70c2:	1e1000ef          	jal	ra,7aa2 <__lshift>
    70c6:	85d6                	mv	a1,s5
    70c8:	89aa                	mv	s3,a0
    70ca:	2a7000ef          	jal	ra,7b70 <__mcmp>
    70ce:	f6a04ee3          	bgtz	a0,704a <_dtoa_r+0xb0a>
    70d2:	e501                	bnez	a0,70da <_dtoa_r+0xb9a>
    70d4:	001df793          	andi	a5,s11,1
    70d8:	fbad                	bnez	a5,704a <_dtoa_r+0xb0a>
    70da:	03000793          	li	a5,48
    70de:	fffa4703          	lbu	a4,-1(s4)
    70e2:	fffa0693          	addi	a3,s4,-1
    70e6:	e2f713e3          	bne	a4,a5,6f0c <_dtoa_r+0x9cc>
    70ea:	8a36                	mv	s4,a3
    70ec:	bfcd                	j	70de <_dtoa_r+0xb9e>
    70ee:	4782                	lw	a5,0(sp)
    70f0:	00e79963          	bne	a5,a4,7102 <_dtoa_r+0xbc2>
    70f4:	4702                	lw	a4,0(sp)
    70f6:	0405                	addi	s0,s0,1
    70f8:	03100793          	li	a5,49
    70fc:	00f70023          	sb	a5,0(a4)
    7100:	b531                	j	6f0c <_dtoa_r+0x9cc>
    7102:	8a3a                	mv	s4,a4
    7104:	b7a9                	j	704e <_dtoa_r+0xb0e>
    7106:	4752                	lw	a4,20(sp)
    7108:	00002797          	auipc	a5,0x2
    710c:	b2878793          	addi	a5,a5,-1240 # 8c30 <__clz_tab+0x194>
    7110:	c03e                	sw	a5,0(sp)
    7112:	00002797          	auipc	a5,0x2
    7116:	b2678793          	addi	a5,a5,-1242 # 8c38 <__clz_tab+0x19c>
    711a:	ce071763          	bnez	a4,6608 <_dtoa_r+0xc8>
    711e:	ceeff06f          	j	660c <_dtoa_r+0xcc>
    7122:	47a2                	lw	a5,8(sp)
    7124:	00f04663          	bgtz	a5,7130 <_dtoa_r+0xbf0>
    7128:	4712                	lw	a4,4(sp)
    712a:	4789                	li	a5,2
    712c:	dae7cce3          	blt	a5,a4,6ee4 <_dtoa_r+0x9a4>
    7130:	4a02                	lw	s4,0(sp)
    7132:	85d6                	mv	a1,s5
    7134:	854e                	mv	a0,s3
    7136:	ad0ff0ef          	jal	ra,6406 <quorem>
    713a:	4782                	lw	a5,0(sp)
    713c:	0a05                	addi	s4,s4,1
    713e:	03050d93          	addi	s11,a0,48
    7142:	40fa0733          	sub	a4,s4,a5
    7146:	47a2                	lw	a5,8(sp)
    7148:	ffba0fa3          	sb	s11,-1(s4)
    714c:	f6f757e3          	bge	a4,a5,70ba <_dtoa_r+0xb7a>
    7150:	85ce                	mv	a1,s3
    7152:	4681                	li	a3,0
    7154:	4629                	li	a2,10
    7156:	8526                	mv	a0,s1
    7158:	23d5                	jal	773c <__multadd>
    715a:	89aa                	mv	s3,a0
    715c:	bfd9                	j	7132 <_dtoa_r+0xbf2>

0000715e <__sflush_r>:
__sflush_r():
    715e:	00c5d783          	lhu	a5,12(a1) # 7ff0000c <_eusrstack+0x5fef000c>
    7162:	1101                	addi	sp,sp,-32
    7164:	cc22                	sw	s0,24(sp)
    7166:	ca26                	sw	s1,20(sp)
    7168:	ce06                	sw	ra,28(sp)
    716a:	c84a                	sw	s2,16(sp)
    716c:	c64e                	sw	s3,12(sp)
    716e:	0087f713          	andi	a4,a5,8
    7172:	84aa                	mv	s1,a0
    7174:	842e                	mv	s0,a1
    7176:	ef79                	bnez	a4,7254 <__sflush_r+0xf6>
    7178:	41d8                	lw	a4,4(a1)
    717a:	00e04d63          	bgtz	a4,7194 <__sflush_r+0x36>
    717e:	41b8                	lw	a4,64(a1)
    7180:	00e04a63          	bgtz	a4,7194 <__sflush_r+0x36>
    7184:	4501                	li	a0,0
    7186:	40f2                	lw	ra,28(sp)
    7188:	4462                	lw	s0,24(sp)
    718a:	44d2                	lw	s1,20(sp)
    718c:	4942                	lw	s2,16(sp)
    718e:	49b2                	lw	s3,12(sp)
    7190:	6105                	addi	sp,sp,32
    7192:	8082                	ret
    7194:	5458                	lw	a4,44(s0)
    7196:	d77d                	beqz	a4,7184 <__sflush_r+0x26>
    7198:	0004a903          	lw	s2,0(s1)
    719c:	01379693          	slli	a3,a5,0x13
    71a0:	0004a023          	sw	zero,0(s1)
    71a4:	0606de63          	bgez	a3,7220 <__sflush_r+0xc2>
    71a8:	4870                	lw	a2,84(s0)
    71aa:	00c45783          	lhu	a5,12(s0)
    71ae:	8b91                	andi	a5,a5,4
    71b0:	c799                	beqz	a5,71be <__sflush_r+0x60>
    71b2:	405c                	lw	a5,4(s0)
    71b4:	8e1d                	sub	a2,a2,a5
    71b6:	585c                	lw	a5,52(s0)
    71b8:	c399                	beqz	a5,71be <__sflush_r+0x60>
    71ba:	403c                	lw	a5,64(s0)
    71bc:	8e1d                	sub	a2,a2,a5
    71be:	545c                	lw	a5,44(s0)
    71c0:	500c                	lw	a1,32(s0)
    71c2:	4681                	li	a3,0
    71c4:	8526                	mv	a0,s1
    71c6:	9782                	jalr	a5
    71c8:	57fd                	li	a5,-1
    71ca:	00c45703          	lhu	a4,12(s0)
    71ce:	00f51d63          	bne	a0,a5,71e8 <__sflush_r+0x8a>
    71d2:	4094                	lw	a3,0(s1)
    71d4:	47f5                	li	a5,29
    71d6:	06d7e963          	bltu	a5,a3,7248 <__sflush_r+0xea>
    71da:	204007b7          	lui	a5,0x20400
    71de:	0785                	addi	a5,a5,1
    71e0:	00d7d7b3          	srl	a5,a5,a3
    71e4:	8b85                	andi	a5,a5,1
    71e6:	c3ad                	beqz	a5,7248 <__sflush_r+0xea>
    71e8:	481c                	lw	a5,16(s0)
    71ea:	00042223          	sw	zero,4(s0)
    71ee:	c01c                	sw	a5,0(s0)
    71f0:	01371793          	slli	a5,a4,0x13
    71f4:	0007d863          	bgez	a5,7204 <__sflush_r+0xa6>
    71f8:	57fd                	li	a5,-1
    71fa:	00f51463          	bne	a0,a5,7202 <__sflush_r+0xa4>
    71fe:	409c                	lw	a5,0(s1)
    7200:	e391                	bnez	a5,7204 <__sflush_r+0xa6>
    7202:	c868                	sw	a0,84(s0)
    7204:	584c                	lw	a1,52(s0)
    7206:	0124a023          	sw	s2,0(s1)
    720a:	ddad                	beqz	a1,7184 <__sflush_r+0x26>
    720c:	04440793          	addi	a5,s0,68
    7210:	00f58563          	beq	a1,a5,721a <__sflush_r+0xbc>
    7214:	8526                	mv	a0,s1
    7216:	379000ef          	jal	ra,7d8e <_free_r>
    721a:	02042a23          	sw	zero,52(s0)
    721e:	b79d                	j	7184 <__sflush_r+0x26>
    7220:	500c                	lw	a1,32(s0)
    7222:	4601                	li	a2,0
    7224:	4685                	li	a3,1
    7226:	8526                	mv	a0,s1
    7228:	9702                	jalr	a4
    722a:	57fd                	li	a5,-1
    722c:	862a                	mv	a2,a0
    722e:	f6f51ee3          	bne	a0,a5,71aa <__sflush_r+0x4c>
    7232:	409c                	lw	a5,0(s1)
    7234:	dbbd                	beqz	a5,71aa <__sflush_r+0x4c>
    7236:	4775                	li	a4,29
    7238:	00e78563          	beq	a5,a4,7242 <__sflush_r+0xe4>
    723c:	4759                	li	a4,22
    723e:	04e79463          	bne	a5,a4,7286 <__sflush_r+0x128>
    7242:	0124a023          	sw	s2,0(s1)
    7246:	bf3d                	j	7184 <__sflush_r+0x26>
    7248:	04076713          	ori	a4,a4,64
    724c:	00e41623          	sh	a4,12(s0)
    7250:	557d                	li	a0,-1
    7252:	bf15                	j	7186 <__sflush_r+0x28>
    7254:	0105a983          	lw	s3,16(a1)
    7258:	f20986e3          	beqz	s3,7184 <__sflush_r+0x26>
    725c:	0005a903          	lw	s2,0(a1)
    7260:	8b8d                	andi	a5,a5,3
    7262:	0135a023          	sw	s3,0(a1)
    7266:	41390933          	sub	s2,s2,s3
    726a:	4701                	li	a4,0
    726c:	e391                	bnez	a5,7270 <__sflush_r+0x112>
    726e:	49d8                	lw	a4,20(a1)
    7270:	c418                	sw	a4,8(s0)
    7272:	f12059e3          	blez	s2,7184 <__sflush_r+0x26>
    7276:	541c                	lw	a5,40(s0)
    7278:	500c                	lw	a1,32(s0)
    727a:	86ca                	mv	a3,s2
    727c:	864e                	mv	a2,s3
    727e:	8526                	mv	a0,s1
    7280:	9782                	jalr	a5
    7282:	00a04963          	bgtz	a0,7294 <__sflush_r+0x136>
    7286:	00c45783          	lhu	a5,12(s0)
    728a:	0407e793          	ori	a5,a5,64
    728e:	00f41623          	sh	a5,12(s0)
    7292:	bf7d                	j	7250 <__sflush_r+0xf2>
    7294:	99aa                	add	s3,s3,a0
    7296:	40a90933          	sub	s2,s2,a0
    729a:	bfe1                	j	7272 <__sflush_r+0x114>

0000729c <_fflush_r>:
_fflush_r():
    729c:	499c                	lw	a5,16(a1)
    729e:	c3a5                	beqz	a5,72fe <_fflush_r+0x62>
    72a0:	1101                	addi	sp,sp,-32
    72a2:	cc22                	sw	s0,24(sp)
    72a4:	ce06                	sw	ra,28(sp)
    72a6:	842a                	mv	s0,a0
    72a8:	c511                	beqz	a0,72b4 <_fflush_r+0x18>
    72aa:	4d1c                	lw	a5,24(a0)
    72ac:	e781                	bnez	a5,72b4 <_fflush_r+0x18>
    72ae:	c62e                	sw	a1,12(sp)
    72b0:	2239                	jal	73be <__sinit>
    72b2:	45b2                	lw	a1,12(sp)
    72b4:	00002797          	auipc	a5,0x2
    72b8:	9ac78793          	addi	a5,a5,-1620 # 8c60 <__sf_fake_stdin>
    72bc:	00f59c63          	bne	a1,a5,72d4 <_fflush_r+0x38>
    72c0:	404c                	lw	a1,4(s0)
    72c2:	00c59783          	lh	a5,12(a1)
    72c6:	c79d                	beqz	a5,72f4 <_fflush_r+0x58>
    72c8:	8522                	mv	a0,s0
    72ca:	4462                	lw	s0,24(sp)
    72cc:	40f2                	lw	ra,28(sp)
    72ce:	6105                	addi	sp,sp,32
    72d0:	e8fff06f          	j	715e <__sflush_r>
    72d4:	00002797          	auipc	a5,0x2
    72d8:	9ac78793          	addi	a5,a5,-1620 # 8c80 <__sf_fake_stdout>
    72dc:	00f59463          	bne	a1,a5,72e4 <_fflush_r+0x48>
    72e0:	440c                	lw	a1,8(s0)
    72e2:	b7c5                	j	72c2 <_fflush_r+0x26>
    72e4:	00002797          	auipc	a5,0x2
    72e8:	95c78793          	addi	a5,a5,-1700 # 8c40 <__sf_fake_stderr>
    72ec:	fcf59be3          	bne	a1,a5,72c2 <_fflush_r+0x26>
    72f0:	444c                	lw	a1,12(s0)
    72f2:	bfc1                	j	72c2 <_fflush_r+0x26>
    72f4:	40f2                	lw	ra,28(sp)
    72f6:	4462                	lw	s0,24(sp)
    72f8:	4501                	li	a0,0
    72fa:	6105                	addi	sp,sp,32
    72fc:	8082                	ret
    72fe:	4501                	li	a0,0
    7300:	8082                	ret

00007302 <std>:
std():
    7302:	1141                	addi	sp,sp,-16
    7304:	c422                	sw	s0,8(sp)
    7306:	c606                	sw	ra,12(sp)
    7308:	842a                	mv	s0,a0
    730a:	00b51623          	sh	a1,12(a0)
    730e:	00c51723          	sh	a2,14(a0)
    7312:	00052023          	sw	zero,0(a0)
    7316:	00052223          	sw	zero,4(a0)
    731a:	00052423          	sw	zero,8(a0)
    731e:	06052223          	sw	zero,100(a0)
    7322:	00052823          	sw	zero,16(a0)
    7326:	00052a23          	sw	zero,20(a0)
    732a:	00052c23          	sw	zero,24(a0)
    732e:	4621                	li	a2,8
    7330:	4581                	li	a1,0
    7332:	05c50513          	addi	a0,a0,92
    7336:	edff80ef          	jal	ra,214 <memset>
    733a:	00001797          	auipc	a5,0x1
    733e:	efc78793          	addi	a5,a5,-260 # 8236 <__sread>
    7342:	d05c                	sw	a5,36(s0)
    7344:	00001797          	auipc	a5,0x1
    7348:	f2278793          	addi	a5,a5,-222 # 8266 <__swrite>
    734c:	d41c                	sw	a5,40(s0)
    734e:	00001797          	auipc	a5,0x1
    7352:	f6678793          	addi	a5,a5,-154 # 82b4 <__sseek>
    7356:	d45c                	sw	a5,44(s0)
    7358:	00001797          	auipc	a5,0x1
    735c:	f9278793          	addi	a5,a5,-110 # 82ea <__sclose>
    7360:	d000                	sw	s0,32(s0)
    7362:	d81c                	sw	a5,48(s0)
    7364:	40b2                	lw	ra,12(sp)
    7366:	4422                	lw	s0,8(sp)
    7368:	0141                	addi	sp,sp,16
    736a:	8082                	ret

0000736c <_cleanup_r>:
_cleanup_r():
    736c:	00000597          	auipc	a1,0x0
    7370:	f3058593          	addi	a1,a1,-208 # 729c <_fflush_r>
    7374:	aa99                	j	74ca <_fwalk_reent>

00007376 <__sfmoreglue>:
__sfmoreglue():
    7376:	1141                	addi	sp,sp,-16
    7378:	c226                	sw	s1,4(sp)
    737a:	06800613          	li	a2,104
    737e:	fff58493          	addi	s1,a1,-1
    7382:	02c484b3          	mul	s1,s1,a2
    7386:	c04a                	sw	s2,0(sp)
    7388:	892e                	mv	s2,a1
    738a:	c422                	sw	s0,8(sp)
    738c:	c606                	sw	ra,12(sp)
    738e:	07448593          	addi	a1,s1,116
    7392:	2a1000ef          	jal	ra,7e32 <_malloc_r>
    7396:	842a                	mv	s0,a0
    7398:	cd01                	beqz	a0,73b0 <__sfmoreglue+0x3a>
    739a:	00052023          	sw	zero,0(a0)
    739e:	01252223          	sw	s2,4(a0)
    73a2:	0531                	addi	a0,a0,12
    73a4:	c408                	sw	a0,8(s0)
    73a6:	06848613          	addi	a2,s1,104
    73aa:	4581                	li	a1,0
    73ac:	e69f80ef          	jal	ra,214 <memset>
    73b0:	8522                	mv	a0,s0
    73b2:	40b2                	lw	ra,12(sp)
    73b4:	4422                	lw	s0,8(sp)
    73b6:	4492                	lw	s1,4(sp)
    73b8:	4902                	lw	s2,0(sp)
    73ba:	0141                	addi	sp,sp,16
    73bc:	8082                	ret

000073be <__sinit>:
__sinit():
    73be:	4d1c                	lw	a5,24(a0)
    73c0:	e7a5                	bnez	a5,7428 <__sinit+0x6a>
    73c2:	1141                	addi	sp,sp,-16
    73c4:	c606                	sw	ra,12(sp)
    73c6:	c422                	sw	s0,8(sp)
    73c8:	00000797          	auipc	a5,0x0
    73cc:	fa478793          	addi	a5,a5,-92 # 736c <_cleanup_r>
    73d0:	d51c                	sw	a5,40(a0)
    73d2:	82018793          	addi	a5,gp,-2016 # 20000240 <_global_impure_ptr>
    73d6:	439c                	lw	a5,0(a5)
    73d8:	04052423          	sw	zero,72(a0)
    73dc:	04052623          	sw	zero,76(a0)
    73e0:	04052823          	sw	zero,80(a0)
    73e4:	00f51463          	bne	a0,a5,73ec <__sinit+0x2e>
    73e8:	4785                	li	a5,1
    73ea:	cd1c                	sw	a5,24(a0)
    73ec:	842a                	mv	s0,a0
    73ee:	2835                	jal	742a <__sfp>
    73f0:	c048                	sw	a0,4(s0)
    73f2:	8522                	mv	a0,s0
    73f4:	281d                	jal	742a <__sfp>
    73f6:	c408                	sw	a0,8(s0)
    73f8:	8522                	mv	a0,s0
    73fa:	2805                	jal	742a <__sfp>
    73fc:	c448                	sw	a0,12(s0)
    73fe:	4048                	lw	a0,4(s0)
    7400:	4601                	li	a2,0
    7402:	4591                	li	a1,4
    7404:	effff0ef          	jal	ra,7302 <std>
    7408:	4408                	lw	a0,8(s0)
    740a:	4605                	li	a2,1
    740c:	45a5                	li	a1,9
    740e:	ef5ff0ef          	jal	ra,7302 <std>
    7412:	4448                	lw	a0,12(s0)
    7414:	4609                	li	a2,2
    7416:	45c9                	li	a1,18
    7418:	eebff0ef          	jal	ra,7302 <std>
    741c:	4785                	li	a5,1
    741e:	cc1c                	sw	a5,24(s0)
    7420:	40b2                	lw	ra,12(sp)
    7422:	4422                	lw	s0,8(sp)
    7424:	0141                	addi	sp,sp,16
    7426:	8082                	ret
    7428:	8082                	ret

0000742a <__sfp>:
__sfp():
    742a:	1141                	addi	sp,sp,-16
    742c:	82018793          	addi	a5,gp,-2016 # 20000240 <_global_impure_ptr>
    7430:	c226                	sw	s1,4(sp)
    7432:	4384                	lw	s1,0(a5)
    7434:	c04a                	sw	s2,0(sp)
    7436:	c606                	sw	ra,12(sp)
    7438:	4c9c                	lw	a5,24(s1)
    743a:	c422                	sw	s0,8(sp)
    743c:	892a                	mv	s2,a0
    743e:	e781                	bnez	a5,7446 <__sfp+0x1c>
    7440:	8526                	mv	a0,s1
    7442:	f7dff0ef          	jal	ra,73be <__sinit>
    7446:	04848493          	addi	s1,s1,72
    744a:	4480                	lw	s0,8(s1)
    744c:	40dc                	lw	a5,4(s1)
    744e:	17fd                	addi	a5,a5,-1
    7450:	0007d663          	bgez	a5,745c <__sfp+0x32>
    7454:	409c                	lw	a5,0(s1)
    7456:	cfb9                	beqz	a5,74b4 <__sfp+0x8a>
    7458:	4084                	lw	s1,0(s1)
    745a:	bfc5                	j	744a <__sfp+0x20>
    745c:	00c41703          	lh	a4,12(s0)
    7460:	e739                	bnez	a4,74ae <__sfp+0x84>
    7462:	77c1                	lui	a5,0xffff0
    7464:	0785                	addi	a5,a5,1
    7466:	06042223          	sw	zero,100(s0)
    746a:	00042023          	sw	zero,0(s0)
    746e:	00042223          	sw	zero,4(s0)
    7472:	00042423          	sw	zero,8(s0)
    7476:	c45c                	sw	a5,12(s0)
    7478:	00042823          	sw	zero,16(s0)
    747c:	00042a23          	sw	zero,20(s0)
    7480:	00042c23          	sw	zero,24(s0)
    7484:	4621                	li	a2,8
    7486:	4581                	li	a1,0
    7488:	05c40513          	addi	a0,s0,92
    748c:	d89f80ef          	jal	ra,214 <memset>
    7490:	02042a23          	sw	zero,52(s0)
    7494:	02042c23          	sw	zero,56(s0)
    7498:	04042423          	sw	zero,72(s0)
    749c:	04042623          	sw	zero,76(s0)
    74a0:	8522                	mv	a0,s0
    74a2:	40b2                	lw	ra,12(sp)
    74a4:	4422                	lw	s0,8(sp)
    74a6:	4492                	lw	s1,4(sp)
    74a8:	4902                	lw	s2,0(sp)
    74aa:	0141                	addi	sp,sp,16
    74ac:	8082                	ret
    74ae:	06840413          	addi	s0,s0,104
    74b2:	bf71                	j	744e <__sfp+0x24>
    74b4:	4591                	li	a1,4
    74b6:	854a                	mv	a0,s2
    74b8:	ebfff0ef          	jal	ra,7376 <__sfmoreglue>
    74bc:	c088                	sw	a0,0(s1)
    74be:	fd49                	bnez	a0,7458 <__sfp+0x2e>
    74c0:	47b1                	li	a5,12
    74c2:	00f92023          	sw	a5,0(s2)
    74c6:	4401                	li	s0,0
    74c8:	bfe1                	j	74a0 <__sfp+0x76>

000074ca <_fwalk_reent>:
_fwalk_reent():
    74ca:	7179                	addi	sp,sp,-48
    74cc:	d422                	sw	s0,40(sp)
    74ce:	d04a                	sw	s2,32(sp)
    74d0:	cc52                	sw	s4,24(sp)
    74d2:	ca56                	sw	s5,20(sp)
    74d4:	c85a                	sw	s6,16(sp)
    74d6:	c65e                	sw	s7,12(sp)
    74d8:	d606                	sw	ra,44(sp)
    74da:	d226                	sw	s1,36(sp)
    74dc:	ce4e                	sw	s3,28(sp)
    74de:	8a2a                	mv	s4,a0
    74e0:	8aae                	mv	s5,a1
    74e2:	04850413          	addi	s0,a0,72
    74e6:	4901                	li	s2,0
    74e8:	4b05                	li	s6,1
    74ea:	5bfd                	li	s7,-1
    74ec:	ec09                	bnez	s0,7506 <_fwalk_reent+0x3c>
    74ee:	50b2                	lw	ra,44(sp)
    74f0:	5422                	lw	s0,40(sp)
    74f2:	854a                	mv	a0,s2
    74f4:	5492                	lw	s1,36(sp)
    74f6:	5902                	lw	s2,32(sp)
    74f8:	49f2                	lw	s3,28(sp)
    74fa:	4a62                	lw	s4,24(sp)
    74fc:	4ad2                	lw	s5,20(sp)
    74fe:	4b42                	lw	s6,16(sp)
    7500:	4bb2                	lw	s7,12(sp)
    7502:	6145                	addi	sp,sp,48
    7504:	8082                	ret
    7506:	4404                	lw	s1,8(s0)
    7508:	00442983          	lw	s3,4(s0)
    750c:	19fd                	addi	s3,s3,-1
    750e:	0009d463          	bgez	s3,7516 <_fwalk_reent+0x4c>
    7512:	4000                	lw	s0,0(s0)
    7514:	bfe1                	j	74ec <_fwalk_reent+0x22>
    7516:	00c4d783          	lhu	a5,12(s1)
    751a:	00fb7b63          	bgeu	s6,a5,7530 <_fwalk_reent+0x66>
    751e:	00e49783          	lh	a5,14(s1)
    7522:	01778763          	beq	a5,s7,7530 <_fwalk_reent+0x66>
    7526:	85a6                	mv	a1,s1
    7528:	8552                	mv	a0,s4
    752a:	9a82                	jalr	s5
    752c:	00a96933          	or	s2,s2,a0
    7530:	06848493          	addi	s1,s1,104
    7534:	bfe1                	j	750c <_fwalk_reent+0x42>

00007536 <_localeconv_r>:
_localeconv_r():
    7536:	81018793          	addi	a5,gp,-2032 # 20000230 <_impure_ptr>
    753a:	439c                	lw	a5,0(a5)
    753c:	5388                	lw	a0,32(a5)
    753e:	e509                	bnez	a0,7548 <_localeconv_r+0x12>
    7540:	1fff9517          	auipc	a0,0x1fff9
    7544:	b7450513          	addi	a0,a0,-1164 # 200000b4 <__global_locale>
    7548:	0f050513          	addi	a0,a0,240
    754c:	8082                	ret

0000754e <__swhatbuf_r>:
__swhatbuf_r():
    754e:	7119                	addi	sp,sp,-128
    7550:	daa6                	sw	s1,116(sp)
    7552:	84ae                	mv	s1,a1
    7554:	00e59583          	lh	a1,14(a1)
    7558:	dca2                	sw	s0,120(sp)
    755a:	de86                	sw	ra,124(sp)
    755c:	8432                	mv	s0,a2
    755e:	0005dc63          	bgez	a1,7576 <__swhatbuf_r+0x28>
    7562:	00c4d783          	lhu	a5,12(s1)
    7566:	0006a023          	sw	zero,0(a3)
    756a:	0807f793          	andi	a5,a5,128
    756e:	e785                	bnez	a5,7596 <__swhatbuf_r+0x48>
    7570:	40000793          	li	a5,1024
    7574:	a01d                	j	759a <__swhatbuf_r+0x4c>
    7576:	0830                	addi	a2,sp,24
    7578:	c636                	sw	a3,12(sp)
    757a:	5cd000ef          	jal	ra,8346 <_fstat_r>
    757e:	46b2                	lw	a3,12(sp)
    7580:	fe0541e3          	bltz	a0,7562 <__swhatbuf_r+0x14>
    7584:	4772                	lw	a4,28(sp)
    7586:	67bd                	lui	a5,0xf
    7588:	8ff9                	and	a5,a5,a4
    758a:	7779                	lui	a4,0xffffe
    758c:	97ba                	add	a5,a5,a4
    758e:	0017b793          	seqz	a5,a5
    7592:	c29c                	sw	a5,0(a3)
    7594:	bff1                	j	7570 <__swhatbuf_r+0x22>
    7596:	04000793          	li	a5,64
    759a:	c01c                	sw	a5,0(s0)
    759c:	50f6                	lw	ra,124(sp)
    759e:	5466                	lw	s0,120(sp)
    75a0:	54d6                	lw	s1,116(sp)
    75a2:	4501                	li	a0,0
    75a4:	6109                	addi	sp,sp,128
    75a6:	8082                	ret

000075a8 <__smakebuf_r>:
__smakebuf_r():
    75a8:	00c5d783          	lhu	a5,12(a1)
    75ac:	1101                	addi	sp,sp,-32
    75ae:	cc22                	sw	s0,24(sp)
    75b0:	ce06                	sw	ra,28(sp)
    75b2:	ca26                	sw	s1,20(sp)
    75b4:	c84a                	sw	s2,16(sp)
    75b6:	8b89                	andi	a5,a5,2
    75b8:	842e                	mv	s0,a1
    75ba:	cf89                	beqz	a5,75d4 <__smakebuf_r+0x2c>
    75bc:	04740793          	addi	a5,s0,71
    75c0:	c01c                	sw	a5,0(s0)
    75c2:	c81c                	sw	a5,16(s0)
    75c4:	4785                	li	a5,1
    75c6:	c85c                	sw	a5,20(s0)
    75c8:	40f2                	lw	ra,28(sp)
    75ca:	4462                	lw	s0,24(sp)
    75cc:	44d2                	lw	s1,20(sp)
    75ce:	4942                	lw	s2,16(sp)
    75d0:	6105                	addi	sp,sp,32
    75d2:	8082                	ret
    75d4:	0074                	addi	a3,sp,12
    75d6:	0030                	addi	a2,sp,8
    75d8:	84aa                	mv	s1,a0
    75da:	f75ff0ef          	jal	ra,754e <__swhatbuf_r>
    75de:	45a2                	lw	a1,8(sp)
    75e0:	892a                	mv	s2,a0
    75e2:	8526                	mv	a0,s1
    75e4:	04f000ef          	jal	ra,7e32 <_malloc_r>
    75e8:	ed01                	bnez	a0,7600 <__smakebuf_r+0x58>
    75ea:	00c41783          	lh	a5,12(s0)
    75ee:	2007f713          	andi	a4,a5,512
    75f2:	fb79                	bnez	a4,75c8 <__smakebuf_r+0x20>
    75f4:	9bf1                	andi	a5,a5,-4
    75f6:	0027e793          	ori	a5,a5,2
    75fa:	00f41623          	sh	a5,12(s0)
    75fe:	bf7d                	j	75bc <__smakebuf_r+0x14>
    7600:	00000797          	auipc	a5,0x0
    7604:	d6c78793          	addi	a5,a5,-660 # 736c <_cleanup_r>
    7608:	d49c                	sw	a5,40(s1)
    760a:	00c45783          	lhu	a5,12(s0)
    760e:	c008                	sw	a0,0(s0)
    7610:	c808                	sw	a0,16(s0)
    7612:	0807e793          	ori	a5,a5,128
    7616:	00f41623          	sh	a5,12(s0)
    761a:	47a2                	lw	a5,8(sp)
    761c:	c85c                	sw	a5,20(s0)
    761e:	47b2                	lw	a5,12(sp)
    7620:	cf91                	beqz	a5,763c <__smakebuf_r+0x94>
    7622:	00e41583          	lh	a1,14(s0)
    7626:	8526                	mv	a0,s1
    7628:	549000ef          	jal	ra,8370 <_isatty_r>
    762c:	c901                	beqz	a0,763c <__smakebuf_r+0x94>
    762e:	00c45783          	lhu	a5,12(s0)
    7632:	9bf1                	andi	a5,a5,-4
    7634:	0017e793          	ori	a5,a5,1
    7638:	00f41623          	sh	a5,12(s0)
    763c:	00c45783          	lhu	a5,12(s0)
    7640:	00f96933          	or	s2,s2,a5
    7644:	01241623          	sh	s2,12(s0)
    7648:	b741                	j	75c8 <__smakebuf_r+0x20>

0000764a <malloc>:
malloc():
    764a:	81018793          	addi	a5,gp,-2032 # 20000230 <_impure_ptr>
    764e:	85aa                	mv	a1,a0
    7650:	4388                	lw	a0,0(a5)
    7652:	7e00006f          	j	7e32 <_malloc_r>

00007656 <memchr>:
memchr():
    7656:	0ff5f593          	andi	a1,a1,255
    765a:	962a                	add	a2,a2,a0
    765c:	00c51463          	bne	a0,a2,7664 <memchr+0xe>
    7660:	4501                	li	a0,0
    7662:	8082                	ret
    7664:	00054783          	lbu	a5,0(a0)
    7668:	feb78de3          	beq	a5,a1,7662 <memchr+0xc>
    766c:	0505                	addi	a0,a0,1
    766e:	b7fd                	j	765c <memchr+0x6>

00007670 <_Balloc>:
_Balloc():
    7670:	515c                	lw	a5,36(a0)
    7672:	1141                	addi	sp,sp,-16
    7674:	c422                	sw	s0,8(sp)
    7676:	c04a                	sw	s2,0(sp)
    7678:	c606                	sw	ra,12(sp)
    767a:	c226                	sw	s1,4(sp)
    767c:	842a                	mv	s0,a0
    767e:	892e                	mv	s2,a1
    7680:	ef89                	bnez	a5,769a <_Balloc+0x2a>
    7682:	4541                	li	a0,16
    7684:	fc7ff0ef          	jal	ra,764a <malloc>
    7688:	d048                	sw	a0,36(s0)
    768a:	00052223          	sw	zero,4(a0)
    768e:	00052423          	sw	zero,8(a0)
    7692:	00052023          	sw	zero,0(a0)
    7696:	00052623          	sw	zero,12(a0)
    769a:	5044                	lw	s1,36(s0)
    769c:	44dc                	lw	a5,12(s1)
    769e:	c795                	beqz	a5,76ca <_Balloc+0x5a>
    76a0:	5058                	lw	a4,36(s0)
    76a2:	00291793          	slli	a5,s2,0x2
    76a6:	4758                	lw	a4,12(a4)
    76a8:	97ba                	add	a5,a5,a4
    76aa:	4388                	lw	a0,0(a5)
    76ac:	ed1d                	bnez	a0,76ea <_Balloc+0x7a>
    76ae:	4485                	li	s1,1
    76b0:	012494b3          	sll	s1,s1,s2
    76b4:	00548613          	addi	a2,s1,5
    76b8:	060a                	slli	a2,a2,0x2
    76ba:	4585                	li	a1,1
    76bc:	8522                	mv	a0,s0
    76be:	256d                	jal	7d68 <_calloc_r>
    76c0:	cd11                	beqz	a0,76dc <_Balloc+0x6c>
    76c2:	01252223          	sw	s2,4(a0)
    76c6:	c504                	sw	s1,8(a0)
    76c8:	a01d                	j	76ee <_Balloc+0x7e>
    76ca:	02100613          	li	a2,33
    76ce:	4591                	li	a1,4
    76d0:	8522                	mv	a0,s0
    76d2:	2d59                	jal	7d68 <_calloc_r>
    76d4:	505c                	lw	a5,36(s0)
    76d6:	c4c8                	sw	a0,12(s1)
    76d8:	47dc                	lw	a5,12(a5)
    76da:	f3f9                	bnez	a5,76a0 <_Balloc+0x30>
    76dc:	4501                	li	a0,0
    76de:	40b2                	lw	ra,12(sp)
    76e0:	4422                	lw	s0,8(sp)
    76e2:	4492                	lw	s1,4(sp)
    76e4:	4902                	lw	s2,0(sp)
    76e6:	0141                	addi	sp,sp,16
    76e8:	8082                	ret
    76ea:	4118                	lw	a4,0(a0)
    76ec:	c398                	sw	a4,0(a5)
    76ee:	00052823          	sw	zero,16(a0)
    76f2:	00052623          	sw	zero,12(a0)
    76f6:	b7e5                	j	76de <_Balloc+0x6e>

000076f8 <_Bfree>:
_Bfree():
    76f8:	515c                	lw	a5,36(a0)
    76fa:	1101                	addi	sp,sp,-32
    76fc:	cc22                	sw	s0,24(sp)
    76fe:	ce06                	sw	ra,28(sp)
    7700:	842a                	mv	s0,a0
    7702:	ef99                	bnez	a5,7720 <_Bfree+0x28>
    7704:	4541                	li	a0,16
    7706:	c62e                	sw	a1,12(sp)
    7708:	f43ff0ef          	jal	ra,764a <malloc>
    770c:	45b2                	lw	a1,12(sp)
    770e:	d048                	sw	a0,36(s0)
    7710:	00052223          	sw	zero,4(a0)
    7714:	00052423          	sw	zero,8(a0)
    7718:	00052023          	sw	zero,0(a0)
    771c:	00052623          	sw	zero,12(a0)
    7720:	c991                	beqz	a1,7734 <_Bfree+0x3c>
    7722:	5054                	lw	a3,36(s0)
    7724:	41dc                	lw	a5,4(a1)
    7726:	00279713          	slli	a4,a5,0x2
    772a:	46dc                	lw	a5,12(a3)
    772c:	97ba                	add	a5,a5,a4
    772e:	4398                	lw	a4,0(a5)
    7730:	c198                	sw	a4,0(a1)
    7732:	c38c                	sw	a1,0(a5)
    7734:	40f2                	lw	ra,28(sp)
    7736:	4462                	lw	s0,24(sp)
    7738:	6105                	addi	sp,sp,32
    773a:	8082                	ret

0000773c <__multadd>:
__multadd():
    773c:	7179                	addi	sp,sp,-48
    773e:	ce4e                	sw	s3,28(sp)
    7740:	89aa                	mv	s3,a0
    7742:	6541                	lui	a0,0x10
    7744:	d422                	sw	s0,40(sp)
    7746:	d226                	sw	s1,36(sp)
    7748:	842e                	mv	s0,a1
    774a:	4984                	lw	s1,16(a1)
    774c:	d606                	sw	ra,44(sp)
    774e:	d04a                	sw	s2,32(sp)
    7750:	05d1                	addi	a1,a1,20
    7752:	4801                	li	a6,0
    7754:	157d                	addi	a0,a0,-1
    7756:	419c                	lw	a5,0(a1)
    7758:	0591                	addi	a1,a1,4
    775a:	0805                	addi	a6,a6,1
    775c:	00a7f733          	and	a4,a5,a0
    7760:	02c70733          	mul	a4,a4,a2
    7764:	83c1                	srli	a5,a5,0x10
    7766:	02c787b3          	mul	a5,a5,a2
    776a:	9736                	add	a4,a4,a3
    776c:	01075693          	srli	a3,a4,0x10
    7770:	8f69                	and	a4,a4,a0
    7772:	97b6                	add	a5,a5,a3
    7774:	0107d693          	srli	a3,a5,0x10
    7778:	07c2                	slli	a5,a5,0x10
    777a:	97ba                	add	a5,a5,a4
    777c:	fef5ae23          	sw	a5,-4(a1)
    7780:	fc984be3          	blt	a6,s1,7756 <__multadd+0x1a>
    7784:	c2a1                	beqz	a3,77c4 <__multadd+0x88>
    7786:	441c                	lw	a5,8(s0)
    7788:	02f4c763          	blt	s1,a5,77b6 <__multadd+0x7a>
    778c:	404c                	lw	a1,4(s0)
    778e:	854e                	mv	a0,s3
    7790:	c636                	sw	a3,12(sp)
    7792:	0585                	addi	a1,a1,1
    7794:	eddff0ef          	jal	ra,7670 <_Balloc>
    7798:	4810                	lw	a2,16(s0)
    779a:	00c40593          	addi	a1,s0,12
    779e:	892a                	mv	s2,a0
    77a0:	0609                	addi	a2,a2,2
    77a2:	060a                	slli	a2,a2,0x2
    77a4:	0531                	addi	a0,a0,12
    77a6:	f89fd0ef          	jal	ra,572e <memcpy>
    77aa:	85a2                	mv	a1,s0
    77ac:	854e                	mv	a0,s3
    77ae:	f4bff0ef          	jal	ra,76f8 <_Bfree>
    77b2:	46b2                	lw	a3,12(sp)
    77b4:	844a                	mv	s0,s2
    77b6:	00448793          	addi	a5,s1,4
    77ba:	078a                	slli	a5,a5,0x2
    77bc:	97a2                	add	a5,a5,s0
    77be:	c3d4                	sw	a3,4(a5)
    77c0:	0485                	addi	s1,s1,1
    77c2:	c804                	sw	s1,16(s0)
    77c4:	8522                	mv	a0,s0
    77c6:	50b2                	lw	ra,44(sp)
    77c8:	5422                	lw	s0,40(sp)
    77ca:	5492                	lw	s1,36(sp)
    77cc:	5902                	lw	s2,32(sp)
    77ce:	49f2                	lw	s3,28(sp)
    77d0:	6145                	addi	sp,sp,48
    77d2:	8082                	ret

000077d4 <__hi0bits>:
__hi0bits():
    77d4:	7741                	lui	a4,0xffff0
    77d6:	8f69                	and	a4,a4,a0
    77d8:	87aa                	mv	a5,a0
    77da:	4501                	li	a0,0
    77dc:	e319                	bnez	a4,77e2 <__hi0bits+0xe>
    77de:	07c2                	slli	a5,a5,0x10
    77e0:	4541                	li	a0,16
    77e2:	ff000737          	lui	a4,0xff000
    77e6:	8f7d                	and	a4,a4,a5
    77e8:	e319                	bnez	a4,77ee <__hi0bits+0x1a>
    77ea:	0521                	addi	a0,a0,8
    77ec:	07a2                	slli	a5,a5,0x8
    77ee:	f0000737          	lui	a4,0xf0000
    77f2:	8f7d                	and	a4,a4,a5
    77f4:	e319                	bnez	a4,77fa <__hi0bits+0x26>
    77f6:	0511                	addi	a0,a0,4
    77f8:	0792                	slli	a5,a5,0x4
    77fa:	c0000737          	lui	a4,0xc0000
    77fe:	8f7d                	and	a4,a4,a5
    7800:	e319                	bnez	a4,7806 <__hi0bits+0x32>
    7802:	0509                	addi	a0,a0,2
    7804:	078a                	slli	a5,a5,0x2
    7806:	0007c963          	bltz	a5,7818 <__hi0bits+0x44>
    780a:	00179713          	slli	a4,a5,0x1
    780e:	0505                	addi	a0,a0,1
    7810:	00074463          	bltz	a4,7818 <__hi0bits+0x44>
    7814:	02000513          	li	a0,32
    7818:	8082                	ret

0000781a <__lo0bits>:
__lo0bits():
    781a:	411c                	lw	a5,0(a0)
    781c:	0077f713          	andi	a4,a5,7
    7820:	c30d                	beqz	a4,7842 <__lo0bits+0x28>
    7822:	0017f693          	andi	a3,a5,1
    7826:	4701                	li	a4,0
    7828:	e699                	bnez	a3,7836 <__lo0bits+0x1c>
    782a:	0027f713          	andi	a4,a5,2
    782e:	c711                	beqz	a4,783a <__lo0bits+0x20>
    7830:	8385                	srli	a5,a5,0x1
    7832:	c11c                	sw	a5,0(a0)
    7834:	4705                	li	a4,1
    7836:	853a                	mv	a0,a4
    7838:	8082                	ret
    783a:	8389                	srli	a5,a5,0x2
    783c:	c11c                	sw	a5,0(a0)
    783e:	4709                	li	a4,2
    7840:	bfdd                	j	7836 <__lo0bits+0x1c>
    7842:	01079693          	slli	a3,a5,0x10
    7846:	82c1                	srli	a3,a3,0x10
    7848:	4701                	li	a4,0
    784a:	e299                	bnez	a3,7850 <__lo0bits+0x36>
    784c:	83c1                	srli	a5,a5,0x10
    784e:	4741                	li	a4,16
    7850:	0ff7f693          	andi	a3,a5,255
    7854:	e299                	bnez	a3,785a <__lo0bits+0x40>
    7856:	0721                	addi	a4,a4,8
    7858:	83a1                	srli	a5,a5,0x8
    785a:	00f7f693          	andi	a3,a5,15
    785e:	e299                	bnez	a3,7864 <__lo0bits+0x4a>
    7860:	0711                	addi	a4,a4,4
    7862:	8391                	srli	a5,a5,0x4
    7864:	0037f693          	andi	a3,a5,3
    7868:	e299                	bnez	a3,786e <__lo0bits+0x54>
    786a:	0709                	addi	a4,a4,2
    786c:	8389                	srli	a5,a5,0x2
    786e:	0017f693          	andi	a3,a5,1
    7872:	e681                	bnez	a3,787a <__lo0bits+0x60>
    7874:	8385                	srli	a5,a5,0x1
    7876:	0705                	addi	a4,a4,1
    7878:	c399                	beqz	a5,787e <__lo0bits+0x64>
    787a:	c11c                	sw	a5,0(a0)
    787c:	bf6d                	j	7836 <__lo0bits+0x1c>
    787e:	02000713          	li	a4,32
    7882:	bf55                	j	7836 <__lo0bits+0x1c>

00007884 <__i2b>:
__i2b():
    7884:	1141                	addi	sp,sp,-16
    7886:	c422                	sw	s0,8(sp)
    7888:	842e                	mv	s0,a1
    788a:	4585                	li	a1,1
    788c:	c606                	sw	ra,12(sp)
    788e:	de3ff0ef          	jal	ra,7670 <_Balloc>
    7892:	c940                	sw	s0,20(a0)
    7894:	40b2                	lw	ra,12(sp)
    7896:	4422                	lw	s0,8(sp)
    7898:	4705                	li	a4,1
    789a:	c918                	sw	a4,16(a0)
    789c:	0141                	addi	sp,sp,16
    789e:	8082                	ret

000078a0 <__multiply>:
__multiply():
    78a0:	4998                	lw	a4,16(a1)
    78a2:	4a1c                	lw	a5,16(a2)
    78a4:	7179                	addi	sp,sp,-48
    78a6:	d226                	sw	s1,36(sp)
    78a8:	d606                	sw	ra,44(sp)
    78aa:	d422                	sw	s0,40(sp)
    78ac:	d04a                	sw	s2,32(sp)
    78ae:	ce4e                	sw	s3,28(sp)
    78b0:	84ae                	mv	s1,a1
    78b2:	00f75463          	bge	a4,a5,78ba <__multiply+0x1a>
    78b6:	84b2                	mv	s1,a2
    78b8:	862e                	mv	a2,a1
    78ba:	0104a983          	lw	s3,16(s1)
    78be:	01062903          	lw	s2,16(a2) # 10010 <_data_lma+0x714c>
    78c2:	449c                	lw	a5,8(s1)
    78c4:	40cc                	lw	a1,4(s1)
    78c6:	01298433          	add	s0,s3,s2
    78ca:	0087d363          	bge	a5,s0,78d0 <__multiply+0x30>
    78ce:	0585                	addi	a1,a1,1
    78d0:	c632                	sw	a2,12(sp)
    78d2:	d9fff0ef          	jal	ra,7670 <_Balloc>
    78d6:	4632                	lw	a2,12(sp)
    78d8:	01450813          	addi	a6,a0,20 # 10014 <_data_lma+0x7150>
    78dc:	00241313          	slli	t1,s0,0x2
    78e0:	9342                	add	t1,t1,a6
    78e2:	87c2                	mv	a5,a6
    78e4:	0267ed63          	bltu	a5,t1,791e <__multiply+0x7e>
    78e8:	01448593          	addi	a1,s1,20
    78ec:	00299893          	slli	a7,s3,0x2
    78f0:	0651                	addi	a2,a2,20
    78f2:	00291e13          	slli	t3,s2,0x2
    78f6:	66c1                	lui	a3,0x10
    78f8:	98ae                	add	a7,a7,a1
    78fa:	9e32                	add	t3,t3,a2
    78fc:	16fd                	addi	a3,a3,-1
    78fe:	03c66463          	bltu	a2,t3,7926 <__multiply+0x86>
    7902:	00805663          	blez	s0,790e <__multiply+0x6e>
    7906:	1371                	addi	t1,t1,-4
    7908:	00032783          	lw	a5,0(t1)
    790c:	cbf1                	beqz	a5,79e0 <__multiply+0x140>
    790e:	c900                	sw	s0,16(a0)
    7910:	50b2                	lw	ra,44(sp)
    7912:	5422                	lw	s0,40(sp)
    7914:	5492                	lw	s1,36(sp)
    7916:	5902                	lw	s2,32(sp)
    7918:	49f2                	lw	s3,28(sp)
    791a:	6145                	addi	sp,sp,48
    791c:	8082                	ret
    791e:	0007a023          	sw	zero,0(a5)
    7922:	0791                	addi	a5,a5,4
    7924:	b7c1                	j	78e4 <__multiply+0x44>
    7926:	00062f83          	lw	t6,0(a2)
    792a:	00dfffb3          	and	t6,t6,a3
    792e:	040f8a63          	beqz	t6,7982 <__multiply+0xe2>
    7932:	8f42                	mv	t5,a6
    7934:	82ae                	mv	t0,a1
    7936:	4481                	li	s1,0
    7938:	0002a703          	lw	a4,0(t0)
    793c:	000f2383          	lw	t2,0(t5)
    7940:	0f11                	addi	t5,t5,4
    7942:	00d77eb3          	and	t4,a4,a3
    7946:	03fe8eb3          	mul	t4,t4,t6
    794a:	00d3f7b3          	and	a5,t2,a3
    794e:	0103d393          	srli	t2,t2,0x10
    7952:	0291                	addi	t0,t0,4
    7954:	9ebe                	add	t4,t4,a5
    7956:	01075793          	srli	a5,a4,0x10
    795a:	03f787b3          	mul	a5,a5,t6
    795e:	9ea6                	add	t4,t4,s1
    7960:	010ed713          	srli	a4,t4,0x10
    7964:	00defeb3          	and	t4,t4,a3
    7968:	979e                	add	a5,a5,t2
    796a:	97ba                	add	a5,a5,a4
    796c:	0107d493          	srli	s1,a5,0x10
    7970:	07c2                	slli	a5,a5,0x10
    7972:	01d7e7b3          	or	a5,a5,t4
    7976:	feff2e23          	sw	a5,-4(t5)
    797a:	fb12efe3          	bltu	t0,a7,7938 <__multiply+0x98>
    797e:	009f2023          	sw	s1,0(t5)
    7982:	00265283          	lhu	t0,2(a2)
    7986:	04028a63          	beqz	t0,79da <__multiply+0x13a>
    798a:	00082783          	lw	a5,0(a6)
    798e:	8ec2                	mv	t4,a6
    7990:	8f2e                	mv	t5,a1
    7992:	4f81                	li	t6,0
    7994:	000f2703          	lw	a4,0(t5)
    7998:	002ed383          	lhu	t2,2(t4)
    799c:	8ff5                	and	a5,a5,a3
    799e:	8f75                	and	a4,a4,a3
    79a0:	02570733          	mul	a4,a4,t0
    79a4:	0e91                	addi	t4,t4,4
    79a6:	0f11                	addi	t5,t5,4
    79a8:	971e                	add	a4,a4,t2
    79aa:	977e                	add	a4,a4,t6
    79ac:	01071f93          	slli	t6,a4,0x10
    79b0:	00ffe7b3          	or	a5,t6,a5
    79b4:	fefeae23          	sw	a5,-4(t4)
    79b8:	ffef5783          	lhu	a5,-2(t5)
    79bc:	000eaf83          	lw	t6,0(t4)
    79c0:	8341                	srli	a4,a4,0x10
    79c2:	025787b3          	mul	a5,a5,t0
    79c6:	00dfffb3          	and	t6,t6,a3
    79ca:	97fe                	add	a5,a5,t6
    79cc:	97ba                	add	a5,a5,a4
    79ce:	0107df93          	srli	t6,a5,0x10
    79d2:	fd1f61e3          	bltu	t5,a7,7994 <__multiply+0xf4>
    79d6:	00fea023          	sw	a5,0(t4)
    79da:	0611                	addi	a2,a2,4
    79dc:	0811                	addi	a6,a6,4
    79de:	b705                	j	78fe <__multiply+0x5e>
    79e0:	147d                	addi	s0,s0,-1
    79e2:	b705                	j	7902 <__multiply+0x62>

000079e4 <__pow5mult>:
__pow5mult():
    79e4:	1101                	addi	sp,sp,-32
    79e6:	ca26                	sw	s1,20(sp)
    79e8:	c84a                	sw	s2,16(sp)
    79ea:	c64e                	sw	s3,12(sp)
    79ec:	ce06                	sw	ra,28(sp)
    79ee:	cc22                	sw	s0,24(sp)
    79f0:	c452                	sw	s4,8(sp)
    79f2:	00367793          	andi	a5,a2,3
    79f6:	892a                	mv	s2,a0
    79f8:	84b2                	mv	s1,a2
    79fa:	89ae                	mv	s3,a1
    79fc:	cf89                	beqz	a5,7a16 <__pow5mult+0x32>
    79fe:	17fd                	addi	a5,a5,-1
    7a00:	00001717          	auipc	a4,0x1
    7a04:	39070713          	addi	a4,a4,912 # 8d90 <p05.3319>
    7a08:	078a                	slli	a5,a5,0x2
    7a0a:	97ba                	add	a5,a5,a4
    7a0c:	4390                	lw	a2,0(a5)
    7a0e:	4681                	li	a3,0
    7a10:	d2dff0ef          	jal	ra,773c <__multadd>
    7a14:	89aa                	mv	s3,a0
    7a16:	8489                	srai	s1,s1,0x2
    7a18:	cca5                	beqz	s1,7a90 <__pow5mult+0xac>
    7a1a:	02492783          	lw	a5,36(s2)
    7a1e:	ef91                	bnez	a5,7a3a <__pow5mult+0x56>
    7a20:	4541                	li	a0,16
    7a22:	c29ff0ef          	jal	ra,764a <malloc>
    7a26:	02a92223          	sw	a0,36(s2)
    7a2a:	00052223          	sw	zero,4(a0)
    7a2e:	00052423          	sw	zero,8(a0)
    7a32:	00052023          	sw	zero,0(a0)
    7a36:	00052623          	sw	zero,12(a0)
    7a3a:	02492a03          	lw	s4,36(s2)
    7a3e:	008a2403          	lw	s0,8(s4)
    7a42:	e819                	bnez	s0,7a58 <__pow5mult+0x74>
    7a44:	27100593          	li	a1,625
    7a48:	854a                	mv	a0,s2
    7a4a:	e3bff0ef          	jal	ra,7884 <__i2b>
    7a4e:	00aa2423          	sw	a0,8(s4)
    7a52:	842a                	mv	s0,a0
    7a54:	00052023          	sw	zero,0(a0)
    7a58:	0014f793          	andi	a5,s1,1
    7a5c:	cf81                	beqz	a5,7a74 <__pow5mult+0x90>
    7a5e:	85ce                	mv	a1,s3
    7a60:	8622                	mv	a2,s0
    7a62:	854a                	mv	a0,s2
    7a64:	e3dff0ef          	jal	ra,78a0 <__multiply>
    7a68:	8a2a                	mv	s4,a0
    7a6a:	85ce                	mv	a1,s3
    7a6c:	854a                	mv	a0,s2
    7a6e:	c8bff0ef          	jal	ra,76f8 <_Bfree>
    7a72:	89d2                	mv	s3,s4
    7a74:	8485                	srai	s1,s1,0x1
    7a76:	cc89                	beqz	s1,7a90 <__pow5mult+0xac>
    7a78:	4008                	lw	a0,0(s0)
    7a7a:	e909                	bnez	a0,7a8c <__pow5mult+0xa8>
    7a7c:	8622                	mv	a2,s0
    7a7e:	85a2                	mv	a1,s0
    7a80:	854a                	mv	a0,s2
    7a82:	e1fff0ef          	jal	ra,78a0 <__multiply>
    7a86:	c008                	sw	a0,0(s0)
    7a88:	00052023          	sw	zero,0(a0)
    7a8c:	842a                	mv	s0,a0
    7a8e:	b7e9                	j	7a58 <__pow5mult+0x74>
    7a90:	40f2                	lw	ra,28(sp)
    7a92:	4462                	lw	s0,24(sp)
    7a94:	854e                	mv	a0,s3
    7a96:	44d2                	lw	s1,20(sp)
    7a98:	4942                	lw	s2,16(sp)
    7a9a:	49b2                	lw	s3,12(sp)
    7a9c:	4a22                	lw	s4,8(sp)
    7a9e:	6105                	addi	sp,sp,32
    7aa0:	8082                	ret

00007aa2 <__lshift>:
__lshift():
    7aa2:	7179                	addi	sp,sp,-48
    7aa4:	d226                	sw	s1,36(sp)
    7aa6:	84ae                	mv	s1,a1
    7aa8:	ce4e                	sw	s3,28(sp)
    7aaa:	0104a983          	lw	s3,16(s1)
    7aae:	d422                	sw	s0,40(sp)
    7ab0:	41cc                	lw	a1,4(a1)
    7ab2:	40565413          	srai	s0,a2,0x5
    7ab6:	449c                	lw	a5,8(s1)
    7ab8:	99a2                	add	s3,s3,s0
    7aba:	d04a                	sw	s2,32(sp)
    7abc:	ca56                	sw	s5,20(sp)
    7abe:	d606                	sw	ra,44(sp)
    7ac0:	cc52                	sw	s4,24(sp)
    7ac2:	8aaa                	mv	s5,a0
    7ac4:	00198913          	addi	s2,s3,1
    7ac8:	0927c463          	blt	a5,s2,7b50 <__lshift+0xae>
    7acc:	8556                	mv	a0,s5
    7ace:	c632                	sw	a2,12(sp)
    7ad0:	ba1ff0ef          	jal	ra,7670 <_Balloc>
    7ad4:	4632                	lw	a2,12(sp)
    7ad6:	01450793          	addi	a5,a0,20
    7ada:	8a2a                	mv	s4,a0
    7adc:	86be                	mv	a3,a5
    7ade:	4701                	li	a4,0
    7ae0:	0691                	addi	a3,a3,4
    7ae2:	06874a63          	blt	a4,s0,7b56 <__lshift+0xb4>
    7ae6:	00045363          	bgez	s0,7aec <__lshift+0x4a>
    7aea:	4401                	li	s0,0
    7aec:	4894                	lw	a3,16(s1)
    7aee:	040a                	slli	s0,s0,0x2
    7af0:	00878733          	add	a4,a5,s0
    7af4:	068a                	slli	a3,a3,0x2
    7af6:	01448793          	addi	a5,s1,20
    7afa:	8a7d                	andi	a2,a2,31
    7afc:	96be                	add	a3,a3,a5
    7afe:	c225                	beqz	a2,7b5e <__lshift+0xbc>
    7b00:	02000813          	li	a6,32
    7b04:	40c80833          	sub	a6,a6,a2
    7b08:	4581                	li	a1,0
    7b0a:	4388                	lw	a0,0(a5)
    7b0c:	0711                	addi	a4,a4,4
    7b0e:	0791                	addi	a5,a5,4
    7b10:	00c51533          	sll	a0,a0,a2
    7b14:	8dc9                	or	a1,a1,a0
    7b16:	feb72e23          	sw	a1,-4(a4)
    7b1a:	ffc7a583          	lw	a1,-4(a5)
    7b1e:	0105d5b3          	srl	a1,a1,a6
    7b22:	fed7e4e3          	bltu	a5,a3,7b0a <__lshift+0x68>
    7b26:	c30c                	sw	a1,0(a4)
    7b28:	c199                	beqz	a1,7b2e <__lshift+0x8c>
    7b2a:	00298913          	addi	s2,s3,2
    7b2e:	197d                	addi	s2,s2,-1
    7b30:	012a2823          	sw	s2,16(s4)
    7b34:	8556                	mv	a0,s5
    7b36:	85a6                	mv	a1,s1
    7b38:	bc1ff0ef          	jal	ra,76f8 <_Bfree>
    7b3c:	50b2                	lw	ra,44(sp)
    7b3e:	5422                	lw	s0,40(sp)
    7b40:	8552                	mv	a0,s4
    7b42:	5492                	lw	s1,36(sp)
    7b44:	5902                	lw	s2,32(sp)
    7b46:	49f2                	lw	s3,28(sp)
    7b48:	4a62                	lw	s4,24(sp)
    7b4a:	4ad2                	lw	s5,20(sp)
    7b4c:	6145                	addi	sp,sp,48
    7b4e:	8082                	ret
    7b50:	0585                	addi	a1,a1,1
    7b52:	0786                	slli	a5,a5,0x1
    7b54:	bf95                	j	7ac8 <__lshift+0x26>
    7b56:	fe06ae23          	sw	zero,-4(a3) # fffc <_data_lma+0x7138>
    7b5a:	0705                	addi	a4,a4,1
    7b5c:	b751                	j	7ae0 <__lshift+0x3e>
    7b5e:	0791                	addi	a5,a5,4
    7b60:	ffc7a603          	lw	a2,-4(a5)
    7b64:	0711                	addi	a4,a4,4
    7b66:	fec72e23          	sw	a2,-4(a4)
    7b6a:	fed7eae3          	bltu	a5,a3,7b5e <__lshift+0xbc>
    7b6e:	b7c1                	j	7b2e <__lshift+0x8c>

00007b70 <__mcmp>:
__mcmp():
    7b70:	491c                	lw	a5,16(a0)
    7b72:	4998                	lw	a4,16(a1)
    7b74:	8f99                	sub	a5,a5,a4
    7b76:	e38d                	bnez	a5,7b98 <__mcmp+0x28>
    7b78:	070a                	slli	a4,a4,0x2
    7b7a:	0551                	addi	a0,a0,20
    7b7c:	05d1                	addi	a1,a1,20
    7b7e:	00e506b3          	add	a3,a0,a4
    7b82:	95ba                	add	a1,a1,a4
    7b84:	16f1                	addi	a3,a3,-4
    7b86:	15f1                	addi	a1,a1,-4
    7b88:	4290                	lw	a2,0(a3)
    7b8a:	4198                	lw	a4,0(a1)
    7b8c:	00e60863          	beq	a2,a4,7b9c <__mcmp+0x2c>
    7b90:	57fd                	li	a5,-1
    7b92:	00e66363          	bltu	a2,a4,7b98 <__mcmp+0x28>
    7b96:	4785                	li	a5,1
    7b98:	853e                	mv	a0,a5
    7b9a:	8082                	ret
    7b9c:	fed564e3          	bltu	a0,a3,7b84 <__mcmp+0x14>
    7ba0:	bfe5                	j	7b98 <__mcmp+0x28>

00007ba2 <__mdiff>:
__mdiff():
    7ba2:	1101                	addi	sp,sp,-32
    7ba4:	ca26                	sw	s1,20(sp)
    7ba6:	84ae                	mv	s1,a1
    7ba8:	c64e                	sw	s3,12(sp)
    7baa:	85b2                	mv	a1,a2
    7bac:	89aa                	mv	s3,a0
    7bae:	8526                	mv	a0,s1
    7bb0:	cc22                	sw	s0,24(sp)
    7bb2:	ce06                	sw	ra,28(sp)
    7bb4:	c84a                	sw	s2,16(sp)
    7bb6:	8432                	mv	s0,a2
    7bb8:	fb9ff0ef          	jal	ra,7b70 <__mcmp>
    7bbc:	e105                	bnez	a0,7bdc <__mdiff+0x3a>
    7bbe:	4581                	li	a1,0
    7bc0:	854e                	mv	a0,s3
    7bc2:	aafff0ef          	jal	ra,7670 <_Balloc>
    7bc6:	4785                	li	a5,1
    7bc8:	c91c                	sw	a5,16(a0)
    7bca:	00052a23          	sw	zero,20(a0)
    7bce:	40f2                	lw	ra,28(sp)
    7bd0:	4462                	lw	s0,24(sp)
    7bd2:	44d2                	lw	s1,20(sp)
    7bd4:	4942                	lw	s2,16(sp)
    7bd6:	49b2                	lw	s3,12(sp)
    7bd8:	6105                	addi	sp,sp,32
    7bda:	8082                	ret
    7bdc:	4905                	li	s2,1
    7bde:	00054663          	bltz	a0,7bea <__mdiff+0x48>
    7be2:	87a2                	mv	a5,s0
    7be4:	4901                	li	s2,0
    7be6:	8426                	mv	s0,s1
    7be8:	84be                	mv	s1,a5
    7bea:	404c                	lw	a1,4(s0)
    7bec:	854e                	mv	a0,s3
    7bee:	a83ff0ef          	jal	ra,7670 <_Balloc>
    7bf2:	01042303          	lw	t1,16(s0)
    7bf6:	0104a883          	lw	a7,16(s1)
    7bfa:	01440613          	addi	a2,s0,20
    7bfe:	00231e13          	slli	t3,t1,0x2
    7c02:	01448813          	addi	a6,s1,20
    7c06:	088a                	slli	a7,a7,0x2
    7c08:	6ec1                	lui	t4,0x10
    7c0a:	01252623          	sw	s2,12(a0)
    7c0e:	9e32                	add	t3,t3,a2
    7c10:	98c2                	add	a7,a7,a6
    7c12:	01450693          	addi	a3,a0,20
    7c16:	4f01                	li	t5,0
    7c18:	1efd                	addi	t4,t4,-1
    7c1a:	4218                	lw	a4,0(a2)
    7c1c:	00082f83          	lw	t6,0(a6)
    7c20:	0691                	addi	a3,a3,4
    7c22:	01d775b3          	and	a1,a4,t4
    7c26:	01dff7b3          	and	a5,t6,t4
    7c2a:	95fa                	add	a1,a1,t5
    7c2c:	8d9d                	sub	a1,a1,a5
    7c2e:	010fdf93          	srli	t6,t6,0x10
    7c32:	01075793          	srli	a5,a4,0x10
    7c36:	41f787b3          	sub	a5,a5,t6
    7c3a:	4105d713          	srai	a4,a1,0x10
    7c3e:	97ba                	add	a5,a5,a4
    7c40:	4107df13          	srai	t5,a5,0x10
    7c44:	01d5f5b3          	and	a1,a1,t4
    7c48:	07c2                	slli	a5,a5,0x10
    7c4a:	8fcd                	or	a5,a5,a1
    7c4c:	0811                	addi	a6,a6,4
    7c4e:	fef6ae23          	sw	a5,-4(a3)
    7c52:	0611                	addi	a2,a2,4
    7c54:	fd1863e3          	bltu	a6,a7,7c1a <__mdiff+0x78>
    7c58:	65c1                	lui	a1,0x10
    7c5a:	15fd                	addi	a1,a1,-1
    7c5c:	01c66863          	bltu	a2,t3,7c6c <__mdiff+0xca>
    7c60:	16f1                	addi	a3,a3,-4
    7c62:	429c                	lw	a5,0(a3)
    7c64:	c795                	beqz	a5,7c90 <__mdiff+0xee>
    7c66:	00652823          	sw	t1,16(a0)
    7c6a:	b795                	j	7bce <__mdiff+0x2c>
    7c6c:	421c                	lw	a5,0(a2)
    7c6e:	0691                	addi	a3,a3,4
    7c70:	0611                	addi	a2,a2,4
    7c72:	00b7f733          	and	a4,a5,a1
    7c76:	977a                	add	a4,a4,t5
    7c78:	41075813          	srai	a6,a4,0x10
    7c7c:	83c1                	srli	a5,a5,0x10
    7c7e:	97c2                	add	a5,a5,a6
    7c80:	4107df13          	srai	t5,a5,0x10
    7c84:	8f6d                	and	a4,a4,a1
    7c86:	07c2                	slli	a5,a5,0x10
    7c88:	8fd9                	or	a5,a5,a4
    7c8a:	fef6ae23          	sw	a5,-4(a3)
    7c8e:	b7f9                	j	7c5c <__mdiff+0xba>
    7c90:	137d                	addi	t1,t1,-1
    7c92:	b7f9                	j	7c60 <__mdiff+0xbe>

00007c94 <__d2b>:
__d2b():
    7c94:	7179                	addi	sp,sp,-48
    7c96:	d422                	sw	s0,40(sp)
    7c98:	842e                	mv	s0,a1
    7c9a:	4585                	li	a1,1
    7c9c:	d226                	sw	s1,36(sp)
    7c9e:	d04a                	sw	s2,32(sp)
    7ca0:	84b2                	mv	s1,a2
    7ca2:	ce4e                	sw	s3,28(sp)
    7ca4:	cc52                	sw	s4,24(sp)
    7ca6:	893a                	mv	s2,a4
    7ca8:	d606                	sw	ra,44(sp)
    7caa:	8a36                	mv	s4,a3
    7cac:	9c5ff0ef          	jal	ra,7670 <_Balloc>
    7cb0:	00100737          	lui	a4,0x100
    7cb4:	fff70793          	addi	a5,a4,-1 # fffff <_data_lma+0xf713b>
    7cb8:	8fe5                	and	a5,a5,s1
    7cba:	80d1                	srli	s1,s1,0x14
    7cbc:	7ff4f493          	andi	s1,s1,2047
    7cc0:	89aa                	mv	s3,a0
    7cc2:	e0b5                	bnez	s1,7d26 <__d2b+0x92>
    7cc4:	c63e                	sw	a5,12(sp)
    7cc6:	c42d                	beqz	s0,7d30 <__d2b+0x9c>
    7cc8:	0028                	addi	a0,sp,8
    7cca:	c422                	sw	s0,8(sp)
    7ccc:	b4fff0ef          	jal	ra,781a <__lo0bits>
    7cd0:	46a2                	lw	a3,8(sp)
    7cd2:	cd21                	beqz	a0,7d2a <__d2b+0x96>
    7cd4:	4732                	lw	a4,12(sp)
    7cd6:	02000793          	li	a5,32
    7cda:	8f89                	sub	a5,a5,a0
    7cdc:	00f717b3          	sll	a5,a4,a5
    7ce0:	8fd5                	or	a5,a5,a3
    7ce2:	00a75733          	srl	a4,a4,a0
    7ce6:	00f9aa23          	sw	a5,20(s3)
    7cea:	c63a                	sw	a4,12(sp)
    7cec:	4432                	lw	s0,12(sp)
    7cee:	0089ac23          	sw	s0,24(s3)
    7cf2:	00803433          	snez	s0,s0
    7cf6:	0405                	addi	s0,s0,1
    7cf8:	0089a823          	sw	s0,16(s3)
    7cfc:	c4b9                	beqz	s1,7d4a <__d2b+0xb6>
    7cfe:	bcd48493          	addi	s1,s1,-1075
    7d02:	94aa                	add	s1,s1,a0
    7d04:	03500793          	li	a5,53
    7d08:	009a2023          	sw	s1,0(s4)
    7d0c:	40a78533          	sub	a0,a5,a0
    7d10:	00a92023          	sw	a0,0(s2)
    7d14:	50b2                	lw	ra,44(sp)
    7d16:	5422                	lw	s0,40(sp)
    7d18:	854e                	mv	a0,s3
    7d1a:	5492                	lw	s1,36(sp)
    7d1c:	5902                	lw	s2,32(sp)
    7d1e:	49f2                	lw	s3,28(sp)
    7d20:	4a62                	lw	s4,24(sp)
    7d22:	6145                	addi	sp,sp,48
    7d24:	8082                	ret
    7d26:	8fd9                	or	a5,a5,a4
    7d28:	bf71                	j	7cc4 <__d2b+0x30>
    7d2a:	00d9aa23          	sw	a3,20(s3)
    7d2e:	bf7d                	j	7cec <__d2b+0x58>
    7d30:	0068                	addi	a0,sp,12
    7d32:	ae9ff0ef          	jal	ra,781a <__lo0bits>
    7d36:	47b2                	lw	a5,12(sp)
    7d38:	02050513          	addi	a0,a0,32
    7d3c:	4405                	li	s0,1
    7d3e:	00f9aa23          	sw	a5,20(s3)
    7d42:	4785                	li	a5,1
    7d44:	00f9a823          	sw	a5,16(s3)
    7d48:	bf55                	j	7cfc <__d2b+0x68>
    7d4a:	00241793          	slli	a5,s0,0x2
    7d4e:	bce50513          	addi	a0,a0,-1074
    7d52:	97ce                	add	a5,a5,s3
    7d54:	00aa2023          	sw	a0,0(s4)
    7d58:	4b88                	lw	a0,16(a5)
    7d5a:	0416                	slli	s0,s0,0x5
    7d5c:	a79ff0ef          	jal	ra,77d4 <__hi0bits>
    7d60:	8c09                	sub	s0,s0,a0
    7d62:	00892023          	sw	s0,0(s2)
    7d66:	b77d                	j	7d14 <__d2b+0x80>

00007d68 <_calloc_r>:
_calloc_r():
    7d68:	02c58633          	mul	a2,a1,a2
    7d6c:	1101                	addi	sp,sp,-32
    7d6e:	cc22                	sw	s0,24(sp)
    7d70:	ce06                	sw	ra,28(sp)
    7d72:	85b2                	mv	a1,a2
    7d74:	c632                	sw	a2,12(sp)
    7d76:	2875                	jal	7e32 <_malloc_r>
    7d78:	842a                	mv	s0,a0
    7d7a:	c509                	beqz	a0,7d84 <_calloc_r+0x1c>
    7d7c:	4632                	lw	a2,12(sp)
    7d7e:	4581                	li	a1,0
    7d80:	c94f80ef          	jal	ra,214 <memset>
    7d84:	8522                	mv	a0,s0
    7d86:	40f2                	lw	ra,28(sp)
    7d88:	4462                	lw	s0,24(sp)
    7d8a:	6105                	addi	sp,sp,32
    7d8c:	8082                	ret

00007d8e <_free_r>:
_free_r():
    7d8e:	c1cd                	beqz	a1,7e30 <_free_r+0xa2>
    7d90:	ffc5a783          	lw	a5,-4(a1) # fffc <_data_lma+0x7138>
    7d94:	1141                	addi	sp,sp,-16
    7d96:	c422                	sw	s0,8(sp)
    7d98:	c606                	sw	ra,12(sp)
    7d9a:	c226                	sw	s1,4(sp)
    7d9c:	ffc58413          	addi	s0,a1,-4
    7da0:	0007d363          	bgez	a5,7da6 <_free_r+0x18>
    7da4:	943e                	add	s0,s0,a5
    7da6:	84aa                	mv	s1,a0
    7da8:	2d99                	jal	83fe <__malloc_lock>
    7daa:	87c18793          	addi	a5,gp,-1924 # 2000029c <__malloc_free_list>
    7dae:	439c                	lw	a5,0(a5)
    7db0:	eb99                	bnez	a5,7dc6 <_free_r+0x38>
    7db2:	00042223          	sw	zero,4(s0)
    7db6:	8681ae23          	sw	s0,-1924(gp) # 2000029c <__malloc_free_list>
    7dba:	4422                	lw	s0,8(sp)
    7dbc:	40b2                	lw	ra,12(sp)
    7dbe:	8526                	mv	a0,s1
    7dc0:	4492                	lw	s1,4(sp)
    7dc2:	0141                	addi	sp,sp,16
    7dc4:	ad35                	j	8400 <__malloc_unlock>
    7dc6:	00f47e63          	bgeu	s0,a5,7de2 <_free_r+0x54>
    7dca:	4014                	lw	a3,0(s0)
    7dcc:	00d40733          	add	a4,s0,a3
    7dd0:	00e79663          	bne	a5,a4,7ddc <_free_r+0x4e>
    7dd4:	4398                	lw	a4,0(a5)
    7dd6:	43dc                	lw	a5,4(a5)
    7dd8:	9736                	add	a4,a4,a3
    7dda:	c018                	sw	a4,0(s0)
    7ddc:	c05c                	sw	a5,4(s0)
    7dde:	bfe1                	j	7db6 <_free_r+0x28>
    7de0:	87ba                	mv	a5,a4
    7de2:	43d8                	lw	a4,4(a5)
    7de4:	c319                	beqz	a4,7dea <_free_r+0x5c>
    7de6:	fee47de3          	bgeu	s0,a4,7de0 <_free_r+0x52>
    7dea:	4394                	lw	a3,0(a5)
    7dec:	00d78633          	add	a2,a5,a3
    7df0:	00861f63          	bne	a2,s0,7e0e <_free_r+0x80>
    7df4:	4010                	lw	a2,0(s0)
    7df6:	96b2                	add	a3,a3,a2
    7df8:	c394                	sw	a3,0(a5)
    7dfa:	00d78633          	add	a2,a5,a3
    7dfe:	fac71ee3          	bne	a4,a2,7dba <_free_r+0x2c>
    7e02:	4310                	lw	a2,0(a4)
    7e04:	4358                	lw	a4,4(a4)
    7e06:	96b2                	add	a3,a3,a2
    7e08:	c394                	sw	a3,0(a5)
    7e0a:	c3d8                	sw	a4,4(a5)
    7e0c:	b77d                	j	7dba <_free_r+0x2c>
    7e0e:	00c47563          	bgeu	s0,a2,7e18 <_free_r+0x8a>
    7e12:	47b1                	li	a5,12
    7e14:	c09c                	sw	a5,0(s1)
    7e16:	b755                	j	7dba <_free_r+0x2c>
    7e18:	4010                	lw	a2,0(s0)
    7e1a:	00c406b3          	add	a3,s0,a2
    7e1e:	00d71663          	bne	a4,a3,7e2a <_free_r+0x9c>
    7e22:	4314                	lw	a3,0(a4)
    7e24:	4358                	lw	a4,4(a4)
    7e26:	96b2                	add	a3,a3,a2
    7e28:	c014                	sw	a3,0(s0)
    7e2a:	c058                	sw	a4,4(s0)
    7e2c:	c3c0                	sw	s0,4(a5)
    7e2e:	b771                	j	7dba <_free_r+0x2c>
    7e30:	8082                	ret

00007e32 <_malloc_r>:
_malloc_r():
    7e32:	1101                	addi	sp,sp,-32
    7e34:	ca26                	sw	s1,20(sp)
    7e36:	00358493          	addi	s1,a1,3
    7e3a:	98f1                	andi	s1,s1,-4
    7e3c:	ce06                	sw	ra,28(sp)
    7e3e:	cc22                	sw	s0,24(sp)
    7e40:	c84a                	sw	s2,16(sp)
    7e42:	c64e                	sw	s3,12(sp)
    7e44:	04a1                	addi	s1,s1,8
    7e46:	47b1                	li	a5,12
    7e48:	04f4f163          	bgeu	s1,a5,7e8a <_malloc_r+0x58>
    7e4c:	44b1                	li	s1,12
    7e4e:	04b4e063          	bltu	s1,a1,7e8e <_malloc_r+0x5c>
    7e52:	892a                	mv	s2,a0
    7e54:	236d                	jal	83fe <__malloc_lock>
    7e56:	87c18793          	addi	a5,gp,-1924 # 2000029c <__malloc_free_list>
    7e5a:	4398                	lw	a4,0(a5)
    7e5c:	843a                	mv	s0,a4
    7e5e:	e031                	bnez	s0,7ea2 <_malloc_r+0x70>
    7e60:	88018793          	addi	a5,gp,-1920 # 200002a0 <__malloc_sbrk_start>
    7e64:	439c                	lw	a5,0(a5)
    7e66:	e791                	bnez	a5,7e72 <_malloc_r+0x40>
    7e68:	4581                	li	a1,0
    7e6a:	854a                	mv	a0,s2
    7e6c:	264d                	jal	820e <_sbrk_r>
    7e6e:	88a1a023          	sw	a0,-1920(gp) # 200002a0 <__malloc_sbrk_start>
    7e72:	85a6                	mv	a1,s1
    7e74:	854a                	mv	a0,s2
    7e76:	2e61                	jal	820e <_sbrk_r>
    7e78:	59fd                	li	s3,-1
    7e7a:	07351763          	bne	a0,s3,7ee8 <_malloc_r+0xb6>
    7e7e:	47b1                	li	a5,12
    7e80:	00f92023          	sw	a5,0(s2)
    7e84:	854a                	mv	a0,s2
    7e86:	2bad                	jal	8400 <__malloc_unlock>
    7e88:	a029                	j	7e92 <_malloc_r+0x60>
    7e8a:	fc04d2e3          	bgez	s1,7e4e <_malloc_r+0x1c>
    7e8e:	47b1                	li	a5,12
    7e90:	c11c                	sw	a5,0(a0)
    7e92:	4501                	li	a0,0
    7e94:	40f2                	lw	ra,28(sp)
    7e96:	4462                	lw	s0,24(sp)
    7e98:	44d2                	lw	s1,20(sp)
    7e9a:	4942                	lw	s2,16(sp)
    7e9c:	49b2                	lw	s3,12(sp)
    7e9e:	6105                	addi	sp,sp,32
    7ea0:	8082                	ret
    7ea2:	401c                	lw	a5,0(s0)
    7ea4:	8f85                	sub	a5,a5,s1
    7ea6:	0207ce63          	bltz	a5,7ee2 <_malloc_r+0xb0>
    7eaa:	46ad                	li	a3,11
    7eac:	00f6f663          	bgeu	a3,a5,7eb8 <_malloc_r+0x86>
    7eb0:	c01c                	sw	a5,0(s0)
    7eb2:	943e                	add	s0,s0,a5
    7eb4:	c004                	sw	s1,0(s0)
    7eb6:	a031                	j	7ec2 <_malloc_r+0x90>
    7eb8:	405c                	lw	a5,4(s0)
    7eba:	02871263          	bne	a4,s0,7ede <_malloc_r+0xac>
    7ebe:	86f1ae23          	sw	a5,-1924(gp) # 2000029c <__malloc_free_list>
    7ec2:	854a                	mv	a0,s2
    7ec4:	2b35                	jal	8400 <__malloc_unlock>
    7ec6:	00b40513          	addi	a0,s0,11
    7eca:	00440793          	addi	a5,s0,4
    7ece:	9961                	andi	a0,a0,-8
    7ed0:	40f50733          	sub	a4,a0,a5
    7ed4:	d361                	beqz	a4,7e94 <_malloc_r+0x62>
    7ed6:	943a                	add	s0,s0,a4
    7ed8:	8f89                	sub	a5,a5,a0
    7eda:	c01c                	sw	a5,0(s0)
    7edc:	bf65                	j	7e94 <_malloc_r+0x62>
    7ede:	c35c                	sw	a5,4(a4)
    7ee0:	b7cd                	j	7ec2 <_malloc_r+0x90>
    7ee2:	8722                	mv	a4,s0
    7ee4:	4040                	lw	s0,4(s0)
    7ee6:	bfa5                	j	7e5e <_malloc_r+0x2c>
    7ee8:	00350413          	addi	s0,a0,3
    7eec:	9871                	andi	s0,s0,-4
    7eee:	fc8503e3          	beq	a0,s0,7eb4 <_malloc_r+0x82>
    7ef2:	40a405b3          	sub	a1,s0,a0
    7ef6:	854a                	mv	a0,s2
    7ef8:	2e19                	jal	820e <_sbrk_r>
    7efa:	fb351de3          	bne	a0,s3,7eb4 <_malloc_r+0x82>
    7efe:	b741                	j	7e7e <_malloc_r+0x4c>

00007f00 <__sfputc_r>:
__sfputc_r():
    7f00:	461c                	lw	a5,8(a2)
    7f02:	17fd                	addi	a5,a5,-1
    7f04:	c61c                	sw	a5,8(a2)
    7f06:	0007da63          	bgez	a5,7f1a <__sfputc_r+0x1a>
    7f0a:	4e18                	lw	a4,24(a2)
    7f0c:	00e7c563          	blt	a5,a4,7f16 <__sfputc_r+0x16>
    7f10:	47a9                	li	a5,10
    7f12:	00f59463          	bne	a1,a5,7f1a <__sfputc_r+0x1a>
    7f16:	b18fe06f          	j	622e <__swbuf_r>
    7f1a:	421c                	lw	a5,0(a2)
    7f1c:	852e                	mv	a0,a1
    7f1e:	00178713          	addi	a4,a5,1
    7f22:	c218                	sw	a4,0(a2)
    7f24:	00b78023          	sb	a1,0(a5)
    7f28:	8082                	ret

00007f2a <__sfputs_r>:
__sfputs_r():
    7f2a:	1101                	addi	sp,sp,-32
    7f2c:	cc22                	sw	s0,24(sp)
    7f2e:	ca26                	sw	s1,20(sp)
    7f30:	c84a                	sw	s2,16(sp)
    7f32:	c64e                	sw	s3,12(sp)
    7f34:	c452                	sw	s4,8(sp)
    7f36:	ce06                	sw	ra,28(sp)
    7f38:	892a                	mv	s2,a0
    7f3a:	89ae                	mv	s3,a1
    7f3c:	8432                	mv	s0,a2
    7f3e:	00d604b3          	add	s1,a2,a3
    7f42:	5a7d                	li	s4,-1
    7f44:	00941463          	bne	s0,s1,7f4c <__sfputs_r+0x22>
    7f48:	4501                	li	a0,0
    7f4a:	a811                	j	7f5e <__sfputs_r+0x34>
    7f4c:	00044583          	lbu	a1,0(s0)
    7f50:	864e                	mv	a2,s3
    7f52:	854a                	mv	a0,s2
    7f54:	fadff0ef          	jal	ra,7f00 <__sfputc_r>
    7f58:	0405                	addi	s0,s0,1
    7f5a:	ff4515e3          	bne	a0,s4,7f44 <__sfputs_r+0x1a>
    7f5e:	40f2                	lw	ra,28(sp)
    7f60:	4462                	lw	s0,24(sp)
    7f62:	44d2                	lw	s1,20(sp)
    7f64:	4942                	lw	s2,16(sp)
    7f66:	49b2                	lw	s3,12(sp)
    7f68:	4a22                	lw	s4,8(sp)
    7f6a:	6105                	addi	sp,sp,32
    7f6c:	8082                	ret

00007f6e <_vfiprintf_r>:
_vfiprintf_r():
    7f6e:	7135                	addi	sp,sp,-160
    7f70:	cd22                	sw	s0,152(sp)
    7f72:	cb26                	sw	s1,148(sp)
    7f74:	c94a                	sw	s2,144(sp)
    7f76:	c74e                	sw	s3,140(sp)
    7f78:	cf06                	sw	ra,156(sp)
    7f7a:	c552                	sw	s4,136(sp)
    7f7c:	c356                	sw	s5,132(sp)
    7f7e:	c15a                	sw	s6,128(sp)
    7f80:	dede                	sw	s7,124(sp)
    7f82:	dce2                	sw	s8,120(sp)
    7f84:	dae6                	sw	s9,116(sp)
    7f86:	89aa                	mv	s3,a0
    7f88:	84ae                	mv	s1,a1
    7f8a:	8932                	mv	s2,a2
    7f8c:	8436                	mv	s0,a3
    7f8e:	c509                	beqz	a0,7f98 <_vfiprintf_r+0x2a>
    7f90:	4d1c                	lw	a5,24(a0)
    7f92:	e399                	bnez	a5,7f98 <_vfiprintf_r+0x2a>
    7f94:	c2aff0ef          	jal	ra,73be <__sinit>
    7f98:	00001797          	auipc	a5,0x1
    7f9c:	cc878793          	addi	a5,a5,-824 # 8c60 <__sf_fake_stdin>
    7fa0:	0cf49d63          	bne	s1,a5,807a <_vfiprintf_r+0x10c>
    7fa4:	0049a483          	lw	s1,4(s3)
    7fa8:	00c4d783          	lhu	a5,12(s1)
    7fac:	8ba1                	andi	a5,a5,8
    7fae:	cbe5                	beqz	a5,809e <_vfiprintf_r+0x130>
    7fb0:	489c                	lw	a5,16(s1)
    7fb2:	c7f5                	beqz	a5,809e <_vfiprintf_r+0x130>
    7fb4:	02000793          	li	a5,32
    7fb8:	02f104a3          	sb	a5,41(sp)
    7fbc:	03000793          	li	a5,48
    7fc0:	d202                	sw	zero,36(sp)
    7fc2:	02f10523          	sb	a5,42(sp)
    7fc6:	c622                	sw	s0,12(sp)
    7fc8:	02500b93          	li	s7,37
    7fcc:	00001a97          	auipc	s5,0x1
    7fd0:	dd0a8a93          	addi	s5,s5,-560 # 8d9c <p05.3319+0xc>
    7fd4:	4c05                	li	s8,1
    7fd6:	4b29                	li	s6,10
    7fd8:	844a                	mv	s0,s2
    7fda:	00044783          	lbu	a5,0(s0)
    7fde:	c399                	beqz	a5,7fe4 <_vfiprintf_r+0x76>
    7fe0:	0f779263          	bne	a5,s7,80c4 <_vfiprintf_r+0x156>
    7fe4:	41240cb3          	sub	s9,s0,s2
    7fe8:	000c8e63          	beqz	s9,8004 <_vfiprintf_r+0x96>
    7fec:	86e6                	mv	a3,s9
    7fee:	864a                	mv	a2,s2
    7ff0:	85a6                	mv	a1,s1
    7ff2:	854e                	mv	a0,s3
    7ff4:	f37ff0ef          	jal	ra,7f2a <__sfputs_r>
    7ff8:	57fd                	li	a5,-1
    7ffa:	1ef50763          	beq	a0,a5,81e8 <_vfiprintf_r+0x27a>
    7ffe:	5692                	lw	a3,36(sp)
    8000:	96e6                	add	a3,a3,s9
    8002:	d236                	sw	a3,36(sp)
    8004:	00044783          	lbu	a5,0(s0)
    8008:	1e078063          	beqz	a5,81e8 <_vfiprintf_r+0x27a>
    800c:	57fd                	li	a5,-1
    800e:	00140913          	addi	s2,s0,1
    8012:	c802                	sw	zero,16(sp)
    8014:	ce02                	sw	zero,28(sp)
    8016:	ca3e                	sw	a5,20(sp)
    8018:	cc02                	sw	zero,24(sp)
    801a:	040109a3          	sb	zero,83(sp)
    801e:	d482                	sw	zero,104(sp)
    8020:	00094583          	lbu	a1,0(s2)
    8024:	4615                	li	a2,5
    8026:	8556                	mv	a0,s5
    8028:	e2eff0ef          	jal	ra,7656 <memchr>
    802c:	00190413          	addi	s0,s2,1
    8030:	47c2                	lw	a5,16(sp)
    8032:	e959                	bnez	a0,80c8 <_vfiprintf_r+0x15a>
    8034:	0107f713          	andi	a4,a5,16
    8038:	c709                	beqz	a4,8042 <_vfiprintf_r+0xd4>
    803a:	02000713          	li	a4,32
    803e:	04e109a3          	sb	a4,83(sp)
    8042:	0087f713          	andi	a4,a5,8
    8046:	c709                	beqz	a4,8050 <_vfiprintf_r+0xe2>
    8048:	02b00713          	li	a4,43
    804c:	04e109a3          	sb	a4,83(sp)
    8050:	00094683          	lbu	a3,0(s2)
    8054:	02a00713          	li	a4,42
    8058:	08e68063          	beq	a3,a4,80d8 <_vfiprintf_r+0x16a>
    805c:	47f2                	lw	a5,28(sp)
    805e:	844a                	mv	s0,s2
    8060:	4681                	li	a3,0
    8062:	4625                	li	a2,9
    8064:	00044703          	lbu	a4,0(s0)
    8068:	00140593          	addi	a1,s0,1
    806c:	fd070713          	addi	a4,a4,-48
    8070:	0ae67963          	bgeu	a2,a4,8122 <_vfiprintf_r+0x1b4>
    8074:	cab5                	beqz	a3,80e8 <_vfiprintf_r+0x17a>
    8076:	ce3e                	sw	a5,28(sp)
    8078:	a885                	j	80e8 <_vfiprintf_r+0x17a>
    807a:	00001797          	auipc	a5,0x1
    807e:	c0678793          	addi	a5,a5,-1018 # 8c80 <__sf_fake_stdout>
    8082:	00f49563          	bne	s1,a5,808c <_vfiprintf_r+0x11e>
    8086:	0089a483          	lw	s1,8(s3)
    808a:	bf39                	j	7fa8 <_vfiprintf_r+0x3a>
    808c:	00001797          	auipc	a5,0x1
    8090:	bb478793          	addi	a5,a5,-1100 # 8c40 <__sf_fake_stderr>
    8094:	f0f49ae3          	bne	s1,a5,7fa8 <_vfiprintf_r+0x3a>
    8098:	00c9a483          	lw	s1,12(s3)
    809c:	b731                	j	7fa8 <_vfiprintf_r+0x3a>
    809e:	85a6                	mv	a1,s1
    80a0:	854e                	mv	a0,s3
    80a2:	a52fe0ef          	jal	ra,62f4 <__swsetup_r>
    80a6:	d519                	beqz	a0,7fb4 <_vfiprintf_r+0x46>
    80a8:	557d                	li	a0,-1
    80aa:	40fa                	lw	ra,156(sp)
    80ac:	446a                	lw	s0,152(sp)
    80ae:	44da                	lw	s1,148(sp)
    80b0:	494a                	lw	s2,144(sp)
    80b2:	49ba                	lw	s3,140(sp)
    80b4:	4a2a                	lw	s4,136(sp)
    80b6:	4a9a                	lw	s5,132(sp)
    80b8:	4b0a                	lw	s6,128(sp)
    80ba:	5bf6                	lw	s7,124(sp)
    80bc:	5c66                	lw	s8,120(sp)
    80be:	5cd6                	lw	s9,116(sp)
    80c0:	610d                	addi	sp,sp,160
    80c2:	8082                	ret
    80c4:	0405                	addi	s0,s0,1
    80c6:	bf11                	j	7fda <_vfiprintf_r+0x6c>
    80c8:	41550533          	sub	a0,a0,s5
    80cc:	00ac1533          	sll	a0,s8,a0
    80d0:	8fc9                	or	a5,a5,a0
    80d2:	c83e                	sw	a5,16(sp)
    80d4:	8922                	mv	s2,s0
    80d6:	b7a9                	j	8020 <_vfiprintf_r+0xb2>
    80d8:	4732                	lw	a4,12(sp)
    80da:	00470693          	addi	a3,a4,4
    80de:	4318                	lw	a4,0(a4)
    80e0:	c636                	sw	a3,12(sp)
    80e2:	02074963          	bltz	a4,8114 <_vfiprintf_r+0x1a6>
    80e6:	ce3a                	sw	a4,28(sp)
    80e8:	00044703          	lbu	a4,0(s0)
    80ec:	02e00793          	li	a5,46
    80f0:	04f71f63          	bne	a4,a5,814e <_vfiprintf_r+0x1e0>
    80f4:	00144703          	lbu	a4,1(s0)
    80f8:	02a00793          	li	a5,42
    80fc:	02f71b63          	bne	a4,a5,8132 <_vfiprintf_r+0x1c4>
    8100:	47b2                	lw	a5,12(sp)
    8102:	0409                	addi	s0,s0,2
    8104:	00478713          	addi	a4,a5,4
    8108:	439c                	lw	a5,0(a5)
    810a:	c63a                	sw	a4,12(sp)
    810c:	0207c163          	bltz	a5,812e <_vfiprintf_r+0x1c0>
    8110:	ca3e                	sw	a5,20(sp)
    8112:	a835                	j	814e <_vfiprintf_r+0x1e0>
    8114:	40e00733          	neg	a4,a4
    8118:	0027e793          	ori	a5,a5,2
    811c:	ce3a                	sw	a4,28(sp)
    811e:	c83e                	sw	a5,16(sp)
    8120:	b7e1                	j	80e8 <_vfiprintf_r+0x17a>
    8122:	036787b3          	mul	a5,a5,s6
    8126:	4685                	li	a3,1
    8128:	842e                	mv	s0,a1
    812a:	97ba                	add	a5,a5,a4
    812c:	bf25                	j	8064 <_vfiprintf_r+0xf6>
    812e:	57fd                	li	a5,-1
    8130:	b7c5                	j	8110 <_vfiprintf_r+0x1a2>
    8132:	0405                	addi	s0,s0,1
    8134:	ca02                	sw	zero,20(sp)
    8136:	4681                	li	a3,0
    8138:	4781                	li	a5,0
    813a:	4625                	li	a2,9
    813c:	00044703          	lbu	a4,0(s0)
    8140:	00140593          	addi	a1,s0,1
    8144:	fd070713          	addi	a4,a4,-48
    8148:	06e67863          	bgeu	a2,a4,81b8 <_vfiprintf_r+0x24a>
    814c:	f2f1                	bnez	a3,8110 <_vfiprintf_r+0x1a2>
    814e:	00044583          	lbu	a1,0(s0)
    8152:	460d                	li	a2,3
    8154:	00001517          	auipc	a0,0x1
    8158:	c5050513          	addi	a0,a0,-944 # 8da4 <p05.3319+0x14>
    815c:	cfaff0ef          	jal	ra,7656 <memchr>
    8160:	cd11                	beqz	a0,817c <_vfiprintf_r+0x20e>
    8162:	00001797          	auipc	a5,0x1
    8166:	c4278793          	addi	a5,a5,-958 # 8da4 <p05.3319+0x14>
    816a:	8d1d                	sub	a0,a0,a5
    816c:	04000793          	li	a5,64
    8170:	00a797b3          	sll	a5,a5,a0
    8174:	4542                	lw	a0,16(sp)
    8176:	0405                	addi	s0,s0,1
    8178:	8d5d                	or	a0,a0,a5
    817a:	c82a                	sw	a0,16(sp)
    817c:	00044583          	lbu	a1,0(s0)
    8180:	4619                	li	a2,6
    8182:	00001517          	auipc	a0,0x1
    8186:	c2650513          	addi	a0,a0,-986 # 8da8 <p05.3319+0x18>
    818a:	00140913          	addi	s2,s0,1
    818e:	02b10423          	sb	a1,40(sp)
    8192:	cc4ff0ef          	jal	ra,7656 <memchr>
    8196:	c12d                	beqz	a0,81f8 <_vfiprintf_r+0x28a>
    8198:	ffffd797          	auipc	a5,0xffffd
    819c:	7c678793          	addi	a5,a5,1990 # 595e <_printf_float>
    81a0:	e795                	bnez	a5,81cc <_vfiprintf_r+0x25e>
    81a2:	4742                	lw	a4,16(sp)
    81a4:	47b2                	lw	a5,12(sp)
    81a6:	10077713          	andi	a4,a4,256
    81aa:	cf09                	beqz	a4,81c4 <_vfiprintf_r+0x256>
    81ac:	0791                	addi	a5,a5,4
    81ae:	c63e                	sw	a5,12(sp)
    81b0:	5792                	lw	a5,36(sp)
    81b2:	97d2                	add	a5,a5,s4
    81b4:	d23e                	sw	a5,36(sp)
    81b6:	b50d                	j	7fd8 <_vfiprintf_r+0x6a>
    81b8:	036787b3          	mul	a5,a5,s6
    81bc:	4685                	li	a3,1
    81be:	842e                	mv	s0,a1
    81c0:	97ba                	add	a5,a5,a4
    81c2:	bfad                	j	813c <_vfiprintf_r+0x1ce>
    81c4:	079d                	addi	a5,a5,7
    81c6:	9be1                	andi	a5,a5,-8
    81c8:	07a1                	addi	a5,a5,8
    81ca:	b7d5                	j	81ae <_vfiprintf_r+0x240>
    81cc:	0078                	addi	a4,sp,12
    81ce:	00000697          	auipc	a3,0x0
    81d2:	d5c68693          	addi	a3,a3,-676 # 7f2a <__sfputs_r>
    81d6:	8626                	mv	a2,s1
    81d8:	080c                	addi	a1,sp,16
    81da:	854e                	mv	a0,s3
    81dc:	f82fd0ef          	jal	ra,595e <_printf_float>
    81e0:	57fd                	li	a5,-1
    81e2:	8a2a                	mv	s4,a0
    81e4:	fcf516e3          	bne	a0,a5,81b0 <_vfiprintf_r+0x242>
    81e8:	00c4d783          	lhu	a5,12(s1)
    81ec:	0407f793          	andi	a5,a5,64
    81f0:	ea079ce3          	bnez	a5,80a8 <_vfiprintf_r+0x13a>
    81f4:	5512                	lw	a0,36(sp)
    81f6:	bd55                	j	80aa <_vfiprintf_r+0x13c>
    81f8:	0078                	addi	a4,sp,12
    81fa:	00000697          	auipc	a3,0x0
    81fe:	d3068693          	addi	a3,a3,-720 # 7f2a <__sfputs_r>
    8202:	8626                	mv	a2,s1
    8204:	080c                	addi	a1,sp,16
    8206:	854e                	mv	a0,s3
    8208:	d27fd0ef          	jal	ra,5f2e <_printf_i>
    820c:	bfd1                	j	81e0 <_vfiprintf_r+0x272>

0000820e <_sbrk_r>:
_sbrk_r():
    820e:	1141                	addi	sp,sp,-16
    8210:	c422                	sw	s0,8(sp)
    8212:	842a                	mv	s0,a0
    8214:	852e                	mv	a0,a1
    8216:	9601a623          	sw	zero,-1684(gp) # 2000038c <errno>
    821a:	c606                	sw	ra,12(sp)
    821c:	2bf9                	jal	87fa <_sbrk>
    821e:	57fd                	li	a5,-1
    8220:	00f51763          	bne	a0,a5,822e <_sbrk_r+0x20>
    8224:	96c18793          	addi	a5,gp,-1684 # 2000038c <errno>
    8228:	439c                	lw	a5,0(a5)
    822a:	c391                	beqz	a5,822e <_sbrk_r+0x20>
    822c:	c01c                	sw	a5,0(s0)
    822e:	40b2                	lw	ra,12(sp)
    8230:	4422                	lw	s0,8(sp)
    8232:	0141                	addi	sp,sp,16
    8234:	8082                	ret

00008236 <__sread>:
__sread():
    8236:	1141                	addi	sp,sp,-16
    8238:	c422                	sw	s0,8(sp)
    823a:	842e                	mv	s0,a1
    823c:	00e59583          	lh	a1,14(a1)
    8240:	c606                	sw	ra,12(sp)
    8242:	22c1                	jal	8402 <_read_r>
    8244:	00054963          	bltz	a0,8256 <__sread+0x20>
    8248:	487c                	lw	a5,84(s0)
    824a:	97aa                	add	a5,a5,a0
    824c:	c87c                	sw	a5,84(s0)
    824e:	40b2                	lw	ra,12(sp)
    8250:	4422                	lw	s0,8(sp)
    8252:	0141                	addi	sp,sp,16
    8254:	8082                	ret
    8256:	00c45783          	lhu	a5,12(s0)
    825a:	777d                	lui	a4,0xfffff
    825c:	177d                	addi	a4,a4,-1
    825e:	8ff9                	and	a5,a5,a4
    8260:	00f41623          	sh	a5,12(s0)
    8264:	b7ed                	j	824e <__sread+0x18>

00008266 <__swrite>:
__swrite():
    8266:	00c5d783          	lhu	a5,12(a1)
    826a:	1101                	addi	sp,sp,-32
    826c:	cc22                	sw	s0,24(sp)
    826e:	ca26                	sw	s1,20(sp)
    8270:	c84a                	sw	s2,16(sp)
    8272:	c64e                	sw	s3,12(sp)
    8274:	ce06                	sw	ra,28(sp)
    8276:	1007f793          	andi	a5,a5,256
    827a:	84aa                	mv	s1,a0
    827c:	842e                	mv	s0,a1
    827e:	8932                	mv	s2,a2
    8280:	89b6                	mv	s3,a3
    8282:	c791                	beqz	a5,828e <__swrite+0x28>
    8284:	00e59583          	lh	a1,14(a1)
    8288:	4689                	li	a3,2
    828a:	4601                	li	a2,0
    828c:	2231                	jal	8398 <_lseek_r>
    828e:	00c45783          	lhu	a5,12(s0)
    8292:	777d                	lui	a4,0xfffff
    8294:	177d                	addi	a4,a4,-1
    8296:	8ff9                	and	a5,a5,a4
    8298:	00f41623          	sh	a5,12(s0)
    829c:	00e41583          	lh	a1,14(s0)
    82a0:	4462                	lw	s0,24(sp)
    82a2:	40f2                	lw	ra,28(sp)
    82a4:	86ce                	mv	a3,s3
    82a6:	864a                	mv	a2,s2
    82a8:	49b2                	lw	s3,12(sp)
    82aa:	4942                	lw	s2,16(sp)
    82ac:	8526                	mv	a0,s1
    82ae:	44d2                	lw	s1,20(sp)
    82b0:	6105                	addi	sp,sp,32
    82b2:	a83d                	j	82f0 <_write_r>

000082b4 <__sseek>:
__sseek():
    82b4:	1141                	addi	sp,sp,-16
    82b6:	c422                	sw	s0,8(sp)
    82b8:	842e                	mv	s0,a1
    82ba:	00e59583          	lh	a1,14(a1)
    82be:	c606                	sw	ra,12(sp)
    82c0:	28e1                	jal	8398 <_lseek_r>
    82c2:	57fd                	li	a5,-1
    82c4:	00c45703          	lhu	a4,12(s0)
    82c8:	00f51b63          	bne	a0,a5,82de <__sseek+0x2a>
    82cc:	77fd                	lui	a5,0xfffff
    82ce:	17fd                	addi	a5,a5,-1
    82d0:	8ff9                	and	a5,a5,a4
    82d2:	00f41623          	sh	a5,12(s0)
    82d6:	40b2                	lw	ra,12(sp)
    82d8:	4422                	lw	s0,8(sp)
    82da:	0141                	addi	sp,sp,16
    82dc:	8082                	ret
    82de:	6785                	lui	a5,0x1
    82e0:	8fd9                	or	a5,a5,a4
    82e2:	00f41623          	sh	a5,12(s0)
    82e6:	c868                	sw	a0,84(s0)
    82e8:	b7fd                	j	82d6 <__sseek+0x22>

000082ea <__sclose>:
__sclose():
    82ea:	00e59583          	lh	a1,14(a1)
    82ee:	a805                	j	831e <_close_r>

000082f0 <_write_r>:
_write_r():
    82f0:	1141                	addi	sp,sp,-16
    82f2:	c422                	sw	s0,8(sp)
    82f4:	842a                	mv	s0,a0
    82f6:	852e                	mv	a0,a1
    82f8:	85b2                	mv	a1,a2
    82fa:	8636                	mv	a2,a3
    82fc:	9601a623          	sw	zero,-1684(gp) # 2000038c <errno>
    8300:	c606                	sw	ra,12(sp)
    8302:	f11f80ef          	jal	ra,1212 <_write>
    8306:	57fd                	li	a5,-1
    8308:	00f51763          	bne	a0,a5,8316 <_write_r+0x26>
    830c:	96c18793          	addi	a5,gp,-1684 # 2000038c <errno>
    8310:	439c                	lw	a5,0(a5)
    8312:	c391                	beqz	a5,8316 <_write_r+0x26>
    8314:	c01c                	sw	a5,0(s0)
    8316:	40b2                	lw	ra,12(sp)
    8318:	4422                	lw	s0,8(sp)
    831a:	0141                	addi	sp,sp,16
    831c:	8082                	ret

0000831e <_close_r>:
_close_r():
    831e:	1141                	addi	sp,sp,-16
    8320:	c422                	sw	s0,8(sp)
    8322:	842a                	mv	s0,a0
    8324:	852e                	mv	a0,a1
    8326:	9601a623          	sw	zero,-1684(gp) # 2000038c <errno>
    832a:	c606                	sw	ra,12(sp)
    832c:	2949                	jal	87be <_close>
    832e:	57fd                	li	a5,-1
    8330:	00f51763          	bne	a0,a5,833e <_close_r+0x20>
    8334:	96c18793          	addi	a5,gp,-1684 # 2000038c <errno>
    8338:	439c                	lw	a5,0(a5)
    833a:	c391                	beqz	a5,833e <_close_r+0x20>
    833c:	c01c                	sw	a5,0(s0)
    833e:	40b2                	lw	ra,12(sp)
    8340:	4422                	lw	s0,8(sp)
    8342:	0141                	addi	sp,sp,16
    8344:	8082                	ret

00008346 <_fstat_r>:
_fstat_r():
    8346:	1141                	addi	sp,sp,-16
    8348:	c422                	sw	s0,8(sp)
    834a:	842a                	mv	s0,a0
    834c:	852e                	mv	a0,a1
    834e:	85b2                	mv	a1,a2
    8350:	9601a623          	sw	zero,-1684(gp) # 2000038c <errno>
    8354:	c606                	sw	ra,12(sp)
    8356:	2995                	jal	87ca <_fstat>
    8358:	57fd                	li	a5,-1
    835a:	00f51763          	bne	a0,a5,8368 <_fstat_r+0x22>
    835e:	96c18793          	addi	a5,gp,-1684 # 2000038c <errno>
    8362:	439c                	lw	a5,0(a5)
    8364:	c391                	beqz	a5,8368 <_fstat_r+0x22>
    8366:	c01c                	sw	a5,0(s0)
    8368:	40b2                	lw	ra,12(sp)
    836a:	4422                	lw	s0,8(sp)
    836c:	0141                	addi	sp,sp,16
    836e:	8082                	ret

00008370 <_isatty_r>:
_isatty_r():
    8370:	1141                	addi	sp,sp,-16
    8372:	c422                	sw	s0,8(sp)
    8374:	842a                	mv	s0,a0
    8376:	852e                	mv	a0,a1
    8378:	9601a623          	sw	zero,-1684(gp) # 2000038c <errno>
    837c:	c606                	sw	ra,12(sp)
    837e:	29a1                	jal	87d6 <_isatty>
    8380:	57fd                	li	a5,-1
    8382:	00f51763          	bne	a0,a5,8390 <_isatty_r+0x20>
    8386:	96c18793          	addi	a5,gp,-1684 # 2000038c <errno>
    838a:	439c                	lw	a5,0(a5)
    838c:	c391                	beqz	a5,8390 <_isatty_r+0x20>
    838e:	c01c                	sw	a5,0(s0)
    8390:	40b2                	lw	ra,12(sp)
    8392:	4422                	lw	s0,8(sp)
    8394:	0141                	addi	sp,sp,16
    8396:	8082                	ret

00008398 <_lseek_r>:
_lseek_r():
    8398:	1141                	addi	sp,sp,-16
    839a:	c422                	sw	s0,8(sp)
    839c:	842a                	mv	s0,a0
    839e:	852e                	mv	a0,a1
    83a0:	85b2                	mv	a1,a2
    83a2:	8636                	mv	a2,a3
    83a4:	9601a623          	sw	zero,-1684(gp) # 2000038c <errno>
    83a8:	c606                	sw	ra,12(sp)
    83aa:	2925                	jal	87e2 <_lseek>
    83ac:	57fd                	li	a5,-1
    83ae:	00f51763          	bne	a0,a5,83bc <_lseek_r+0x24>
    83b2:	96c18793          	addi	a5,gp,-1684 # 2000038c <errno>
    83b6:	439c                	lw	a5,0(a5)
    83b8:	c391                	beqz	a5,83bc <_lseek_r+0x24>
    83ba:	c01c                	sw	a5,0(s0)
    83bc:	40b2                	lw	ra,12(sp)
    83be:	4422                	lw	s0,8(sp)
    83c0:	0141                	addi	sp,sp,16
    83c2:	8082                	ret

000083c4 <__ascii_mbtowc>:
__ascii_mbtowc():
    83c4:	e185                	bnez	a1,83e4 <__ascii_mbtowc+0x20>
    83c6:	1141                	addi	sp,sp,-16
    83c8:	006c                	addi	a1,sp,12
    83ca:	4501                	li	a0,0
    83cc:	ca11                	beqz	a2,83e0 <__ascii_mbtowc+0x1c>
    83ce:	5579                	li	a0,-2
    83d0:	ca81                	beqz	a3,83e0 <__ascii_mbtowc+0x1c>
    83d2:	00064783          	lbu	a5,0(a2)
    83d6:	c19c                	sw	a5,0(a1)
    83d8:	00064503          	lbu	a0,0(a2)
    83dc:	00a03533          	snez	a0,a0
    83e0:	0141                	addi	sp,sp,16
    83e2:	8082                	ret
    83e4:	4501                	li	a0,0
    83e6:	ca19                	beqz	a2,83fc <__ascii_mbtowc+0x38>
    83e8:	5579                	li	a0,-2
    83ea:	ca89                	beqz	a3,83fc <__ascii_mbtowc+0x38>
    83ec:	00064783          	lbu	a5,0(a2)
    83f0:	c19c                	sw	a5,0(a1)
    83f2:	00064503          	lbu	a0,0(a2)
    83f6:	00a03533          	snez	a0,a0
    83fa:	8082                	ret
    83fc:	8082                	ret

000083fe <__malloc_lock>:
__malloc_lock():
    83fe:	8082                	ret

00008400 <__malloc_unlock>:
__malloc_unlock():
    8400:	8082                	ret

00008402 <_read_r>:
_read_r():
    8402:	1141                	addi	sp,sp,-16
    8404:	c422                	sw	s0,8(sp)
    8406:	842a                	mv	s0,a0
    8408:	852e                	mv	a0,a1
    840a:	85b2                	mv	a1,a2
    840c:	8636                	mv	a2,a3
    840e:	9601a623          	sw	zero,-1684(gp) # 2000038c <errno>
    8412:	c606                	sw	ra,12(sp)
    8414:	2ee9                	jal	87ee <_read>
    8416:	57fd                	li	a5,-1
    8418:	00f51763          	bne	a0,a5,8426 <_read_r+0x24>
    841c:	96c18793          	addi	a5,gp,-1684 # 2000038c <errno>
    8420:	439c                	lw	a5,0(a5)
    8422:	c391                	beqz	a5,8426 <_read_r+0x24>
    8424:	c01c                	sw	a5,0(s0)
    8426:	40b2                	lw	ra,12(sp)
    8428:	4422                	lw	s0,8(sp)
    842a:	0141                	addi	sp,sp,16
    842c:	8082                	ret

0000842e <__ascii_wctomb>:
__ascii_wctomb():
    842e:	cd91                	beqz	a1,844a <__ascii_wctomb+0x1c>
    8430:	0ff00793          	li	a5,255
    8434:	00c7f763          	bgeu	a5,a2,8442 <__ascii_wctomb+0x14>
    8438:	08a00793          	li	a5,138
    843c:	c11c                	sw	a5,0(a0)
    843e:	557d                	li	a0,-1
    8440:	8082                	ret
    8442:	00c58023          	sb	a2,0(a1)
    8446:	4505                	li	a0,1
    8448:	8082                	ret
    844a:	4501                	li	a0,0
    844c:	8082                	ret

0000844e <__gedf2>:
__gtdf2():
    844e:	0145d713          	srli	a4,a1,0x14
    8452:	001007b7          	lui	a5,0x100
    8456:	17fd                	addi	a5,a5,-1
    8458:	0146d813          	srli	a6,a3,0x14
    845c:	7ff77713          	andi	a4,a4,2047
    8460:	7ff00893          	li	a7,2047
    8464:	00b7f333          	and	t1,a5,a1
    8468:	8e2a                	mv	t3,a0
    846a:	8ff5                	and	a5,a5,a3
    846c:	81fd                	srli	a1,a1,0x1f
    846e:	8eb2                	mv	t4,a2
    8470:	7ff87813          	andi	a6,a6,2047
    8474:	82fd                	srli	a3,a3,0x1f
    8476:	03170863          	beq	a4,a7,84a6 <__gedf2+0x58>
    847a:	03180063          	beq	a6,a7,849a <__gedf2+0x4c>
    847e:	eb0d                	bnez	a4,84b0 <__gedf2+0x62>
    8480:	00a368b3          	or	a7,t1,a0
    8484:	00081463          	bnez	a6,848c <__gedf2+0x3e>
    8488:	8e5d                	or	a2,a2,a5
    848a:	ca29                	beqz	a2,84dc <__gedf2+0x8e>
    848c:	04088563          	beqz	a7,84d6 <__gedf2+0x88>
    8490:	02d58863          	beq	a1,a3,84c0 <__gedf2+0x72>
    8494:	4505                	li	a0,1
    8496:	ed95                	bnez	a1,84d2 <__gedf2+0x84>
    8498:	8082                	ret
    849a:	00c7e8b3          	or	a7,a5,a2
    849e:	fe0880e3          	beqz	a7,847e <__gedf2+0x30>
    84a2:	5579                	li	a0,-2
    84a4:	8082                	ret
    84a6:	00a36533          	or	a0,t1,a0
    84aa:	fd65                	bnez	a0,84a2 <__gedf2+0x54>
    84ac:	02e80c63          	beq	a6,a4,84e4 <__gedf2+0x96>
    84b0:	00081463          	bnez	a6,84b8 <__gedf2+0x6a>
    84b4:	8e5d                	or	a2,a2,a5
    84b6:	de79                	beqz	a2,8494 <__gedf2+0x46>
    84b8:	fcd59ee3          	bne	a1,a3,8494 <__gedf2+0x46>
    84bc:	fce84ce3          	blt	a6,a4,8494 <__gedf2+0x46>
    84c0:	01074863          	blt	a4,a6,84d0 <__gedf2+0x82>
    84c4:	fc67e8e3          	bltu	a5,t1,8494 <__gedf2+0x46>
    84c8:	02f30363          	beq	t1,a5,84ee <__gedf2+0xa0>
    84cc:	00f37f63          	bgeu	t1,a5,84ea <__gedf2+0x9c>
    84d0:	e581                	bnez	a1,84d8 <__gedf2+0x8a>
    84d2:	557d                	li	a0,-1
    84d4:	8082                	ret
    84d6:	def5                	beqz	a3,84d2 <__gedf2+0x84>
    84d8:	4505                	li	a0,1
    84da:	8082                	ret
    84dc:	4501                	li	a0,0
    84de:	fa089be3          	bnez	a7,8494 <__gedf2+0x46>
    84e2:	8082                	ret
    84e4:	8e5d                	or	a2,a2,a5
    84e6:	da69                	beqz	a2,84b8 <__gedf2+0x6a>
    84e8:	bf6d                	j	84a2 <__gedf2+0x54>
    84ea:	4501                	li	a0,0
    84ec:	8082                	ret
    84ee:	fbcee3e3          	bltu	t4,t3,8494 <__gedf2+0x46>
    84f2:	4501                	li	a0,0
    84f4:	fbde72e3          	bgeu	t3,t4,8498 <__gedf2+0x4a>
    84f8:	f1e5                	bnez	a1,84d8 <__gedf2+0x8a>
    84fa:	bfe1                	j	84d2 <__gedf2+0x84>

000084fc <__unorddf2>:
__unorddf2():
    84fc:	0145d713          	srli	a4,a1,0x14
    8500:	001007b7          	lui	a5,0x100
    8504:	17fd                	addi	a5,a5,-1
    8506:	fff74713          	not	a4,a4
    850a:	0146d813          	srli	a6,a3,0x14
    850e:	8dfd                	and	a1,a1,a5
    8510:	8ff5                	and	a5,a5,a3
    8512:	01571693          	slli	a3,a4,0x15
    8516:	7ff87813          	andi	a6,a6,2047
    851a:	ca99                	beqz	a3,8530 <__unorddf2+0x34>
    851c:	7ff00713          	li	a4,2047
    8520:	4501                	li	a0,0
    8522:	00e80363          	beq	a6,a4,8528 <__unorddf2+0x2c>
    8526:	8082                	ret
    8528:	8fd1                	or	a5,a5,a2
    852a:	00f03533          	snez	a0,a5
    852e:	8082                	ret
    8530:	8dc9                	or	a1,a1,a0
    8532:	4505                	li	a0,1
    8534:	d5e5                	beqz	a1,851c <__unorddf2+0x20>
    8536:	8082                	ret

00008538 <__floatunsidf>:
__floatunsidf():
    8538:	cd1d                	beqz	a0,8576 <__floatunsidf+0x3e>
    853a:	1141                	addi	sp,sp,-16
    853c:	c422                	sw	s0,8(sp)
    853e:	c606                	sw	ra,12(sp)
    8540:	842a                	mv	s0,a0
    8542:	976fd0ef          	jal	ra,56b8 <__clzsi2>
    8546:	41e00693          	li	a3,1054
    854a:	8e89                	sub	a3,a3,a0
    854c:	47a9                	li	a5,10
    854e:	7ff6f693          	andi	a3,a3,2047
    8552:	02a7dc63          	bge	a5,a0,858a <__floatunsidf+0x52>
    8556:	1555                	addi	a0,a0,-11
    8558:	00a417b3          	sll	a5,s0,a0
    855c:	07b2                	slli	a5,a5,0xc
    855e:	83b1                	srli	a5,a5,0xc
    8560:	4701                	li	a4,0
    8562:	40b2                	lw	ra,12(sp)
    8564:	4422                	lw	s0,8(sp)
    8566:	07b2                	slli	a5,a5,0xc
    8568:	06d2                	slli	a3,a3,0x14
    856a:	83b1                	srli	a5,a5,0xc
    856c:	8fd5                	or	a5,a5,a3
    856e:	853a                	mv	a0,a4
    8570:	85be                	mv	a1,a5
    8572:	0141                	addi	sp,sp,16
    8574:	8082                	ret
    8576:	4781                	li	a5,0
    8578:	4681                	li	a3,0
    857a:	07b2                	slli	a5,a5,0xc
    857c:	06d2                	slli	a3,a3,0x14
    857e:	83b1                	srli	a5,a5,0xc
    8580:	4701                	li	a4,0
    8582:	8fd5                	or	a5,a5,a3
    8584:	853a                	mv	a0,a4
    8586:	85be                	mv	a1,a5
    8588:	8082                	ret
    858a:	472d                	li	a4,11
    858c:	8f09                	sub	a4,a4,a0
    858e:	00e457b3          	srl	a5,s0,a4
    8592:	07b2                	slli	a5,a5,0xc
    8594:	01550713          	addi	a4,a0,21
    8598:	00e41733          	sll	a4,s0,a4
    859c:	83b1                	srli	a5,a5,0xc
    859e:	b7d1                	j	8562 <__floatunsidf+0x2a>

000085a0 <__trunctfdf2>:
__trunctfdf2():
    85a0:	00c52803          	lw	a6,12(a0)
    85a4:	4118                	lw	a4,0(a0)
    85a6:	4154                	lw	a3,4(a0)
    85a8:	450c                	lw	a1,8(a0)
    85aa:	6521                	lui	a0,0x8
    85ac:	fff50793          	addi	a5,a0,-1 # 7fff <_vfiprintf_r+0x91>
    85b0:	01085613          	srli	a2,a6,0x10
    85b4:	00359e13          	slli	t3,a1,0x3
    85b8:	8e7d                	and	a2,a2,a5
    85ba:	01d75893          	srli	a7,a4,0x1d
    85be:	01d6d793          	srli	a5,a3,0x1d
    85c2:	01081313          	slli	t1,a6,0x10
    85c6:	068e                	slli	a3,a3,0x3
    85c8:	1141                	addi	sp,sp,-16
    85ca:	01c7e7b3          	or	a5,a5,t3
    85ce:	0116e6b3          	or	a3,a3,a7
    85d2:	01035313          	srli	t1,t1,0x10
    85d6:	00371e13          	slli	t3,a4,0x3
    85da:	00160893          	addi	a7,a2,1
    85de:	1579                	addi	a0,a0,-2
    85e0:	81f5                	srli	a1,a1,0x1d
    85e2:	030e                	slli	t1,t1,0x3
    85e4:	c43e                	sw	a5,8(sp)
    85e6:	c236                	sw	a3,4(sp)
    85e8:	c072                	sw	t3,0(sp)
    85ea:	00a8f533          	and	a0,a7,a0
    85ee:	01f85813          	srli	a6,a6,0x1f
    85f2:	0065e5b3          	or	a1,a1,t1
    85f6:	c905                	beqz	a0,8626 <__trunctfdf2+0x86>
    85f8:	7771                	lui	a4,0xffffc
    85fa:	40070713          	addi	a4,a4,1024 # ffffc400 <_eusrstack+0xdffec400>
    85fe:	963a                	add	a2,a2,a4
    8600:	7fe00713          	li	a4,2046
    8604:	04c75d63          	bge	a4,a2,865e <__trunctfdf2+0xbe>
    8608:	7ff00613          	li	a2,2047
    860c:	4701                	li	a4,0
    860e:	4781                	li	a5,0
    8610:	0732                	slli	a4,a4,0xc
    8612:	0652                	slli	a2,a2,0x14
    8614:	8331                	srli	a4,a4,0xc
    8616:	087e                	slli	a6,a6,0x1f
    8618:	8f51                	or	a4,a4,a2
    861a:	01076733          	or	a4,a4,a6
    861e:	853e                	mv	a0,a5
    8620:	85ba                	mv	a1,a4
    8622:	0141                	addi	sp,sp,16
    8624:	8082                	ret
    8626:	8fd5                	or	a5,a5,a3
    8628:	8fcd                	or	a5,a5,a1
    862a:	01c7e7b3          	or	a5,a5,t3
    862e:	e205                	bnez	a2,864e <__trunctfdf2+0xae>
    8630:	cbf1                	beqz	a5,8704 <__trunctfdf2+0x164>
    8632:	4781                	li	a5,0
    8634:	4695                	li	a3,5
    8636:	0036d593          	srli	a1,a3,0x3
    863a:	00979713          	slli	a4,a5,0x9
    863e:	01d79693          	slli	a3,a5,0x1d
    8642:	00b6e7b3          	or	a5,a3,a1
    8646:	8331                	srli	a4,a4,0xc
    8648:	7ff67613          	andi	a2,a2,2047
    864c:	b7d1                	j	8610 <__trunctfdf2+0x70>
    864e:	dfcd                	beqz	a5,8608 <__trunctfdf2+0x68>
    8650:	4801                	li	a6,0
    8652:	7ff00613          	li	a2,2047
    8656:	00080737          	lui	a4,0x80
    865a:	4781                	li	a5,0
    865c:	bf55                	j	8610 <__trunctfdf2+0x70>
    865e:	0ac04663          	bgtz	a2,870a <__trunctfdf2+0x16a>
    8662:	fcc00793          	li	a5,-52
    8666:	0ef64f63          	blt	a2,a5,8764 <__trunctfdf2+0x1c4>
    866a:	03d00793          	li	a5,61
    866e:	40c78633          	sub	a2,a5,a2
    8672:	40565793          	srai	a5,a2,0x5
    8676:	00080737          	lui	a4,0x80
    867a:	8dd9                	or	a1,a1,a4
    867c:	00279513          	slli	a0,a5,0x2
    8680:	870a                	mv	a4,sp
    8682:	4681                	li	a3,0
    8684:	c62e                	sw	a1,12(sp)
    8686:	00a108b3          	add	a7,sp,a0
    868a:	0711                	addi	a4,a4,4
    868c:	8a7d                	andi	a2,a2,31
    868e:	01c6e6b3          	or	a3,a3,t3
    8692:	01170963          	beq	a4,a7,86a4 <__trunctfdf2+0x104>
    8696:	00072e03          	lw	t3,0(a4) # 80000 <_data_lma+0x7713c>
    869a:	0711                	addi	a4,a4,4
    869c:	01c6e6b3          	or	a3,a3,t3
    86a0:	ff171be3          	bne	a4,a7,8696 <__trunctfdf2+0xf6>
    86a4:	470d                	li	a4,3
    86a6:	8f1d                	sub	a4,a4,a5
    86a8:	ca79                	beqz	a2,877e <__trunctfdf2+0x1de>
    86aa:	01010893          	addi	a7,sp,16
    86ae:	98aa                	add	a7,a7,a0
    86b0:	ff08a883          	lw	a7,-16(a7) # fff0 <_data_lma+0x712c>
    86b4:	02000e13          	li	t3,32
    86b8:	40ce0e33          	sub	t3,t3,a2
    86bc:	01c898b3          	sll	a7,a7,t3
    86c0:	0116e6b3          	or	a3,a3,a7
    86c4:	cb75                	beqz	a4,87b8 <__trunctfdf2+0x218>
    86c6:	070a                	slli	a4,a4,0x2
    86c8:	950a                	add	a0,a0,sp
    86ca:	00e10eb3          	add	t4,sp,a4
    86ce:	888a                	mv	a7,sp
    86d0:	410c                	lw	a1,0(a0)
    86d2:	00452303          	lw	t1,4(a0)
    86d6:	0891                	addi	a7,a7,4
    86d8:	00c5d5b3          	srl	a1,a1,a2
    86dc:	01c31333          	sll	t1,t1,t3
    86e0:	0065e5b3          	or	a1,a1,t1
    86e4:	feb8ae23          	sw	a1,-4(a7)
    86e8:	0511                	addi	a0,a0,4
    86ea:	ff1e93e3          	bne	t4,a7,86d0 <__trunctfdf2+0x130>
    86ee:	4591                	li	a1,4
    86f0:	40f587b3          	sub	a5,a1,a5
    86f4:	45b2                	lw	a1,12(sp)
    86f6:	0808                	addi	a0,sp,16
    86f8:	972a                	add	a4,a4,a0
    86fa:	00c5d5b3          	srl	a1,a1,a2
    86fe:	feb72823          	sw	a1,-16(a4)
    8702:	a861                	j	879a <__trunctfdf2+0x1fa>
    8704:	4601                	li	a2,0
    8706:	4701                	li	a4,0
    8708:	b721                	j	8610 <__trunctfdf2+0x70>
    870a:	00469713          	slli	a4,a3,0x4
    870e:	00479513          	slli	a0,a5,0x4
    8712:	01c76733          	or	a4,a4,t3
    8716:	82f1                	srli	a3,a3,0x1c
    8718:	83f1                	srli	a5,a5,0x1c
    871a:	0592                	slli	a1,a1,0x4
    871c:	00e03733          	snez	a4,a4
    8720:	8ec9                	or	a3,a3,a0
    8722:	8fcd                	or	a5,a5,a1
    8724:	8ed9                	or	a3,a3,a4
    8726:	0076f713          	andi	a4,a3,7
    872a:	c711                	beqz	a4,8736 <__trunctfdf2+0x196>
    872c:	00f6f713          	andi	a4,a3,15
    8730:	4591                	li	a1,4
    8732:	02b71c63          	bne	a4,a1,876a <__trunctfdf2+0x1ca>
    8736:	00800737          	lui	a4,0x800
    873a:	8f7d                	and	a4,a4,a5
    873c:	ee070de3          	beqz	a4,8636 <__trunctfdf2+0x96>
    8740:	0605                	addi	a2,a2,1
    8742:	7ff00713          	li	a4,2047
    8746:	ece601e3          	beq	a2,a4,8608 <__trunctfdf2+0x68>
    874a:	ff800737          	lui	a4,0xff800
    874e:	177d                	addi	a4,a4,-1
    8750:	8f7d                	and	a4,a4,a5
    8752:	01d71793          	slli	a5,a4,0x1d
    8756:	828d                	srli	a3,a3,0x3
    8758:	0726                	slli	a4,a4,0x9
    875a:	7ff67613          	andi	a2,a2,2047
    875e:	8fd5                	or	a5,a5,a3
    8760:	8331                	srli	a4,a4,0xc
    8762:	b57d                	j	8610 <__trunctfdf2+0x70>
    8764:	4685                	li	a3,1
    8766:	4781                	li	a5,0
    8768:	4601                	li	a2,0
    876a:	ffc6b713          	sltiu	a4,a3,-4
    876e:	00174713          	xori	a4,a4,1
    8772:	97ba                	add	a5,a5,a4
    8774:	00800737          	lui	a4,0x800
    8778:	0691                	addi	a3,a3,4
    877a:	8f7d                	and	a4,a4,a5
    877c:	b7c1                	j	873c <__trunctfdf2+0x19c>
    877e:	858a                	mv	a1,sp
    8780:	00a588b3          	add	a7,a1,a0
    8784:	0008a883          	lw	a7,0(a7)
    8788:	0591                	addi	a1,a1,4
    878a:	0605                	addi	a2,a2,1
    878c:	ff15ae23          	sw	a7,-4(a1)
    8790:	fec758e3          	bge	a4,a2,8780 <__trunctfdf2+0x1e0>
    8794:	4711                	li	a4,4
    8796:	40f707b3          	sub	a5,a4,a5
    879a:	078a                	slli	a5,a5,0x2
    879c:	978a                	add	a5,a5,sp
    879e:	0818                	addi	a4,sp,16
    87a0:	0007a023          	sw	zero,0(a5) # 100000 <_data_lma+0xf713c>
    87a4:	0791                	addi	a5,a5,4
    87a6:	fee79de3          	bne	a5,a4,87a0 <__trunctfdf2+0x200>
    87aa:	4702                	lw	a4,0(sp)
    87ac:	00d036b3          	snez	a3,a3
    87b0:	4792                	lw	a5,4(sp)
    87b2:	8ed9                	or	a3,a3,a4
    87b4:	4601                	li	a2,0
    87b6:	bf85                	j	8726 <__trunctfdf2+0x186>
    87b8:	4785                	li	a5,1
    87ba:	4701                	li	a4,0
    87bc:	bf2d                	j	86f6 <__trunctfdf2+0x156>

000087be <_close>:
_close():
    87be:	05800793          	li	a5,88
    87c2:	96f1a623          	sw	a5,-1684(gp) # 2000038c <errno>
    87c6:	557d                	li	a0,-1
    87c8:	8082                	ret

000087ca <_fstat>:
_fstat():
    87ca:	05800793          	li	a5,88
    87ce:	96f1a623          	sw	a5,-1684(gp) # 2000038c <errno>
    87d2:	557d                	li	a0,-1
    87d4:	8082                	ret

000087d6 <_isatty>:
_isatty():
    87d6:	05800793          	li	a5,88
    87da:	96f1a623          	sw	a5,-1684(gp) # 2000038c <errno>
    87de:	4501                	li	a0,0
    87e0:	8082                	ret

000087e2 <_lseek>:
_lseek():
    87e2:	05800793          	li	a5,88
    87e6:	96f1a623          	sw	a5,-1684(gp) # 2000038c <errno>
    87ea:	557d                	li	a0,-1
    87ec:	8082                	ret

000087ee <_read>:
_read():
    87ee:	05800793          	li	a5,88
    87f2:	96f1a623          	sw	a5,-1684(gp) # 2000038c <errno>
    87f6:	557d                	li	a0,-1
    87f8:	8082                	ret

000087fa <_sbrk>:
_sbrk():
    87fa:	88418793          	addi	a5,gp,-1916 # 200002a4 <heap_end.1518>
    87fe:	439c                	lw	a5,0(a5)
    8800:	c791                	beqz	a5,880c <_sbrk+0x12>
    8802:	953e                	add	a0,a0,a5
    8804:	88a1a223          	sw	a0,-1916(gp) # 200002a4 <heap_end.1518>
    8808:	853e                	mv	a0,a5
    880a:	8082                	ret
    880c:	97018793          	addi	a5,gp,-1680 # 20000390 <_ebss>
    8810:	953e                	add	a0,a0,a5
    8812:	88a1a223          	sw	a0,-1916(gp) # 200002a4 <heap_end.1518>
    8816:	853e                	mv	a0,a5
    8818:	8082                	ret
    881a:	0000                	unimp
    881c:	4155                	li	sp,21
    881e:	5452                	lw	s0,52(sp)
    8820:	5420                	lw	s0,104(s0)
    8822:	7865                	lui	a6,0xffff9
    8824:	2e74                	fld	fa3,216(a2)
    8826:	0000                	unimp
    8828:	0a0d                	addi	s4,s4,3
    882a:	4155                	li	sp,21
    882c:	5452                	lw	s0,52(sp)
    882e:	6720                	flw	fs0,72(a4)
    8830:	7465                	lui	s0,0xffff9
    8832:	6420                	flw	fs0,72(s0)
    8834:	7461                	lui	s0,0xffff8
    8836:	3a61                	jal	81ce <_vfiprintf_r+0x260>
    8838:	0000                	unimp
    883a:	0000                	unimp
    883c:	420a                	lw	tp,128(sp)
    883e:	7561                	lui	a0,0xffff8
    8840:	2064                	fld	fs1,192(s0)
    8842:	6152                	flw	ft2,20(sp)
    8844:	6574                	flw	fa3,76(a0)
    8846:	3d20                	fld	fs0,120(a0)
    8848:	2520                	fld	fs0,72(a0)
    884a:	0064                	addi	s1,sp,12
    884c:	640a                	flw	fs0,128(sp)
    884e:	7461                	lui	s0,0xffff8
    8850:	4261                	li	tp,24
    8852:	7469                	lui	s0,0xffffa
    8854:	3d20                	fld	fs0,120(a0)
    8856:	2520                	fld	fs0,72(a0)
    8858:	0064                	addi	s1,sp,12
    885a:	0000                	unimp
    885c:	730a                	flw	ft6,160(sp)
    885e:	6f74                	flw	fa3,92(a4)
    8860:	4270                	lw	a2,68(a2)
    8862:	7469                	lui	s0,0xffffa
    8864:	3d20                	fld	fs0,120(a0)
    8866:	2520                	fld	fs0,72(a0)
    8868:	0064                	addi	s1,sp,12
    886a:	0000                	unimp
    886c:	700a                	flw	ft0,160(sp)
    886e:	7261                	lui	tp,0xffff8
    8870:	7469                	lui	s0,0xffffa
    8872:	5479                	li	s0,-2
    8874:	7079                	c.lui	zero,0xffffe
    8876:	2065                	jal	891e <MyReportDescHD+0x12>
    8878:	203d                	jal	88a6 <uart_index+0x12>
    887a:	6425                	lui	s0,0x9
    887c:	0000                	unimp
	...

00008880 <gpio_group>:
    8880:	0800 4001 0c00 4001 1000 4001 1400 4001     ...@...@...@...@
    8890:	1800 4001                                   ...@

00008894 <uart_index>:
    8894:	3800 4001 4400 4000 4800 4000 4c00 4000     .8.@.D.@.H.@.L.@
    88a4:	5000 4000 1800 4000 1c00 4000 2000 4000     .P.@...@...@. .@

000088b4 <MyDevDescrHD>:
    88b4:	0112 0200 0002 0800 1a86 5722 0100 0201     .........."W....
    88c4:	0103 0000                                   ....

000088c8 <MyCfgDescrHD>:
    88c8:	0209 0043 0102 a000 0932 0004 0100 0202     ..C.....2.......
    88d8:	0001 2405 1000 0501 0124 0000 2404 0202     ...$....$....$..
    88e8:	2405 0006 0701 8105 4003 ff00 0409 0001     .$.......@......
    88f8:	0a02 0000 0700 0205 4002 0000 0507 0282     .........@......
    8908:	0040 0000                                   @...

0000890c <MyReportDescHD>:
    890c:	0314 0032 0030 0031 0037 002d 0032 002d     ..2.0.1.7.-.2.-.
    891c:	0032 0035                                   2.5.

00008920 <MyManuInfoHD>:
    8920:	030e 0077 0063 0068 002e 0063 006e 0000     ..w.c.h...c.n...

00008930 <MyProdInfoHD>:
    8930:	030c 0043 0048 0033 0030 0037               ..C.H.3.0.7.

0000893c <MySerNumInfoHD>:
    893c:	0316 0030 0031 0032 0033 0034 0035 0036     ..0.1.2.3.4.5.6.
    894c:	0037 0038 0039 0000                         7.8.9...

00008954 <MyUSBQUADescHD>:
    8954:	060a 0200 00ff 40ff 0001 0000 364c 0000     .......@....L6..
    8964:	33a0 0000 375a 0000 3496 0000 375a 0000     .3..Z7...4..Z7..
    8974:	3336 0000 3174 0000 375a 0000 335a 0000     63..t1..Z7..Z3..
    8984:	3382 0000 3610 0000 3630 0000 32c0 0000     .3...6..06...2..
    8994:	31a6 0000 31b8 0000 31cc 0000 32c0 0000     .1...1...1...2..
    89a4:	32c0 0000 3264 0000 3276 0000 32c0 0000     .2..d2..v2...2..
    89b4:	32c0 0000 32c0 0000 32c0 0000 32c0 0000     .2...2...2...2..
    89c4:	32c0 0000 32c0 0000 32b8 0000 32c0 0000     .2...2...2...2..
    89d4:	32c0 0000 32c0 0000 32c0 0000 32c0 0000     .2...2...2...2..
    89e4:	32c0 0000 32c0 0000 32c0 0000 32c0 0000     .2...2...2...2..
    89f4:	32c0 0000 32c0 0000 32c0 0000 32c0 0000     .2...2...2...2..
    8a04:	32c0 0000 32c0 0000 32c0 0000 32c0 0000     .2...2...2...2..
    8a14:	32c0 0000 3252 0000 bb40 ffff b9c4 ffff     .2..R2..@.......
    8a24:	bad4 ffff badc ffff bad4 ffff b9f4 ffff     ................
    8a34:	bad4 ffff badc ffff b9c4 ffff b9c4 ffff     ................
    8a44:	b9f4 ffff badc ffff bb36 ffff bb36 ffff     ........6...6...
    8a54:	bb36 ffff b9f4 ffff c1a2 ffff c094 ffff     6...............
    8a64:	c094 ffff c092 ffff c09a ffff c09a ffff     ................
    8a74:	c060 ffff c092 ffff c09a ffff c060 ffff     `...........`...
    8a84:	c09a ffff c092 ffff c18e ffff c18e ffff     ................
    8a94:	c18e ffff c060 ffff                         ....`...

00008a9c <__clz_tab>:
    8a9c:	0100 0202 0303 0303 0404 0404 0404 0404     ................
    8aac:	0505 0505 0505 0505 0505 0505 0505 0505     ................
    8abc:	0606 0606 0606 0606 0606 0606 0606 0606     ................
    8acc:	0606 0606 0606 0606 0606 0606 0606 0606     ................
    8adc:	0707 0707 0707 0707 0707 0707 0707 0707     ................
    8aec:	0707 0707 0707 0707 0707 0707 0707 0707     ................
    8afc:	0707 0707 0707 0707 0707 0707 0707 0707     ................
    8b0c:	0707 0707 0707 0707 0707 0707 0707 0707     ................
    8b1c:	0808 0808 0808 0808 0808 0808 0808 0808     ................
    8b2c:	0808 0808 0808 0808 0808 0808 0808 0808     ................
    8b3c:	0808 0808 0808 0808 0808 0808 0808 0808     ................
    8b4c:	0808 0808 0808 0808 0808 0808 0808 0808     ................
    8b5c:	0808 0808 0808 0808 0808 0808 0808 0808     ................
    8b6c:	0808 0808 0808 0808 0808 0808 0808 0808     ................
    8b7c:	0808 0808 0808 0808 0808 0808 0808 0808     ................
    8b8c:	0808 0808 0808 0808 0808 0808 0808 0808     ................
    8b9c:	0000 0000 ffff ffff ffff 7fef 4e49 0046     ............INF.
    8bac:	6e69 0066 414e 004e 616e 006e 0030 0000     inf.NAN.nan.0...
    8bbc:	3130 3332 3534 3736 3938 4241 4443 4645     0123456789ABCDEF
    8bcc:	0000 0000 3130 3332 3534 3736 3938 6261     ....0123456789ab
    8bdc:	6463 6665 0000 0000 0000 0000 0000 0000     cdef............
    8bec:	0000 3ff8 4361 636f 87a7 3fd2 c8b3 8b60     ...?aCoc...?..`.
    8bfc:	8a28 3fc6 79fb 509f 4413 3fd3 0000 0000     (..?.y.P.D.?....
    8c0c:	0000 3ff0 0000 0000 0000 4024 0000 0000     ...?......$@....
    8c1c:	0000 401c 0000 0000 0000 4014 0000 0000     ...@.......@....
    8c2c:	0000 3fe0 6e49 6966 696e 7974 0000 0000     ...?Infinity....
    8c3c:	614e 004e                                   NaN.

00008c40 <__sf_fake_stderr>:
	...

00008c60 <__sf_fake_stdin>:
	...

00008c80 <__sf_fake_stdout>:
	...

00008ca0 <__mprec_bigtens>:
    8ca0:	8000 37e0 c379 4341 6e17 b505 b8b5 4693     ...7y.AC.n.....F
    8cb0:	f9f5 e93f 4f03 4d38 1d32 f930 7748 5a82     ..?..O8M2.0.Hw.Z
    8cc0:	bf3c 7f73 4fdd 7515                         <.s..O.u

00008cc8 <__mprec_tens>:
    8cc8:	0000 0000 0000 3ff0 0000 0000 0000 4024     .......?......$@
    8cd8:	0000 0000 0000 4059 0000 0000 4000 408f     ......Y@.....@.@
    8ce8:	0000 0000 8800 40c3 0000 0000 6a00 40f8     .......@.....j.@
    8cf8:	0000 0000 8480 412e 0000 0000 12d0 4163     .......A......cA
    8d08:	0000 0000 d784 4197 0000 0000 cd65 41cd     .......A....e..A
    8d18:	0000 2000 a05f 4202 0000 e800 4876 4237     ... _..B....vH7B
    8d28:	0000 a200 1a94 426d 0000 e540 309c 42a2     ......mB..@..0.B
    8d38:	0000 1e90 bcc4 42d6 0000 2634 6bf5 430c     .......B..4&.k.C
    8d48:	8000 37e0 c379 4341 a000 85d8 3457 4376     ...7y.AC....W4vC
    8d58:	c800 674e c16d 43ab 3d00 6091 58e4 43e1     ..Ngm..C.=.`.X.C
    8d68:	8c40 78b5 af1d 4415 ef50 d6e2 1ae4 444b     @..x...DP.....KD
    8d78:	d592 064d f0cf 4480 4af6 c7e1 2d02 44b5     ..M....D.J...-.D
    8d88:	9db4 79d9 7843 44ea                         ...yCx.D

00008d90 <p05.3319>:
    8d90:	0005 0000 0019 0000 007d 0000 2d23 2b30     ........}...#-0+
    8da0:	0020 0000 6c68 004c 6665 4567 4746 0000      ...hlL.efgEFG..
    8db0:	0043 0000 4f50 4953 0058 0000 002e 0000     C...POSIX.......

00008dc0 <_ctype_>:
    8dc0:	2000 2020 2020 2020 2020 2828 2828 2028     .         ((((( 
    8dd0:	2020 2020 2020 2020 2020 2020 2020 2020                     
    8de0:	8820 1010 1010 1010 1010 1010 1010 1010      ...............
    8df0:	0410 0404 0404 0404 0404 1004 1010 1010     ................
    8e00:	1010 4141 4141 4141 0101 0101 0101 0101     ..AAAAAA........
    8e10:	0101 0101 0101 0101 0101 0101 1010 1010     ................
    8e20:	1010 4242 4242 4242 0202 0202 0202 0202     ..BBBBBB........
    8e30:	0202 0202 0202 0202 0202 0202 1010 1010     ................
    8e40:	0020 0000 0000 0000 0000 0000 0000 0000      ...............
	...
